
EXTI_Driver.elf:     file format elf32-littlearm


Disassembly of section .isr_vector:

08000000 <g_pfnVectors>:
 8000000:	20002800 	andcs	r2, r0, r0, lsl #16
 8000004:	08000a49 	stmdaeq	r0, {r0, r3, r6, r9, fp}
 8000008:	08000a99 	stmdaeq	r0, {r0, r3, r4, r7, r9, fp}
 800000c:	08000a99 	stmdaeq	r0, {r0, r3, r4, r7, r9, fp}
 8000010:	08000a99 	stmdaeq	r0, {r0, r3, r4, r7, r9, fp}
 8000014:	08000a99 	stmdaeq	r0, {r0, r3, r4, r7, r9, fp}
 8000018:	08000a99 	stmdaeq	r0, {r0, r3, r4, r7, r9, fp}
	...
 800002c:	08000891 	stmdaeq	r0, {r0, r4, r7, fp}
 8000030:	08000a99 	stmdaeq	r0, {r0, r3, r4, r7, r9, fp}
 8000034:	00000000 	andeq	r0, r0, r0
 8000038:	08000a99 	stmdaeq	r0, {r0, r3, r4, r7, r9, fp}
 800003c:	08000a99 	stmdaeq	r0, {r0, r3, r4, r7, r9, fp}
 8000040:	08000a99 	stmdaeq	r0, {r0, r3, r4, r7, r9, fp}
 8000044:	08000a99 	stmdaeq	r0, {r0, r3, r4, r7, r9, fp}
 8000048:	08000a99 	stmdaeq	r0, {r0, r3, r4, r7, r9, fp}
 800004c:	08000a99 	stmdaeq	r0, {r0, r3, r4, r7, r9, fp}
 8000050:	08000a99 	stmdaeq	r0, {r0, r3, r4, r7, r9, fp}
 8000054:	08000a99 	stmdaeq	r0, {r0, r3, r4, r7, r9, fp}
 8000058:	080004b9 	stmdaeq	r0, {r0, r3, r4, r5, r7, sl}
 800005c:	080004dd 	stmdaeq	r0, {r0, r2, r3, r4, r6, r7, sl}
 8000060:	08000501 	stmdaeq	r0, {r0, r8, sl}
 8000064:	08000525 	stmdaeq	r0, {r0, r2, r5, r8, sl}
 8000068:	08000549 	stmdaeq	r0, {r0, r3, r6, r8, sl}
 800006c:	08000a99 	stmdaeq	r0, {r0, r3, r4, r7, r9, fp}
 8000070:	08000a99 	stmdaeq	r0, {r0, r3, r4, r7, r9, fp}
 8000074:	08000a99 	stmdaeq	r0, {r0, r3, r4, r7, r9, fp}
 8000078:	08000a99 	stmdaeq	r0, {r0, r3, r4, r7, r9, fp}
 800007c:	08000a99 	stmdaeq	r0, {r0, r3, r4, r7, r9, fp}
 8000080:	08000a99 	stmdaeq	r0, {r0, r3, r4, r7, r9, fp}
 8000084:	08000a99 	stmdaeq	r0, {r0, r3, r4, r7, r9, fp}
 8000088:	08000a99 	stmdaeq	r0, {r0, r3, r4, r7, r9, fp}
 800008c:	08000a99 	stmdaeq	r0, {r0, r3, r4, r7, r9, fp}
 8000090:	08000a99 	stmdaeq	r0, {r0, r3, r4, r7, r9, fp}
 8000094:	08000a99 	stmdaeq	r0, {r0, r3, r4, r7, r9, fp}
 8000098:	08000a99 	stmdaeq	r0, {r0, r3, r4, r7, r9, fp}
 800009c:	0800056d 	stmdaeq	r0, {r0, r2, r3, r5, r6, r8, sl}
 80000a0:	08000a99 	stmdaeq	r0, {r0, r3, r4, r7, r9, fp}
 80000a4:	08000a99 	stmdaeq	r0, {r0, r3, r4, r7, r9, fp}
 80000a8:	08000a99 	stmdaeq	r0, {r0, r3, r4, r7, r9, fp}
 80000ac:	08000a99 	stmdaeq	r0, {r0, r3, r4, r7, r9, fp}
 80000b0:	08000a99 	stmdaeq	r0, {r0, r3, r4, r7, r9, fp}
 80000b4:	08000a99 	stmdaeq	r0, {r0, r3, r4, r7, r9, fp}
 80000b8:	08000a99 	stmdaeq	r0, {r0, r3, r4, r7, r9, fp}
 80000bc:	08000a99 	stmdaeq	r0, {r0, r3, r4, r7, r9, fp}
 80000c0:	08000a99 	stmdaeq	r0, {r0, r3, r4, r7, r9, fp}
 80000c4:	08000a99 	stmdaeq	r0, {r0, r3, r4, r7, r9, fp}
 80000c8:	08000a99 	stmdaeq	r0, {r0, r3, r4, r7, r9, fp}
 80000cc:	08000a99 	stmdaeq	r0, {r0, r3, r4, r7, r9, fp}
 80000d0:	08000a99 	stmdaeq	r0, {r0, r3, r4, r7, r9, fp}
 80000d4:	08000a99 	stmdaeq	r0, {r0, r3, r4, r7, r9, fp}
 80000d8:	08000a99 	stmdaeq	r0, {r0, r3, r4, r7, r9, fp}
 80000dc:	08000a99 	stmdaeq	r0, {r0, r3, r4, r7, r9, fp}
 80000e0:	08000615 	stmdaeq	r0, {r0, r2, r4, r9, sl}
 80000e4:	08000a99 	stmdaeq	r0, {r0, r3, r4, r7, r9, fp}
 80000e8:	00000000 	andeq	r0, r0, r0
 80000ec:	08000a99 	stmdaeq	r0, {r0, r3, r4, r7, r9, fp}
 80000f0:	08000a99 	stmdaeq	r0, {r0, r3, r4, r7, r9, fp}
 80000f4:	08000a99 	stmdaeq	r0, {r0, r3, r4, r7, r9, fp}
 80000f8:	08000a99 	stmdaeq	r0, {r0, r3, r4, r7, r9, fp}
 80000fc:	08000a99 	stmdaeq	r0, {r0, r3, r4, r7, r9, fp}
 8000100:	08000a99 	stmdaeq	r0, {r0, r3, r4, r7, r9, fp}
 8000104:	08000a99 	stmdaeq	r0, {r0, r3, r4, r7, r9, fp}
 8000108:	08000a99 	stmdaeq	r0, {r0, r3, r4, r7, r9, fp}
 800010c:	08000a99 	stmdaeq	r0, {r0, r3, r4, r7, r9, fp}
 8000110:	08000a99 	stmdaeq	r0, {r0, r3, r4, r7, r9, fp}
 8000114:	08000a99 	stmdaeq	r0, {r0, r3, r4, r7, r9, fp}
 8000118:	08000a99 	stmdaeq	r0, {r0, r3, r4, r7, r9, fp}
 800011c:	08000a99 	stmdaeq	r0, {r0, r3, r4, r7, r9, fp}
 8000120:	08000a99 	stmdaeq	r0, {r0, r3, r4, r7, r9, fp}
 8000124:	08000a99 	stmdaeq	r0, {r0, r3, r4, r7, r9, fp}
 8000128:	08000a99 	stmdaeq	r0, {r0, r3, r4, r7, r9, fp}
 800012c:	08000a99 	stmdaeq	r0, {r0, r3, r4, r7, r9, fp}

Disassembly of section .text:

08000130 <__do_global_dtors_aux>:
 8000130:	b510      	push	{r4, lr}
 8000132:	4c05      	ldr	r4, [pc, #20]	; (8000148 <__do_global_dtors_aux+0x18>)
 8000134:	7823      	ldrb	r3, [r4, #0]
 8000136:	b933      	cbnz	r3, 8000146 <__do_global_dtors_aux+0x16>
 8000138:	4b04      	ldr	r3, [pc, #16]	; (800014c <__do_global_dtors_aux+0x1c>)
 800013a:	b113      	cbz	r3, 8000142 <__do_global_dtors_aux+0x12>
 800013c:	4804      	ldr	r0, [pc, #16]	; (8000150 <__do_global_dtors_aux+0x20>)
 800013e:	f3af 8000 	nop.w
 8000142:	2301      	movs	r3, #1
 8000144:	7023      	strb	r3, [r4, #0]
 8000146:	bd10      	pop	{r4, pc}
 8000148:	20000000 	andcs	r0, r0, r0
 800014c:	00000000 	andeq	r0, r0, r0
 8000150:	08000ae4 	stmdaeq	r0, {r2, r5, r6, r7, r9, fp}

08000154 <frame_dummy>:
 8000154:	b508      	push	{r3, lr}
 8000156:	4b03      	ldr	r3, [pc, #12]	; (8000164 <frame_dummy+0x10>)
 8000158:	b11b      	cbz	r3, 8000162 <frame_dummy+0xe>
 800015a:	4903      	ldr	r1, [pc, #12]	; (8000168 <frame_dummy+0x14>)
 800015c:	4803      	ldr	r0, [pc, #12]	; (800016c <frame_dummy+0x18>)
 800015e:	f3af 8000 	nop.w
 8000162:	bd08      	pop	{r3, pc}
 8000164:	00000000 	andeq	r0, r0, r0
 8000168:	20000004 	andcs	r0, r0, r4
 800016c:	08000ae4 	stmdaeq	r0, {r2, r5, r6, r7, r9, fp}

08000170 <NVIC_ENABLE>:
 8000170:	b480      	push	{r7}
 8000172:	b083      	sub	sp, #12
 8000174:	af00      	add	r7, sp, #0
 8000176:	4603      	mov	r3, r0
 8000178:	71fb      	strb	r3, [r7, #7]
 800017a:	79fb      	ldrb	r3, [r7, #7]
 800017c:	2b0f      	cmp	r3, #15
 800017e:	d854      	bhi.n	800022a <NVIC_ENABLE+0xba>
 8000180:	a201      	add	r2, pc, #4	; (adr r2, 8000188 <NVIC_ENABLE+0x18>)
 8000182:	f852 f023 	ldr.w	pc, [r2, r3, lsl #2]
 8000186:	bf00      	nop
 8000188:	080001c9 	stmdaeq	r0, {r0, r3, r6, r7, r8}
 800018c:	080001d7 	stmdaeq	r0, {r0, r1, r2, r4, r6, r7, r8}
 8000190:	080001e5 	stmdaeq	r0, {r0, r2, r5, r6, r7, r8}
 8000194:	080001f3 	stmdaeq	r0, {r0, r1, r4, r5, r6, r7, r8}
 8000198:	08000201 	stmdaeq	r0, {r0, r9}
 800019c:	0800020f 	stmdaeq	r0, {r0, r1, r2, r3, r9}
 80001a0:	0800020f 	stmdaeq	r0, {r0, r1, r2, r3, r9}
 80001a4:	0800020f 	stmdaeq	r0, {r0, r1, r2, r3, r9}
 80001a8:	0800020f 	stmdaeq	r0, {r0, r1, r2, r3, r9}
 80001ac:	0800020f 	stmdaeq	r0, {r0, r1, r2, r3, r9}
 80001b0:	0800021d 	stmdaeq	r0, {r0, r2, r3, r4, r9}
 80001b4:	0800021d 	stmdaeq	r0, {r0, r2, r3, r4, r9}
 80001b8:	0800021d 	stmdaeq	r0, {r0, r2, r3, r4, r9}
 80001bc:	0800021d 	stmdaeq	r0, {r0, r2, r3, r4, r9}
 80001c0:	0800021d 	stmdaeq	r0, {r0, r2, r3, r4, r9}
 80001c4:	0800021d 	stmdaeq	r0, {r0, r2, r3, r4, r9}
 80001c8:	4b1a      	ldr	r3, [pc, #104]	; (8000234 <NVIC_ENABLE+0xc4>)
 80001ca:	681b      	ldr	r3, [r3, #0]
 80001cc:	4a19      	ldr	r2, [pc, #100]	; (8000234 <NVIC_ENABLE+0xc4>)
 80001ce:	f043 0340 	orr.w	r3, r3, #64	; 0x40
 80001d2:	6013      	str	r3, [r2, #0]
 80001d4:	e029      	b.n	800022a <NVIC_ENABLE+0xba>
 80001d6:	4b17      	ldr	r3, [pc, #92]	; (8000234 <NVIC_ENABLE+0xc4>)
 80001d8:	681b      	ldr	r3, [r3, #0]
 80001da:	4a16      	ldr	r2, [pc, #88]	; (8000234 <NVIC_ENABLE+0xc4>)
 80001dc:	f043 0380 	orr.w	r3, r3, #128	; 0x80
 80001e0:	6013      	str	r3, [r2, #0]
 80001e2:	e022      	b.n	800022a <NVIC_ENABLE+0xba>
 80001e4:	4b13      	ldr	r3, [pc, #76]	; (8000234 <NVIC_ENABLE+0xc4>)
 80001e6:	681b      	ldr	r3, [r3, #0]
 80001e8:	4a12      	ldr	r2, [pc, #72]	; (8000234 <NVIC_ENABLE+0xc4>)
 80001ea:	f443 7380 	orr.w	r3, r3, #256	; 0x100
 80001ee:	6013      	str	r3, [r2, #0]
 80001f0:	e01b      	b.n	800022a <NVIC_ENABLE+0xba>
 80001f2:	4b10      	ldr	r3, [pc, #64]	; (8000234 <NVIC_ENABLE+0xc4>)
 80001f4:	681b      	ldr	r3, [r3, #0]
 80001f6:	4a0f      	ldr	r2, [pc, #60]	; (8000234 <NVIC_ENABLE+0xc4>)
 80001f8:	f443 7300 	orr.w	r3, r3, #512	; 0x200
 80001fc:	6013      	str	r3, [r2, #0]
 80001fe:	e014      	b.n	800022a <NVIC_ENABLE+0xba>
 8000200:	4b0c      	ldr	r3, [pc, #48]	; (8000234 <NVIC_ENABLE+0xc4>)
 8000202:	681b      	ldr	r3, [r3, #0]
 8000204:	4a0b      	ldr	r2, [pc, #44]	; (8000234 <NVIC_ENABLE+0xc4>)
 8000206:	f443 6380 	orr.w	r3, r3, #1024	; 0x400
 800020a:	6013      	str	r3, [r2, #0]
 800020c:	e00d      	b.n	800022a <NVIC_ENABLE+0xba>
 800020e:	4b09      	ldr	r3, [pc, #36]	; (8000234 <NVIC_ENABLE+0xc4>)
 8000210:	681b      	ldr	r3, [r3, #0]
 8000212:	4a08      	ldr	r2, [pc, #32]	; (8000234 <NVIC_ENABLE+0xc4>)
 8000214:	f443 0300 	orr.w	r3, r3, #8388608	; 0x800000
 8000218:	6013      	str	r3, [r2, #0]
 800021a:	e006      	b.n	800022a <NVIC_ENABLE+0xba>
 800021c:	4b06      	ldr	r3, [pc, #24]	; (8000238 <NVIC_ENABLE+0xc8>)
 800021e:	681b      	ldr	r3, [r3, #0]
 8000220:	4a05      	ldr	r2, [pc, #20]	; (8000238 <NVIC_ENABLE+0xc8>)
 8000222:	f443 7380 	orr.w	r3, r3, #256	; 0x100
 8000226:	6013      	str	r3, [r2, #0]
 8000228:	bf00      	nop
 800022a:	bf00      	nop
 800022c:	370c      	adds	r7, #12
 800022e:	46bd      	mov	sp, r7
 8000230:	bc80      	pop	{r7}
 8000232:	4770      	bx	lr
 8000234:	e000e100 	and	lr, r0, r0, lsl #2
 8000238:	e000e104 	and	lr, r0, r4, lsl #2

0800023c <NVIC_DISABLE>:
 800023c:	b480      	push	{r7}
 800023e:	b083      	sub	sp, #12
 8000240:	af00      	add	r7, sp, #0
 8000242:	4603      	mov	r3, r0
 8000244:	71fb      	strb	r3, [r7, #7]
 8000246:	79fb      	ldrb	r3, [r7, #7]
 8000248:	2b0f      	cmp	r3, #15
 800024a:	d854      	bhi.n	80002f6 <NVIC_DISABLE+0xba>
 800024c:	a201      	add	r2, pc, #4	; (adr r2, 8000254 <NVIC_DISABLE+0x18>)
 800024e:	f852 f023 	ldr.w	pc, [r2, r3, lsl #2]
 8000252:	bf00      	nop
 8000254:	08000295 	stmdaeq	r0, {r0, r2, r4, r7, r9}
 8000258:	080002a3 	stmdaeq	r0, {r0, r1, r5, r7, r9}
 800025c:	080002b1 	stmdaeq	r0, {r0, r4, r5, r7, r9}
 8000260:	080002bf 	stmdaeq	r0, {r0, r1, r2, r3, r4, r5, r7, r9}
 8000264:	080002cd 	stmdaeq	r0, {r0, r2, r3, r6, r7, r9}
 8000268:	080002db 	stmdaeq	r0, {r0, r1, r3, r4, r6, r7, r9}
 800026c:	080002db 	stmdaeq	r0, {r0, r1, r3, r4, r6, r7, r9}
 8000270:	080002db 	stmdaeq	r0, {r0, r1, r3, r4, r6, r7, r9}
 8000274:	080002db 	stmdaeq	r0, {r0, r1, r3, r4, r6, r7, r9}
 8000278:	080002db 	stmdaeq	r0, {r0, r1, r3, r4, r6, r7, r9}
 800027c:	080002e9 	stmdaeq	r0, {r0, r3, r5, r6, r7, r9}
 8000280:	080002e9 	stmdaeq	r0, {r0, r3, r5, r6, r7, r9}
 8000284:	080002e9 	stmdaeq	r0, {r0, r3, r5, r6, r7, r9}
 8000288:	080002e9 	stmdaeq	r0, {r0, r3, r5, r6, r7, r9}
 800028c:	080002e9 	stmdaeq	r0, {r0, r3, r5, r6, r7, r9}
 8000290:	080002e9 	stmdaeq	r0, {r0, r3, r5, r6, r7, r9}
 8000294:	4b1a      	ldr	r3, [pc, #104]	; (8000300 <NVIC_DISABLE+0xc4>)
 8000296:	681b      	ldr	r3, [r3, #0]
 8000298:	4a19      	ldr	r2, [pc, #100]	; (8000300 <NVIC_DISABLE+0xc4>)
 800029a:	f023 0340 	bic.w	r3, r3, #64	; 0x40
 800029e:	6013      	str	r3, [r2, #0]
 80002a0:	e029      	b.n	80002f6 <NVIC_DISABLE+0xba>
 80002a2:	4b17      	ldr	r3, [pc, #92]	; (8000300 <NVIC_DISABLE+0xc4>)
 80002a4:	681b      	ldr	r3, [r3, #0]
 80002a6:	4a16      	ldr	r2, [pc, #88]	; (8000300 <NVIC_DISABLE+0xc4>)
 80002a8:	f023 0380 	bic.w	r3, r3, #128	; 0x80
 80002ac:	6013      	str	r3, [r2, #0]
 80002ae:	e022      	b.n	80002f6 <NVIC_DISABLE+0xba>
 80002b0:	4b13      	ldr	r3, [pc, #76]	; (8000300 <NVIC_DISABLE+0xc4>)
 80002b2:	681b      	ldr	r3, [r3, #0]
 80002b4:	4a12      	ldr	r2, [pc, #72]	; (8000300 <NVIC_DISABLE+0xc4>)
 80002b6:	f423 7380 	bic.w	r3, r3, #256	; 0x100
 80002ba:	6013      	str	r3, [r2, #0]
 80002bc:	e01b      	b.n	80002f6 <NVIC_DISABLE+0xba>
 80002be:	4b10      	ldr	r3, [pc, #64]	; (8000300 <NVIC_DISABLE+0xc4>)
 80002c0:	681b      	ldr	r3, [r3, #0]
 80002c2:	4a0f      	ldr	r2, [pc, #60]	; (8000300 <NVIC_DISABLE+0xc4>)
 80002c4:	f423 7300 	bic.w	r3, r3, #512	; 0x200
 80002c8:	6013      	str	r3, [r2, #0]
 80002ca:	e014      	b.n	80002f6 <NVIC_DISABLE+0xba>
 80002cc:	4b0c      	ldr	r3, [pc, #48]	; (8000300 <NVIC_DISABLE+0xc4>)
 80002ce:	681b      	ldr	r3, [r3, #0]
 80002d0:	4a0b      	ldr	r2, [pc, #44]	; (8000300 <NVIC_DISABLE+0xc4>)
 80002d2:	f423 6380 	bic.w	r3, r3, #1024	; 0x400
 80002d6:	6013      	str	r3, [r2, #0]
 80002d8:	e00d      	b.n	80002f6 <NVIC_DISABLE+0xba>
 80002da:	4b09      	ldr	r3, [pc, #36]	; (8000300 <NVIC_DISABLE+0xc4>)
 80002dc:	681b      	ldr	r3, [r3, #0]
 80002de:	4a08      	ldr	r2, [pc, #32]	; (8000300 <NVIC_DISABLE+0xc4>)
 80002e0:	f423 0300 	bic.w	r3, r3, #8388608	; 0x800000
 80002e4:	6013      	str	r3, [r2, #0]
 80002e6:	e006      	b.n	80002f6 <NVIC_DISABLE+0xba>
 80002e8:	4b06      	ldr	r3, [pc, #24]	; (8000304 <NVIC_DISABLE+0xc8>)
 80002ea:	681b      	ldr	r3, [r3, #0]
 80002ec:	4a05      	ldr	r2, [pc, #20]	; (8000304 <NVIC_DISABLE+0xc8>)
 80002ee:	f423 7380 	bic.w	r3, r3, #256	; 0x100
 80002f2:	6013      	str	r3, [r2, #0]
 80002f4:	bf00      	nop
 80002f6:	bf00      	nop
 80002f8:	370c      	adds	r7, #12
 80002fa:	46bd      	mov	sp, r7
 80002fc:	bc80      	pop	{r7}
 80002fe:	4770      	bx	lr
 8000300:	e000e100 	and	lr, r0, r0, lsl #2
 8000304:	e000e104 	and	lr, r0, r4, lsl #2

08000308 <MCAL_EXTI_init>:
 8000308:	b580      	push	{r7, lr}
 800030a:	b084      	sub	sp, #16
 800030c:	af00      	add	r7, sp, #0
 800030e:	6078      	str	r0, [r7, #4]
 8000310:	687b      	ldr	r3, [r7, #4]
 8000312:	881b      	ldrh	r3, [r3, #0]
 8000314:	089b      	lsrs	r3, r3, #2
 8000316:	b29b      	uxth	r3, r3
 8000318:	73fb      	strb	r3, [r7, #15]
 800031a:	687b      	ldr	r3, [r7, #4]
 800031c:	881b      	ldrh	r3, [r3, #0]
 800031e:	b2db      	uxtb	r3, r3
 8000320:	f003 0303 	and.w	r3, r3, #3
 8000324:	b2db      	uxtb	r3, r3
 8000326:	009b      	lsls	r3, r3, #2
 8000328:	73bb      	strb	r3, [r7, #14]
 800032a:	2300      	movs	r3, #0
 800032c:	60bb      	str	r3, [r7, #8]
 800032e:	687b      	ldr	r3, [r7, #4]
 8000330:	891b      	ldrh	r3, [r3, #8]
 8000332:	813b      	strh	r3, [r7, #8]
 8000334:	2301      	movs	r3, #1
 8000336:	72bb      	strb	r3, [r7, #10]
 8000338:	687b      	ldr	r3, [r7, #4]
 800033a:	685b      	ldr	r3, [r3, #4]
 800033c:	f107 0208 	add.w	r2, r7, #8
 8000340:	4611      	mov	r1, r2
 8000342:	4618      	mov	r0, r3
 8000344:	f000 f9e0 	bl	8000708 <MCAL_GPIO_init>
 8000348:	4a54      	ldr	r2, [pc, #336]	; (800049c <MCAL_EXTI_init+0x194>)
 800034a:	7bfb      	ldrb	r3, [r7, #15]
 800034c:	3302      	adds	r3, #2
 800034e:	f852 2023 	ldr.w	r2, [r2, r3, lsl #2]
 8000352:	7bbb      	ldrb	r3, [r7, #14]
 8000354:	210f      	movs	r1, #15
 8000356:	fa01 f303 	lsl.w	r3, r1, r3
 800035a:	43db      	mvns	r3, r3
 800035c:	4618      	mov	r0, r3
 800035e:	494f      	ldr	r1, [pc, #316]	; (800049c <MCAL_EXTI_init+0x194>)
 8000360:	7bfb      	ldrb	r3, [r7, #15]
 8000362:	4002      	ands	r2, r0
 8000364:	3302      	adds	r3, #2
 8000366:	f841 2023 	str.w	r2, [r1, r3, lsl #2]
 800036a:	4a4c      	ldr	r2, [pc, #304]	; (800049c <MCAL_EXTI_init+0x194>)
 800036c:	7bfb      	ldrb	r3, [r7, #15]
 800036e:	3302      	adds	r3, #2
 8000370:	f852 2023 	ldr.w	r2, [r2, r3, lsl #2]
 8000374:	687b      	ldr	r3, [r7, #4]
 8000376:	685b      	ldr	r3, [r3, #4]
 8000378:	4949      	ldr	r1, [pc, #292]	; (80004a0 <MCAL_EXTI_init+0x198>)
 800037a:	428b      	cmp	r3, r1
 800037c:	d016      	beq.n	80003ac <MCAL_EXTI_init+0xa4>
 800037e:	687b      	ldr	r3, [r7, #4]
 8000380:	685b      	ldr	r3, [r3, #4]
 8000382:	4948      	ldr	r1, [pc, #288]	; (80004a4 <MCAL_EXTI_init+0x19c>)
 8000384:	428b      	cmp	r3, r1
 8000386:	d00f      	beq.n	80003a8 <MCAL_EXTI_init+0xa0>
 8000388:	687b      	ldr	r3, [r7, #4]
 800038a:	685b      	ldr	r3, [r3, #4]
 800038c:	4946      	ldr	r1, [pc, #280]	; (80004a8 <MCAL_EXTI_init+0x1a0>)
 800038e:	428b      	cmp	r3, r1
 8000390:	d008      	beq.n	80003a4 <MCAL_EXTI_init+0x9c>
 8000392:	687b      	ldr	r3, [r7, #4]
 8000394:	685b      	ldr	r3, [r3, #4]
 8000396:	4945      	ldr	r1, [pc, #276]	; (80004ac <MCAL_EXTI_init+0x1a4>)
 8000398:	428b      	cmp	r3, r1
 800039a:	d101      	bne.n	80003a0 <MCAL_EXTI_init+0x98>
 800039c:	2304      	movs	r3, #4
 800039e:	e006      	b.n	80003ae <MCAL_EXTI_init+0xa6>
 80003a0:	2300      	movs	r3, #0
 80003a2:	e004      	b.n	80003ae <MCAL_EXTI_init+0xa6>
 80003a4:	2303      	movs	r3, #3
 80003a6:	e002      	b.n	80003ae <MCAL_EXTI_init+0xa6>
 80003a8:	2301      	movs	r3, #1
 80003aa:	e000      	b.n	80003ae <MCAL_EXTI_init+0xa6>
 80003ac:	2300      	movs	r3, #0
 80003ae:	7bb9      	ldrb	r1, [r7, #14]
 80003b0:	408b      	lsls	r3, r1
 80003b2:	4618      	mov	r0, r3
 80003b4:	4939      	ldr	r1, [pc, #228]	; (800049c <MCAL_EXTI_init+0x194>)
 80003b6:	7bfb      	ldrb	r3, [r7, #15]
 80003b8:	4302      	orrs	r2, r0
 80003ba:	3302      	adds	r3, #2
 80003bc:	f841 2023 	str.w	r2, [r1, r3, lsl #2]
 80003c0:	687b      	ldr	r3, [r7, #4]
 80003c2:	7b1b      	ldrb	r3, [r3, #12]
 80003c4:	2b00      	cmp	r3, #0
 80003c6:	d10b      	bne.n	80003e0 <MCAL_EXTI_init+0xd8>
 80003c8:	4b39      	ldr	r3, [pc, #228]	; (80004b0 <MCAL_EXTI_init+0x1a8>)
 80003ca:	68db      	ldr	r3, [r3, #12]
 80003cc:	687a      	ldr	r2, [r7, #4]
 80003ce:	8812      	ldrh	r2, [r2, #0]
 80003d0:	4611      	mov	r1, r2
 80003d2:	2201      	movs	r2, #1
 80003d4:	408a      	lsls	r2, r1
 80003d6:	4611      	mov	r1, r2
 80003d8:	4a35      	ldr	r2, [pc, #212]	; (80004b0 <MCAL_EXTI_init+0x1a8>)
 80003da:	430b      	orrs	r3, r1
 80003dc:	60d3      	str	r3, [r2, #12]
 80003de:	e029      	b.n	8000434 <MCAL_EXTI_init+0x12c>
 80003e0:	687b      	ldr	r3, [r7, #4]
 80003e2:	7b1b      	ldrb	r3, [r3, #12]
 80003e4:	2b01      	cmp	r3, #1
 80003e6:	d10b      	bne.n	8000400 <MCAL_EXTI_init+0xf8>
 80003e8:	4b31      	ldr	r3, [pc, #196]	; (80004b0 <MCAL_EXTI_init+0x1a8>)
 80003ea:	689b      	ldr	r3, [r3, #8]
 80003ec:	687a      	ldr	r2, [r7, #4]
 80003ee:	8812      	ldrh	r2, [r2, #0]
 80003f0:	4611      	mov	r1, r2
 80003f2:	2201      	movs	r2, #1
 80003f4:	408a      	lsls	r2, r1
 80003f6:	4611      	mov	r1, r2
 80003f8:	4a2d      	ldr	r2, [pc, #180]	; (80004b0 <MCAL_EXTI_init+0x1a8>)
 80003fa:	430b      	orrs	r3, r1
 80003fc:	6093      	str	r3, [r2, #8]
 80003fe:	e019      	b.n	8000434 <MCAL_EXTI_init+0x12c>
 8000400:	687b      	ldr	r3, [r7, #4]
 8000402:	7b1b      	ldrb	r3, [r3, #12]
 8000404:	2b02      	cmp	r3, #2
 8000406:	d115      	bne.n	8000434 <MCAL_EXTI_init+0x12c>
 8000408:	4b29      	ldr	r3, [pc, #164]	; (80004b0 <MCAL_EXTI_init+0x1a8>)
 800040a:	68db      	ldr	r3, [r3, #12]
 800040c:	687a      	ldr	r2, [r7, #4]
 800040e:	8812      	ldrh	r2, [r2, #0]
 8000410:	4611      	mov	r1, r2
 8000412:	2201      	movs	r2, #1
 8000414:	408a      	lsls	r2, r1
 8000416:	4611      	mov	r1, r2
 8000418:	4a25      	ldr	r2, [pc, #148]	; (80004b0 <MCAL_EXTI_init+0x1a8>)
 800041a:	430b      	orrs	r3, r1
 800041c:	60d3      	str	r3, [r2, #12]
 800041e:	4b24      	ldr	r3, [pc, #144]	; (80004b0 <MCAL_EXTI_init+0x1a8>)
 8000420:	689b      	ldr	r3, [r3, #8]
 8000422:	687a      	ldr	r2, [r7, #4]
 8000424:	8812      	ldrh	r2, [r2, #0]
 8000426:	4611      	mov	r1, r2
 8000428:	2201      	movs	r2, #1
 800042a:	408a      	lsls	r2, r1
 800042c:	4611      	mov	r1, r2
 800042e:	4a20      	ldr	r2, [pc, #128]	; (80004b0 <MCAL_EXTI_init+0x1a8>)
 8000430:	430b      	orrs	r3, r1
 8000432:	6093      	str	r3, [r2, #8]
 8000434:	687b      	ldr	r3, [r7, #4]
 8000436:	881b      	ldrh	r3, [r3, #0]
 8000438:	4619      	mov	r1, r3
 800043a:	687b      	ldr	r3, [r7, #4]
 800043c:	691b      	ldr	r3, [r3, #16]
 800043e:	4a1d      	ldr	r2, [pc, #116]	; (80004b4 <MCAL_EXTI_init+0x1ac>)
 8000440:	f842 3021 	str.w	r3, [r2, r1, lsl #2]
 8000444:	687b      	ldr	r3, [r7, #4]
 8000446:	7b5b      	ldrb	r3, [r3, #13]
 8000448:	2b01      	cmp	r3, #1
 800044a:	d111      	bne.n	8000470 <MCAL_EXTI_init+0x168>
 800044c:	4b18      	ldr	r3, [pc, #96]	; (80004b0 <MCAL_EXTI_init+0x1a8>)
 800044e:	681b      	ldr	r3, [r3, #0]
 8000450:	687a      	ldr	r2, [r7, #4]
 8000452:	8812      	ldrh	r2, [r2, #0]
 8000454:	4611      	mov	r1, r2
 8000456:	2201      	movs	r2, #1
 8000458:	408a      	lsls	r2, r1
 800045a:	4611      	mov	r1, r2
 800045c:	4a14      	ldr	r2, [pc, #80]	; (80004b0 <MCAL_EXTI_init+0x1a8>)
 800045e:	430b      	orrs	r3, r1
 8000460:	6013      	str	r3, [r2, #0]
 8000462:	687b      	ldr	r3, [r7, #4]
 8000464:	881b      	ldrh	r3, [r3, #0]
 8000466:	b2db      	uxtb	r3, r3
 8000468:	4618      	mov	r0, r3
 800046a:	f7ff fe81 	bl	8000170 <NVIC_ENABLE>
 800046e:	e011      	b.n	8000494 <MCAL_EXTI_init+0x18c>
 8000470:	4b0f      	ldr	r3, [pc, #60]	; (80004b0 <MCAL_EXTI_init+0x1a8>)
 8000472:	681b      	ldr	r3, [r3, #0]
 8000474:	687a      	ldr	r2, [r7, #4]
 8000476:	8812      	ldrh	r2, [r2, #0]
 8000478:	4611      	mov	r1, r2
 800047a:	2201      	movs	r2, #1
 800047c:	408a      	lsls	r2, r1
 800047e:	43d2      	mvns	r2, r2
 8000480:	4611      	mov	r1, r2
 8000482:	4a0b      	ldr	r2, [pc, #44]	; (80004b0 <MCAL_EXTI_init+0x1a8>)
 8000484:	400b      	ands	r3, r1
 8000486:	6013      	str	r3, [r2, #0]
 8000488:	687b      	ldr	r3, [r7, #4]
 800048a:	881b      	ldrh	r3, [r3, #0]
 800048c:	b2db      	uxtb	r3, r3
 800048e:	4618      	mov	r0, r3
 8000490:	f7ff fed4 	bl	800023c <NVIC_DISABLE>
 8000494:	bf00      	nop
 8000496:	3710      	adds	r7, #16
 8000498:	46bd      	mov	sp, r7
 800049a:	bd80      	pop	{r7, pc}
 800049c:	40010000 	andmi	r0, r1, r0
 80004a0:	40010800 	andmi	r0, r1, r0, lsl #16
 80004a4:	40010c00 	andmi	r0, r1, r0, lsl #24
 80004a8:	40011000 	andmi	r1, r1, r0
 80004ac:	40011400 	andmi	r1, r1, r0, lsl #8
 80004b0:	40010400 	andmi	r0, r1, r0, lsl #8
 80004b4:	2000001c 	andcs	r0, r0, ip, lsl r0

080004b8 <EXTI0_IRQHandler>:
 80004b8:	b580      	push	{r7, lr}
 80004ba:	af00      	add	r7, sp, #0
 80004bc:	4b05      	ldr	r3, [pc, #20]	; (80004d4 <EXTI0_IRQHandler+0x1c>)
 80004be:	681b      	ldr	r3, [r3, #0]
 80004c0:	4798      	blx	r3
 80004c2:	4b05      	ldr	r3, [pc, #20]	; (80004d8 <EXTI0_IRQHandler+0x20>)
 80004c4:	695b      	ldr	r3, [r3, #20]
 80004c6:	4a04      	ldr	r2, [pc, #16]	; (80004d8 <EXTI0_IRQHandler+0x20>)
 80004c8:	f043 0301 	orr.w	r3, r3, #1
 80004cc:	6153      	str	r3, [r2, #20]
 80004ce:	bf00      	nop
 80004d0:	bd80      	pop	{r7, pc}
 80004d2:	bf00      	nop
 80004d4:	2000001c 	andcs	r0, r0, ip, lsl r0
 80004d8:	40010400 	andmi	r0, r1, r0, lsl #8

080004dc <EXTI1_IRQHandler>:
 80004dc:	b580      	push	{r7, lr}
 80004de:	af00      	add	r7, sp, #0
 80004e0:	4b05      	ldr	r3, [pc, #20]	; (80004f8 <EXTI1_IRQHandler+0x1c>)
 80004e2:	685b      	ldr	r3, [r3, #4]
 80004e4:	4798      	blx	r3
 80004e6:	4b05      	ldr	r3, [pc, #20]	; (80004fc <EXTI1_IRQHandler+0x20>)
 80004e8:	695b      	ldr	r3, [r3, #20]
 80004ea:	4a04      	ldr	r2, [pc, #16]	; (80004fc <EXTI1_IRQHandler+0x20>)
 80004ec:	f043 0302 	orr.w	r3, r3, #2
 80004f0:	6153      	str	r3, [r2, #20]
 80004f2:	bf00      	nop
 80004f4:	bd80      	pop	{r7, pc}
 80004f6:	bf00      	nop
 80004f8:	2000001c 	andcs	r0, r0, ip, lsl r0
 80004fc:	40010400 	andmi	r0, r1, r0, lsl #8

08000500 <EXTI2_IRQHandler>:
 8000500:	b580      	push	{r7, lr}
 8000502:	af00      	add	r7, sp, #0
 8000504:	4b05      	ldr	r3, [pc, #20]	; (800051c <EXTI2_IRQHandler+0x1c>)
 8000506:	689b      	ldr	r3, [r3, #8]
 8000508:	4798      	blx	r3
 800050a:	4b05      	ldr	r3, [pc, #20]	; (8000520 <EXTI2_IRQHandler+0x20>)
 800050c:	695b      	ldr	r3, [r3, #20]
 800050e:	4a04      	ldr	r2, [pc, #16]	; (8000520 <EXTI2_IRQHandler+0x20>)
 8000510:	f043 0304 	orr.w	r3, r3, #4
 8000514:	6153      	str	r3, [r2, #20]
 8000516:	bf00      	nop
 8000518:	bd80      	pop	{r7, pc}
 800051a:	bf00      	nop
 800051c:	2000001c 	andcs	r0, r0, ip, lsl r0
 8000520:	40010400 	andmi	r0, r1, r0, lsl #8

08000524 <EXTI3_IRQHandler>:
 8000524:	b580      	push	{r7, lr}
 8000526:	af00      	add	r7, sp, #0
 8000528:	4b05      	ldr	r3, [pc, #20]	; (8000540 <EXTI3_IRQHandler+0x1c>)
 800052a:	68db      	ldr	r3, [r3, #12]
 800052c:	4798      	blx	r3
 800052e:	4b05      	ldr	r3, [pc, #20]	; (8000544 <EXTI3_IRQHandler+0x20>)
 8000530:	695b      	ldr	r3, [r3, #20]
 8000532:	4a04      	ldr	r2, [pc, #16]	; (8000544 <EXTI3_IRQHandler+0x20>)
 8000534:	f043 0308 	orr.w	r3, r3, #8
 8000538:	6153      	str	r3, [r2, #20]
 800053a:	bf00      	nop
 800053c:	bd80      	pop	{r7, pc}
 800053e:	bf00      	nop
 8000540:	2000001c 	andcs	r0, r0, ip, lsl r0
 8000544:	40010400 	andmi	r0, r1, r0, lsl #8

08000548 <EXTI4_IRQHandler>:
 8000548:	b580      	push	{r7, lr}
 800054a:	af00      	add	r7, sp, #0
 800054c:	4b05      	ldr	r3, [pc, #20]	; (8000564 <EXTI4_IRQHandler+0x1c>)
 800054e:	691b      	ldr	r3, [r3, #16]
 8000550:	4798      	blx	r3
 8000552:	4b05      	ldr	r3, [pc, #20]	; (8000568 <EXTI4_IRQHandler+0x20>)
 8000554:	695b      	ldr	r3, [r3, #20]
 8000556:	4a04      	ldr	r2, [pc, #16]	; (8000568 <EXTI4_IRQHandler+0x20>)
 8000558:	f043 0310 	orr.w	r3, r3, #16
 800055c:	6153      	str	r3, [r2, #20]
 800055e:	bf00      	nop
 8000560:	bd80      	pop	{r7, pc}
 8000562:	bf00      	nop
 8000564:	2000001c 	andcs	r0, r0, ip, lsl r0
 8000568:	40010400 	andmi	r0, r1, r0, lsl #8

0800056c <EXTI9_5_IRQHandler>:
 800056c:	b580      	push	{r7, lr}
 800056e:	af00      	add	r7, sp, #0
 8000570:	4b26      	ldr	r3, [pc, #152]	; (800060c <EXTI9_5_IRQHandler+0xa0>)
 8000572:	695b      	ldr	r3, [r3, #20]
 8000574:	f003 0320 	and.w	r3, r3, #32
 8000578:	2b00      	cmp	r3, #0
 800057a:	d008      	beq.n	800058e <EXTI9_5_IRQHandler+0x22>
 800057c:	4b23      	ldr	r3, [pc, #140]	; (800060c <EXTI9_5_IRQHandler+0xa0>)
 800057e:	695b      	ldr	r3, [r3, #20]
 8000580:	4a22      	ldr	r2, [pc, #136]	; (800060c <EXTI9_5_IRQHandler+0xa0>)
 8000582:	f043 0320 	orr.w	r3, r3, #32
 8000586:	6153      	str	r3, [r2, #20]
 8000588:	4b21      	ldr	r3, [pc, #132]	; (8000610 <EXTI9_5_IRQHandler+0xa4>)
 800058a:	695b      	ldr	r3, [r3, #20]
 800058c:	4798      	blx	r3
 800058e:	4b1f      	ldr	r3, [pc, #124]	; (800060c <EXTI9_5_IRQHandler+0xa0>)
 8000590:	695b      	ldr	r3, [r3, #20]
 8000592:	f003 0340 	and.w	r3, r3, #64	; 0x40
 8000596:	2b00      	cmp	r3, #0
 8000598:	d008      	beq.n	80005ac <EXTI9_5_IRQHandler+0x40>
 800059a:	4b1c      	ldr	r3, [pc, #112]	; (800060c <EXTI9_5_IRQHandler+0xa0>)
 800059c:	695b      	ldr	r3, [r3, #20]
 800059e:	4a1b      	ldr	r2, [pc, #108]	; (800060c <EXTI9_5_IRQHandler+0xa0>)
 80005a0:	f043 0340 	orr.w	r3, r3, #64	; 0x40
 80005a4:	6153      	str	r3, [r2, #20]
 80005a6:	4b1a      	ldr	r3, [pc, #104]	; (8000610 <EXTI9_5_IRQHandler+0xa4>)
 80005a8:	699b      	ldr	r3, [r3, #24]
 80005aa:	4798      	blx	r3
 80005ac:	4b17      	ldr	r3, [pc, #92]	; (800060c <EXTI9_5_IRQHandler+0xa0>)
 80005ae:	695b      	ldr	r3, [r3, #20]
 80005b0:	f003 0380 	and.w	r3, r3, #128	; 0x80
 80005b4:	2b00      	cmp	r3, #0
 80005b6:	d008      	beq.n	80005ca <EXTI9_5_IRQHandler+0x5e>
 80005b8:	4b14      	ldr	r3, [pc, #80]	; (800060c <EXTI9_5_IRQHandler+0xa0>)
 80005ba:	695b      	ldr	r3, [r3, #20]
 80005bc:	4a13      	ldr	r2, [pc, #76]	; (800060c <EXTI9_5_IRQHandler+0xa0>)
 80005be:	f043 0380 	orr.w	r3, r3, #128	; 0x80
 80005c2:	6153      	str	r3, [r2, #20]
 80005c4:	4b12      	ldr	r3, [pc, #72]	; (8000610 <EXTI9_5_IRQHandler+0xa4>)
 80005c6:	69db      	ldr	r3, [r3, #28]
 80005c8:	4798      	blx	r3
 80005ca:	4b10      	ldr	r3, [pc, #64]	; (800060c <EXTI9_5_IRQHandler+0xa0>)
 80005cc:	695b      	ldr	r3, [r3, #20]
 80005ce:	f403 7380 	and.w	r3, r3, #256	; 0x100
 80005d2:	2b00      	cmp	r3, #0
 80005d4:	d008      	beq.n	80005e8 <EXTI9_5_IRQHandler+0x7c>
 80005d6:	4b0d      	ldr	r3, [pc, #52]	; (800060c <EXTI9_5_IRQHandler+0xa0>)
 80005d8:	695b      	ldr	r3, [r3, #20]
 80005da:	4a0c      	ldr	r2, [pc, #48]	; (800060c <EXTI9_5_IRQHandler+0xa0>)
 80005dc:	f443 7380 	orr.w	r3, r3, #256	; 0x100
 80005e0:	6153      	str	r3, [r2, #20]
 80005e2:	4b0b      	ldr	r3, [pc, #44]	; (8000610 <EXTI9_5_IRQHandler+0xa4>)
 80005e4:	6a1b      	ldr	r3, [r3, #32]
 80005e6:	4798      	blx	r3
 80005e8:	4b08      	ldr	r3, [pc, #32]	; (800060c <EXTI9_5_IRQHandler+0xa0>)
 80005ea:	695b      	ldr	r3, [r3, #20]
 80005ec:	f403 7300 	and.w	r3, r3, #512	; 0x200
 80005f0:	2b00      	cmp	r3, #0
 80005f2:	d008      	beq.n	8000606 <EXTI9_5_IRQHandler+0x9a>
 80005f4:	4b05      	ldr	r3, [pc, #20]	; (800060c <EXTI9_5_IRQHandler+0xa0>)
 80005f6:	695b      	ldr	r3, [r3, #20]
 80005f8:	4a04      	ldr	r2, [pc, #16]	; (800060c <EXTI9_5_IRQHandler+0xa0>)
 80005fa:	f443 7300 	orr.w	r3, r3, #512	; 0x200
 80005fe:	6153      	str	r3, [r2, #20]
 8000600:	4b03      	ldr	r3, [pc, #12]	; (8000610 <EXTI9_5_IRQHandler+0xa4>)
 8000602:	6a5b      	ldr	r3, [r3, #36]	; 0x24
 8000604:	4798      	blx	r3
 8000606:	bf00      	nop
 8000608:	bd80      	pop	{r7, pc}
 800060a:	bf00      	nop
 800060c:	40010400 	andmi	r0, r1, r0, lsl #8
 8000610:	2000001c 	andcs	r0, r0, ip, lsl r0

08000614 <EXTI15_10_IRQHandler>:
 8000614:	b580      	push	{r7, lr}
 8000616:	af00      	add	r7, sp, #0
 8000618:	4b2d      	ldr	r3, [pc, #180]	; (80006d0 <EXTI15_10_IRQHandler+0xbc>)
 800061a:	695b      	ldr	r3, [r3, #20]
 800061c:	f403 6380 	and.w	r3, r3, #1024	; 0x400
 8000620:	2b00      	cmp	r3, #0
 8000622:	d008      	beq.n	8000636 <EXTI15_10_IRQHandler+0x22>
 8000624:	4b2a      	ldr	r3, [pc, #168]	; (80006d0 <EXTI15_10_IRQHandler+0xbc>)
 8000626:	695b      	ldr	r3, [r3, #20]
 8000628:	4a29      	ldr	r2, [pc, #164]	; (80006d0 <EXTI15_10_IRQHandler+0xbc>)
 800062a:	f443 6380 	orr.w	r3, r3, #1024	; 0x400
 800062e:	6153      	str	r3, [r2, #20]
 8000630:	4b28      	ldr	r3, [pc, #160]	; (80006d4 <EXTI15_10_IRQHandler+0xc0>)
 8000632:	6a9b      	ldr	r3, [r3, #40]	; 0x28
 8000634:	4798      	blx	r3
 8000636:	4b26      	ldr	r3, [pc, #152]	; (80006d0 <EXTI15_10_IRQHandler+0xbc>)
 8000638:	695b      	ldr	r3, [r3, #20]
 800063a:	f403 6300 	and.w	r3, r3, #2048	; 0x800
 800063e:	2b00      	cmp	r3, #0
 8000640:	d008      	beq.n	8000654 <EXTI15_10_IRQHandler+0x40>
 8000642:	4b23      	ldr	r3, [pc, #140]	; (80006d0 <EXTI15_10_IRQHandler+0xbc>)
 8000644:	695b      	ldr	r3, [r3, #20]
 8000646:	4a22      	ldr	r2, [pc, #136]	; (80006d0 <EXTI15_10_IRQHandler+0xbc>)
 8000648:	f443 6300 	orr.w	r3, r3, #2048	; 0x800
 800064c:	6153      	str	r3, [r2, #20]
 800064e:	4b21      	ldr	r3, [pc, #132]	; (80006d4 <EXTI15_10_IRQHandler+0xc0>)
 8000650:	6adb      	ldr	r3, [r3, #44]	; 0x2c
 8000652:	4798      	blx	r3
 8000654:	4b1e      	ldr	r3, [pc, #120]	; (80006d0 <EXTI15_10_IRQHandler+0xbc>)
 8000656:	695b      	ldr	r3, [r3, #20]
 8000658:	f403 5380 	and.w	r3, r3, #4096	; 0x1000
 800065c:	2b00      	cmp	r3, #0
 800065e:	d008      	beq.n	8000672 <EXTI15_10_IRQHandler+0x5e>
 8000660:	4b1b      	ldr	r3, [pc, #108]	; (80006d0 <EXTI15_10_IRQHandler+0xbc>)
 8000662:	695b      	ldr	r3, [r3, #20]
 8000664:	4a1a      	ldr	r2, [pc, #104]	; (80006d0 <EXTI15_10_IRQHandler+0xbc>)
 8000666:	f443 5380 	orr.w	r3, r3, #4096	; 0x1000
 800066a:	6153      	str	r3, [r2, #20]
 800066c:	4b19      	ldr	r3, [pc, #100]	; (80006d4 <EXTI15_10_IRQHandler+0xc0>)
 800066e:	6b1b      	ldr	r3, [r3, #48]	; 0x30
 8000670:	4798      	blx	r3
 8000672:	4b17      	ldr	r3, [pc, #92]	; (80006d0 <EXTI15_10_IRQHandler+0xbc>)
 8000674:	695b      	ldr	r3, [r3, #20]
 8000676:	f403 5300 	and.w	r3, r3, #8192	; 0x2000
 800067a:	2b00      	cmp	r3, #0
 800067c:	d008      	beq.n	8000690 <EXTI15_10_IRQHandler+0x7c>
 800067e:	4b14      	ldr	r3, [pc, #80]	; (80006d0 <EXTI15_10_IRQHandler+0xbc>)
 8000680:	695b      	ldr	r3, [r3, #20]
 8000682:	4a13      	ldr	r2, [pc, #76]	; (80006d0 <EXTI15_10_IRQHandler+0xbc>)
 8000684:	f443 5300 	orr.w	r3, r3, #8192	; 0x2000
 8000688:	6153      	str	r3, [r2, #20]
 800068a:	4b12      	ldr	r3, [pc, #72]	; (80006d4 <EXTI15_10_IRQHandler+0xc0>)
 800068c:	6b5b      	ldr	r3, [r3, #52]	; 0x34
 800068e:	4798      	blx	r3
 8000690:	4b0f      	ldr	r3, [pc, #60]	; (80006d0 <EXTI15_10_IRQHandler+0xbc>)
 8000692:	695b      	ldr	r3, [r3, #20]
 8000694:	f403 4380 	and.w	r3, r3, #16384	; 0x4000
 8000698:	2b00      	cmp	r3, #0
 800069a:	d008      	beq.n	80006ae <EXTI15_10_IRQHandler+0x9a>
 800069c:	4b0c      	ldr	r3, [pc, #48]	; (80006d0 <EXTI15_10_IRQHandler+0xbc>)
 800069e:	695b      	ldr	r3, [r3, #20]
 80006a0:	4a0b      	ldr	r2, [pc, #44]	; (80006d0 <EXTI15_10_IRQHandler+0xbc>)
 80006a2:	f443 4380 	orr.w	r3, r3, #16384	; 0x4000
 80006a6:	6153      	str	r3, [r2, #20]
 80006a8:	4b0a      	ldr	r3, [pc, #40]	; (80006d4 <EXTI15_10_IRQHandler+0xc0>)
 80006aa:	6b9b      	ldr	r3, [r3, #56]	; 0x38
 80006ac:	4798      	blx	r3
 80006ae:	4b08      	ldr	r3, [pc, #32]	; (80006d0 <EXTI15_10_IRQHandler+0xbc>)
 80006b0:	695b      	ldr	r3, [r3, #20]
 80006b2:	f403 4300 	and.w	r3, r3, #32768	; 0x8000
 80006b6:	2b00      	cmp	r3, #0
 80006b8:	d008      	beq.n	80006cc <EXTI15_10_IRQHandler+0xb8>
 80006ba:	4b05      	ldr	r3, [pc, #20]	; (80006d0 <EXTI15_10_IRQHandler+0xbc>)
 80006bc:	695b      	ldr	r3, [r3, #20]
 80006be:	4a04      	ldr	r2, [pc, #16]	; (80006d0 <EXTI15_10_IRQHandler+0xbc>)
 80006c0:	f443 4300 	orr.w	r3, r3, #32768	; 0x8000
 80006c4:	6153      	str	r3, [r2, #20]
 80006c6:	4b03      	ldr	r3, [pc, #12]	; (80006d4 <EXTI15_10_IRQHandler+0xc0>)
 80006c8:	6bdb      	ldr	r3, [r3, #60]	; 0x3c
 80006ca:	4798      	blx	r3
 80006cc:	bf00      	nop
 80006ce:	bd80      	pop	{r7, pc}
 80006d0:	40010400 	andmi	r0, r1, r0, lsl #8
 80006d4:	2000001c 	andcs	r0, r0, ip, lsl r0

080006d8 <Get_PIN_Positon>:
 80006d8:	b480      	push	{r7}
 80006da:	b085      	sub	sp, #20
 80006dc:	af00      	add	r7, sp, #0
 80006de:	4603      	mov	r3, r0
 80006e0:	80fb      	strh	r3, [r7, #6]
 80006e2:	88fb      	ldrh	r3, [r7, #6]
 80006e4:	2b07      	cmp	r3, #7
 80006e6:	d803      	bhi.n	80006f0 <Get_PIN_Positon+0x18>
 80006e8:	88fb      	ldrh	r3, [r7, #6]
 80006ea:	009b      	lsls	r3, r3, #2
 80006ec:	b29b      	uxth	r3, r3
 80006ee:	e004      	b.n	80006fa <Get_PIN_Positon+0x22>
 80006f0:	88fb      	ldrh	r3, [r7, #6]
 80006f2:	3b08      	subs	r3, #8
 80006f4:	b29b      	uxth	r3, r3
 80006f6:	009b      	lsls	r3, r3, #2
 80006f8:	b29b      	uxth	r3, r3
 80006fa:	81fb      	strh	r3, [r7, #14]
 80006fc:	89fb      	ldrh	r3, [r7, #14]
 80006fe:	4618      	mov	r0, r3
 8000700:	3714      	adds	r7, #20
 8000702:	46bd      	mov	sp, r7
 8000704:	bc80      	pop	{r7}
 8000706:	4770      	bx	lr

08000708 <MCAL_GPIO_init>:
 8000708:	b590      	push	{r4, r7, lr}
 800070a:	b085      	sub	sp, #20
 800070c:	af00      	add	r7, sp, #0
 800070e:	6078      	str	r0, [r7, #4]
 8000710:	6039      	str	r1, [r7, #0]
 8000712:	683b      	ldr	r3, [r7, #0]
 8000714:	881b      	ldrh	r3, [r3, #0]
 8000716:	b29b      	uxth	r3, r3
 8000718:	2b07      	cmp	r3, #7
 800071a:	d801      	bhi.n	8000720 <MCAL_GPIO_init+0x18>
 800071c:	687b      	ldr	r3, [r7, #4]
 800071e:	e001      	b.n	8000724 <MCAL_GPIO_init+0x1c>
 8000720:	687b      	ldr	r3, [r7, #4]
 8000722:	3304      	adds	r3, #4
 8000724:	60fb      	str	r3, [r7, #12]
 8000726:	683b      	ldr	r3, [r7, #0]
 8000728:	881b      	ldrh	r3, [r3, #0]
 800072a:	b29b      	uxth	r3, r3
 800072c:	4618      	mov	r0, r3
 800072e:	f7ff ffd3 	bl	80006d8 <Get_PIN_Positon>
 8000732:	4603      	mov	r3, r0
 8000734:	461a      	mov	r2, r3
 8000736:	230f      	movs	r3, #15
 8000738:	4093      	lsls	r3, r2
 800073a:	43da      	mvns	r2, r3
 800073c:	68fb      	ldr	r3, [r7, #12]
 800073e:	681b      	ldr	r3, [r3, #0]
 8000740:	401a      	ands	r2, r3
 8000742:	68fb      	ldr	r3, [r7, #12]
 8000744:	601a      	str	r2, [r3, #0]
 8000746:	683b      	ldr	r3, [r7, #0]
 8000748:	789b      	ldrb	r3, [r3, #2]
 800074a:	b2db      	uxtb	r3, r3
 800074c:	2b00      	cmp	r3, #0
 800074e:	d00e      	beq.n	800076e <MCAL_GPIO_init+0x66>
 8000750:	683b      	ldr	r3, [r7, #0]
 8000752:	789b      	ldrb	r3, [r3, #2]
 8000754:	b2db      	uxtb	r3, r3
 8000756:	2b01      	cmp	r3, #1
 8000758:	d009      	beq.n	800076e <MCAL_GPIO_init+0x66>
 800075a:	683b      	ldr	r3, [r7, #0]
 800075c:	789b      	ldrb	r3, [r3, #2]
 800075e:	b2db      	uxtb	r3, r3
 8000760:	2b02      	cmp	r3, #2
 8000762:	d004      	beq.n	800076e <MCAL_GPIO_init+0x66>
 8000764:	683b      	ldr	r3, [r7, #0]
 8000766:	789b      	ldrb	r3, [r3, #2]
 8000768:	b2db      	uxtb	r3, r3
 800076a:	2b03      	cmp	r3, #3
 800076c:	d156      	bne.n	800081c <MCAL_GPIO_init+0x114>
 800076e:	683b      	ldr	r3, [r7, #0]
 8000770:	789b      	ldrb	r3, [r3, #2]
 8000772:	b2db      	uxtb	r3, r3
 8000774:	2b03      	cmp	r3, #3
 8000776:	d11c      	bne.n	80007b2 <MCAL_GPIO_init+0xaa>
 8000778:	683b      	ldr	r3, [r7, #0]
 800077a:	881b      	ldrh	r3, [r3, #0]
 800077c:	b29b      	uxth	r3, r3
 800077e:	4618      	mov	r0, r3
 8000780:	f7ff ffaa 	bl	80006d8 <Get_PIN_Positon>
 8000784:	4603      	mov	r3, r0
 8000786:	461a      	mov	r2, r3
 8000788:	2308      	movs	r3, #8
 800078a:	fa03 f202 	lsl.w	r2, r3, r2
 800078e:	68fb      	ldr	r3, [r7, #12]
 8000790:	681b      	ldr	r3, [r3, #0]
 8000792:	431a      	orrs	r2, r3
 8000794:	68fb      	ldr	r3, [r7, #12]
 8000796:	601a      	str	r2, [r3, #0]
 8000798:	683b      	ldr	r3, [r7, #0]
 800079a:	881b      	ldrh	r3, [r3, #0]
 800079c:	b29b      	uxth	r3, r3
 800079e:	461a      	mov	r2, r3
 80007a0:	2301      	movs	r3, #1
 80007a2:	4093      	lsls	r3, r2
 80007a4:	43da      	mvns	r2, r3
 80007a6:	687b      	ldr	r3, [r7, #4]
 80007a8:	68db      	ldr	r3, [r3, #12]
 80007aa:	401a      	ands	r2, r3
 80007ac:	687b      	ldr	r3, [r7, #4]
 80007ae:	60da      	str	r2, [r3, #12]
 80007b0:	e04d      	b.n	800084e <MCAL_GPIO_init+0x146>
 80007b2:	683b      	ldr	r3, [r7, #0]
 80007b4:	789b      	ldrb	r3, [r3, #2]
 80007b6:	b2db      	uxtb	r3, r3
 80007b8:	2b02      	cmp	r3, #2
 80007ba:	d11c      	bne.n	80007f6 <MCAL_GPIO_init+0xee>
 80007bc:	683b      	ldr	r3, [r7, #0]
 80007be:	881b      	ldrh	r3, [r3, #0]
 80007c0:	b29b      	uxth	r3, r3
 80007c2:	4618      	mov	r0, r3
 80007c4:	f7ff ff88 	bl	80006d8 <Get_PIN_Positon>
 80007c8:	4603      	mov	r3, r0
 80007ca:	461a      	mov	r2, r3
 80007cc:	2308      	movs	r3, #8
 80007ce:	fa03 f202 	lsl.w	r2, r3, r2
 80007d2:	68fb      	ldr	r3, [r7, #12]
 80007d4:	681b      	ldr	r3, [r3, #0]
 80007d6:	431a      	orrs	r2, r3
 80007d8:	68fb      	ldr	r3, [r7, #12]
 80007da:	601a      	str	r2, [r3, #0]
 80007dc:	683b      	ldr	r3, [r7, #0]
 80007de:	881b      	ldrh	r3, [r3, #0]
 80007e0:	b29b      	uxth	r3, r3
 80007e2:	461a      	mov	r2, r3
 80007e4:	2301      	movs	r3, #1
 80007e6:	fa03 f202 	lsl.w	r2, r3, r2
 80007ea:	687b      	ldr	r3, [r7, #4]
 80007ec:	68db      	ldr	r3, [r3, #12]
 80007ee:	431a      	orrs	r2, r3
 80007f0:	687b      	ldr	r3, [r7, #4]
 80007f2:	60da      	str	r2, [r3, #12]
 80007f4:	e02b      	b.n	800084e <MCAL_GPIO_init+0x146>
 80007f6:	683b      	ldr	r3, [r7, #0]
 80007f8:	789b      	ldrb	r3, [r3, #2]
 80007fa:	b2db      	uxtb	r3, r3
 80007fc:	009c      	lsls	r4, r3, #2
 80007fe:	683b      	ldr	r3, [r7, #0]
 8000800:	881b      	ldrh	r3, [r3, #0]
 8000802:	b29b      	uxth	r3, r3
 8000804:	4618      	mov	r0, r3
 8000806:	f7ff ff67 	bl	80006d8 <Get_PIN_Positon>
 800080a:	4603      	mov	r3, r0
 800080c:	fa04 f203 	lsl.w	r2, r4, r3
 8000810:	68fb      	ldr	r3, [r7, #12]
 8000812:	681b      	ldr	r3, [r3, #0]
 8000814:	431a      	orrs	r2, r3
 8000816:	68fb      	ldr	r3, [r7, #12]
 8000818:	601a      	str	r2, [r3, #0]
 800081a:	e018      	b.n	800084e <MCAL_GPIO_init+0x146>
 800081c:	683b      	ldr	r3, [r7, #0]
 800081e:	789b      	ldrb	r3, [r3, #2]
 8000820:	b2db      	uxtb	r3, r3
 8000822:	3b04      	subs	r3, #4
 8000824:	009b      	lsls	r3, r3, #2
 8000826:	683a      	ldr	r2, [r7, #0]
 8000828:	78d2      	ldrb	r2, [r2, #3]
 800082a:	b2d2      	uxtb	r2, r2
 800082c:	ea43 0402 	orr.w	r4, r3, r2
 8000830:	683b      	ldr	r3, [r7, #0]
 8000832:	881b      	ldrh	r3, [r3, #0]
 8000834:	b29b      	uxth	r3, r3
 8000836:	4618      	mov	r0, r3
 8000838:	f7ff ff4e 	bl	80006d8 <Get_PIN_Positon>
 800083c:	4603      	mov	r3, r0
 800083e:	fa04 f203 	lsl.w	r2, r4, r3
 8000842:	68fb      	ldr	r3, [r7, #12]
 8000844:	681b      	ldr	r3, [r3, #0]
 8000846:	431a      	orrs	r2, r3
 8000848:	68fb      	ldr	r3, [r7, #12]
 800084a:	601a      	str	r2, [r3, #0]
 800084c:	bf00      	nop
 800084e:	bf00      	nop
 8000850:	3714      	adds	r7, #20
 8000852:	46bd      	mov	sp, r7
 8000854:	bd90      	pop	{r4, r7, pc}

08000856 <TASKA_HANDLER>:
 8000856:	b480      	push	{r7}
 8000858:	b085      	sub	sp, #20
 800085a:	af00      	add	r7, sp, #0
 800085c:	60f8      	str	r0, [r7, #12]
 800085e:	60b9      	str	r1, [r7, #8]
 8000860:	607a      	str	r2, [r7, #4]
 8000862:	68fa      	ldr	r2, [r7, #12]
 8000864:	68bb      	ldr	r3, [r7, #8]
 8000866:	441a      	add	r2, r3
 8000868:	687b      	ldr	r3, [r7, #4]
 800086a:	4413      	add	r3, r2
 800086c:	4618      	mov	r0, r3
 800086e:	3714      	adds	r7, #20
 8000870:	46bd      	mov	sp, r7
 8000872:	bc80      	pop	{r7}
 8000874:	4770      	bx	lr

08000876 <TASKB_HANDLER>:
 8000876:	b480      	push	{r7}
 8000878:	b085      	sub	sp, #20
 800087a:	af00      	add	r7, sp, #0
 800087c:	60f8      	str	r0, [r7, #12]
 800087e:	60b9      	str	r1, [r7, #8]
 8000880:	607a      	str	r2, [r7, #4]
 8000882:	603b      	str	r3, [r7, #0]
 8000884:	683b      	ldr	r3, [r7, #0]
 8000886:	4618      	mov	r0, r3
 8000888:	3714      	adds	r7, #20
 800088a:	46bd      	mov	sp, r7
 800088c:	bc80      	pop	{r7}
 800088e:	4770      	bx	lr

08000890 <SVC_Handler>:
 8000890:	b480      	push	{r7}
 8000892:	af00      	add	r7, sp, #0
 8000894:	f3ef 8314 	mrs	r3, CONTROL
 8000898:	f003 030e 	and.w	r3, r3, #14
 800089c:	f383 8814 	msr	CONTROL, r3
 80008a0:	bf00      	nop
 80008a2:	46bd      	mov	sp, r7
 80008a4:	bc80      	pop	{r7}
 80008a6:	4770      	bx	lr

080008a8 <Main_OS>:
 80008a8:	b580      	push	{r7, lr}
 80008aa:	af00      	add	r7, sp, #0
 80008ac:	4a2f      	ldr	r2, [pc, #188]	; (800096c <Main_OS+0xc4>)
 80008ae:	4b30      	ldr	r3, [pc, #192]	; (8000970 <Main_OS+0xc8>)
 80008b0:	601a      	str	r2, [r3, #0]
 80008b2:	4b2f      	ldr	r3, [pc, #188]	; (8000970 <Main_OS+0xc8>)
 80008b4:	681b      	ldr	r3, [r3, #0]
 80008b6:	f5a3 7300 	sub.w	r3, r3, #512	; 0x200
 80008ba:	4a2e      	ldr	r2, [pc, #184]	; (8000974 <Main_OS+0xcc>)
 80008bc:	6013      	str	r3, [r2, #0]
 80008be:	4b2d      	ldr	r3, [pc, #180]	; (8000974 <Main_OS+0xcc>)
 80008c0:	681b      	ldr	r3, [r3, #0]
 80008c2:	3b08      	subs	r3, #8
 80008c4:	4a2c      	ldr	r2, [pc, #176]	; (8000978 <Main_OS+0xd0>)
 80008c6:	6013      	str	r3, [r2, #0]
 80008c8:	4b2b      	ldr	r3, [pc, #172]	; (8000978 <Main_OS+0xd0>)
 80008ca:	681b      	ldr	r3, [r3, #0]
 80008cc:	3b64      	subs	r3, #100	; 0x64
 80008ce:	4a2b      	ldr	r2, [pc, #172]	; (800097c <Main_OS+0xd4>)
 80008d0:	6013      	str	r3, [r2, #0]
 80008d2:	4b2a      	ldr	r3, [pc, #168]	; (800097c <Main_OS+0xd4>)
 80008d4:	681b      	ldr	r3, [r3, #0]
 80008d6:	3b08      	subs	r3, #8
 80008d8:	4a29      	ldr	r2, [pc, #164]	; (8000980 <Main_OS+0xd8>)
 80008da:	6013      	str	r3, [r2, #0]
 80008dc:	4b28      	ldr	r3, [pc, #160]	; (8000980 <Main_OS+0xd8>)
 80008de:	681b      	ldr	r3, [r3, #0]
 80008e0:	3b64      	subs	r3, #100	; 0x64
 80008e2:	4a28      	ldr	r2, [pc, #160]	; (8000984 <Main_OS+0xdc>)
 80008e4:	6013      	str	r3, [r2, #0]
 80008e6:	4b28      	ldr	r3, [pc, #160]	; (8000988 <Main_OS+0xe0>)
 80008e8:	781b      	ldrb	r3, [r3, #0]
 80008ea:	2b00      	cmp	r3, #0
 80008ec:	d11c      	bne.n	8000928 <Main_OS+0x80>
 80008ee:	4b22      	ldr	r3, [pc, #136]	; (8000978 <Main_OS+0xd0>)
 80008f0:	681b      	ldr	r3, [r3, #0]
 80008f2:	f383 8809 	msr	PSP, r3
 80008f6:	f3ef 8314 	mrs	r3, CONTROL
 80008fa:	f043 0302 	orr.w	r3, r3, #2
 80008fe:	f383 8814 	msr	CONTROL, r3
 8000902:	f3ef 8314 	mrs	r3, CONTROL
 8000906:	f043 0301 	orr.w	r3, r3, #1
 800090a:	f383 8814 	msr	CONTROL, r3
 800090e:	2203      	movs	r2, #3
 8000910:	2102      	movs	r1, #2
 8000912:	2001      	movs	r0, #1
 8000914:	f7ff ff9f 	bl	8000856 <TASKA_HANDLER>
 8000918:	df04      	svc	4
 800091a:	f3ef 8314 	mrs	r3, CONTROL
 800091e:	f003 0305 	and.w	r3, r3, #5
 8000922:	f383 8814 	msr	CONTROL, r3
 8000926:	e020      	b.n	800096a <Main_OS+0xc2>
 8000928:	4b17      	ldr	r3, [pc, #92]	; (8000988 <Main_OS+0xe0>)
 800092a:	781b      	ldrb	r3, [r3, #0]
 800092c:	2b01      	cmp	r3, #1
 800092e:	d1da      	bne.n	80008e6 <Main_OS+0x3e>
 8000930:	4b13      	ldr	r3, [pc, #76]	; (8000980 <Main_OS+0xd8>)
 8000932:	681b      	ldr	r3, [r3, #0]
 8000934:	f383 8809 	msr	PSP, r3
 8000938:	f3ef 8314 	mrs	r3, CONTROL
 800093c:	f043 0302 	orr.w	r3, r3, #2
 8000940:	f383 8814 	msr	CONTROL, r3
 8000944:	f3ef 8314 	mrs	r3, CONTROL
 8000948:	f043 0301 	orr.w	r3, r3, #1
 800094c:	f383 8814 	msr	CONTROL, r3
 8000950:	2304      	movs	r3, #4
 8000952:	2203      	movs	r2, #3
 8000954:	2102      	movs	r1, #2
 8000956:	2001      	movs	r0, #1
 8000958:	f7ff ff8d 	bl	8000876 <TASKB_HANDLER>
 800095c:	df04      	svc	4
 800095e:	f3ef 8314 	mrs	r3, CONTROL
 8000962:	f003 0305 	and.w	r3, r3, #5
 8000966:	f383 8814 	msr	CONTROL, r3
 800096a:	e7bc      	b.n	80008e6 <Main_OS+0x3e>
 800096c:	20002800 	andcs	r2, r0, r0, lsl #16
 8000970:	2000005c 	andcs	r0, r0, ip, asr r0
 8000974:	20000060 	andcs	r0, r0, r0, rrx
 8000978:	20000064 	andcs	r0, r0, r4, rrx
 800097c:	20000068 	andcs	r0, r0, r8, rrx
 8000980:	2000006c 	andcs	r0, r0, ip, rrx
 8000984:	20000070 	andcs	r0, r0, r0, ror r0
 8000988:	20000074 	andcs	r0, r0, r4, ror r0

0800098c <EXTI9_callBack>:
 800098c:	b480      	push	{r7}
 800098e:	af00      	add	r7, sp, #0
 8000990:	4b09      	ldr	r3, [pc, #36]	; (80009b8 <EXTI9_callBack+0x2c>)
 8000992:	781b      	ldrb	r3, [r3, #0]
 8000994:	2b00      	cmp	r3, #0
 8000996:	d103      	bne.n	80009a0 <EXTI9_callBack+0x14>
 8000998:	4b07      	ldr	r3, [pc, #28]	; (80009b8 <EXTI9_callBack+0x2c>)
 800099a:	2201      	movs	r2, #1
 800099c:	701a      	strb	r2, [r3, #0]
 800099e:	e006      	b.n	80009ae <EXTI9_callBack+0x22>
 80009a0:	4b05      	ldr	r3, [pc, #20]	; (80009b8 <EXTI9_callBack+0x2c>)
 80009a2:	781b      	ldrb	r3, [r3, #0]
 80009a4:	2b01      	cmp	r3, #1
 80009a6:	d102      	bne.n	80009ae <EXTI9_callBack+0x22>
 80009a8:	4b03      	ldr	r3, [pc, #12]	; (80009b8 <EXTI9_callBack+0x2c>)
 80009aa:	2200      	movs	r2, #0
 80009ac:	701a      	strb	r2, [r3, #0]
 80009ae:	bf00      	nop
 80009b0:	46bd      	mov	sp, r7
 80009b2:	bc80      	pop	{r7}
 80009b4:	4770      	bx	lr
 80009b6:	bf00      	nop
 80009b8:	20000074 	andcs	r0, r0, r4, ror r0

080009bc <clock_init>:
 80009bc:	b480      	push	{r7}
 80009be:	af00      	add	r7, sp, #0
 80009c0:	4b0a      	ldr	r3, [pc, #40]	; (80009ec <clock_init+0x30>)
 80009c2:	699b      	ldr	r3, [r3, #24]
 80009c4:	4a09      	ldr	r2, [pc, #36]	; (80009ec <clock_init+0x30>)
 80009c6:	f043 0304 	orr.w	r3, r3, #4
 80009ca:	6193      	str	r3, [r2, #24]
 80009cc:	4b07      	ldr	r3, [pc, #28]	; (80009ec <clock_init+0x30>)
 80009ce:	699b      	ldr	r3, [r3, #24]
 80009d0:	4a06      	ldr	r2, [pc, #24]	; (80009ec <clock_init+0x30>)
 80009d2:	f043 0308 	orr.w	r3, r3, #8
 80009d6:	6193      	str	r3, [r2, #24]
 80009d8:	4b04      	ldr	r3, [pc, #16]	; (80009ec <clock_init+0x30>)
 80009da:	699b      	ldr	r3, [r3, #24]
 80009dc:	4a03      	ldr	r2, [pc, #12]	; (80009ec <clock_init+0x30>)
 80009de:	f043 0301 	orr.w	r3, r3, #1
 80009e2:	6193      	str	r3, [r2, #24]
 80009e4:	bf00      	nop
 80009e6:	46bd      	mov	sp, r7
 80009e8:	bc80      	pop	{r7}
 80009ea:	4770      	bx	lr
 80009ec:	40021000 	andmi	r1, r2, r0

080009f0 <main>:
 80009f0:	b580      	push	{r7, lr}
 80009f2:	b088      	sub	sp, #32
 80009f4:	af00      	add	r7, sp, #0
 80009f6:	2309      	movs	r3, #9
 80009f8:	81bb      	strh	r3, [r7, #12]
 80009fa:	4b10      	ldr	r3, [pc, #64]	; (8000a3c <main+0x4c>)
 80009fc:	613b      	str	r3, [r7, #16]
 80009fe:	2309      	movs	r3, #9
 8000a00:	82bb      	strh	r3, [r7, #20]
 8000a02:	2317      	movs	r3, #23
 8000a04:	82fb      	strh	r3, [r7, #22]
 8000a06:	2301      	movs	r3, #1
 8000a08:	763b      	strb	r3, [r7, #24]
 8000a0a:	2301      	movs	r3, #1
 8000a0c:	767b      	strb	r3, [r7, #25]
 8000a0e:	4b0c      	ldr	r3, [pc, #48]	; (8000a40 <main+0x50>)
 8000a10:	61fb      	str	r3, [r7, #28]
 8000a12:	f7ff ffd3 	bl	80009bc <clock_init>
 8000a16:	f107 030c 	add.w	r3, r7, #12
 8000a1a:	4618      	mov	r0, r3
 8000a1c:	f7ff fc74 	bl	8000308 <MCAL_EXTI_init>
 8000a20:	bf00      	nop
 8000a22:	bf00      	nop
 8000a24:	bf00      	nop
 8000a26:	f3ef 8314 	mrs	r3, CONTROL
 8000a2a:	4a06      	ldr	r2, [pc, #24]	; (8000a44 <main+0x54>)
 8000a2c:	7013      	strb	r3, [r2, #0]
 8000a2e:	bf00      	nop
 8000a30:	bf00      	nop
 8000a32:	bf00      	nop
 8000a34:	f7ff ff38 	bl	80008a8 <Main_OS>
 8000a38:	e7fe      	b.n	8000a38 <main+0x48>
 8000a3a:	bf00      	nop
 8000a3c:	40010c00 	andmi	r0, r1, r0, lsl #24
 8000a40:	0800098d 	stmdaeq	r0, {r0, r2, r3, r7, r8, fp}
 8000a44:	20000058 	andcs	r0, r0, r8, asr r0

08000a48 <Reset_Handler>:
 8000a48:	480d      	ldr	r0, [pc, #52]	; (8000a80 <LoopForever+0x2>)
 8000a4a:	4685      	mov	sp, r0
 8000a4c:	f3af 8000 	nop.w
 8000a50:	480c      	ldr	r0, [pc, #48]	; (8000a84 <LoopForever+0x6>)
 8000a52:	490d      	ldr	r1, [pc, #52]	; (8000a88 <LoopForever+0xa>)
 8000a54:	4a0d      	ldr	r2, [pc, #52]	; (8000a8c <LoopForever+0xe>)
 8000a56:	2300      	movs	r3, #0
 8000a58:	e002      	b.n	8000a60 <LoopCopyDataInit>

08000a5a <CopyDataInit>:
 8000a5a:	58d4      	ldr	r4, [r2, r3]
 8000a5c:	50c4      	str	r4, [r0, r3]
 8000a5e:	3304      	adds	r3, #4

08000a60 <LoopCopyDataInit>:
 8000a60:	18c4      	adds	r4, r0, r3
 8000a62:	428c      	cmp	r4, r1
 8000a64:	d3f9      	bcc.n	8000a5a <CopyDataInit>
 8000a66:	4a0a      	ldr	r2, [pc, #40]	; (8000a90 <LoopForever+0x12>)
 8000a68:	4c0a      	ldr	r4, [pc, #40]	; (8000a94 <LoopForever+0x16>)
 8000a6a:	2300      	movs	r3, #0
 8000a6c:	e001      	b.n	8000a72 <LoopFillZerobss>

08000a6e <FillZerobss>:
 8000a6e:	6013      	str	r3, [r2, #0]
 8000a70:	3204      	adds	r2, #4

08000a72 <LoopFillZerobss>:
 8000a72:	42a2      	cmp	r2, r4
 8000a74:	d3fb      	bcc.n	8000a6e <FillZerobss>
 8000a76:	f000 f811 	bl	8000a9c <__libc_init_array>
 8000a7a:	f7ff ffb9 	bl	80009f0 <main>

08000a7e <LoopForever>:
 8000a7e:	e7fe      	b.n	8000a7e <LoopForever>
 8000a80:	20002800 	andcs	r2, r0, r0, lsl #16
 8000a84:	20000000 	andcs	r0, r0, r0
 8000a88:	20000000 	andcs	r0, r0, r0
 8000a8c:	08000b04 	stmdaeq	r0, {r2, r8, r9, fp}
 8000a90:	20000000 	andcs	r0, r0, r0
 8000a94:	20000078 	andcs	r0, r0, r8, ror r0

08000a98 <ADC1_2_IRQHandler>:
 8000a98:	e7fe      	b.n	8000a98 <ADC1_2_IRQHandler>
	...

08000a9c <__libc_init_array>:
 8000a9c:	b570      	push	{r4, r5, r6, lr}
 8000a9e:	2600      	movs	r6, #0
 8000aa0:	4d0c      	ldr	r5, [pc, #48]	; (8000ad4 <__libc_init_array+0x38>)
 8000aa2:	4c0d      	ldr	r4, [pc, #52]	; (8000ad8 <__libc_init_array+0x3c>)
 8000aa4:	1b64      	subs	r4, r4, r5
 8000aa6:	10a4      	asrs	r4, r4, #2
 8000aa8:	42a6      	cmp	r6, r4
 8000aaa:	d109      	bne.n	8000ac0 <__libc_init_array+0x24>
 8000aac:	f000 f81a 	bl	8000ae4 <_init>
 8000ab0:	2600      	movs	r6, #0
 8000ab2:	4d0a      	ldr	r5, [pc, #40]	; (8000adc <__libc_init_array+0x40>)
 8000ab4:	4c0a      	ldr	r4, [pc, #40]	; (8000ae0 <__libc_init_array+0x44>)
 8000ab6:	1b64      	subs	r4, r4, r5
 8000ab8:	10a4      	asrs	r4, r4, #2
 8000aba:	42a6      	cmp	r6, r4
 8000abc:	d105      	bne.n	8000aca <__libc_init_array+0x2e>
 8000abe:	bd70      	pop	{r4, r5, r6, pc}
 8000ac0:	f855 3b04 	ldr.w	r3, [r5], #4
 8000ac4:	4798      	blx	r3
 8000ac6:	3601      	adds	r6, #1
 8000ac8:	e7ee      	b.n	8000aa8 <__libc_init_array+0xc>
 8000aca:	f855 3b04 	ldr.w	r3, [r5], #4
 8000ace:	4798      	blx	r3
 8000ad0:	3601      	adds	r6, #1
 8000ad2:	e7f2      	b.n	8000aba <__libc_init_array+0x1e>
 8000ad4:	08000afc 	stmdaeq	r0, {r2, r3, r4, r5, r6, r7, r9, fp}
 8000ad8:	08000afc 	stmdaeq	r0, {r2, r3, r4, r5, r6, r7, r9, fp}
 8000adc:	08000afc 	stmdaeq	r0, {r2, r3, r4, r5, r6, r7, r9, fp}
 8000ae0:	08000b00 	stmdaeq	r0, {r8, r9, fp}

08000ae4 <_init>:
 8000ae4:	b5f8      	push	{r3, r4, r5, r6, r7, lr}
 8000ae6:	bf00      	nop
 8000ae8:	bcf8      	pop	{r3, r4, r5, r6, r7}
 8000aea:	bc08      	pop	{r3}
 8000aec:	469e      	mov	lr, r3
 8000aee:	4770      	bx	lr

08000af0 <_fini>:
 8000af0:	b5f8      	push	{r3, r4, r5, r6, r7, lr}
 8000af2:	bf00      	nop
 8000af4:	bcf8      	pop	{r3, r4, r5, r6, r7}
 8000af6:	bc08      	pop	{r3}
 8000af8:	469e      	mov	lr, r3
 8000afa:	4770      	bx	lr

Disassembly of section .init_array:

08000afc <__frame_dummy_init_array_entry>:
 8000afc:	08000155 	stmdaeq	r0, {r0, r2, r4, r6, r8}

Disassembly of section .fini_array:

08000b00 <__do_global_dtors_aux_fini_array_entry>:
 8000b00:	08000131 	stmdaeq	r0, {r0, r4, r5, r8}

Disassembly of section .bss:

20000000 <__bss_start__>:
20000000:	00000000 	andeq	r0, r0, r0

20000004 <object.0>:
	...

2000001c <g_P_CALLBACK_f>:
	...

20000058 <CONTORL_VAL>:
20000058:	00000000 	andeq	r0, r0, r0

2000005c <_S_MSP>:
2000005c:	00000000 	andeq	r0, r0, r0

20000060 <_E_MSP>:
20000060:	00000000 	andeq	r0, r0, r0

20000064 <_S_TASKA_PSP>:
20000064:	00000000 	andeq	r0, r0, r0

20000068 <_E_TASKA_PSP>:
20000068:	00000000 	andeq	r0, r0, r0

2000006c <_S_TASKB_PSP>:
2000006c:	00000000 	andeq	r0, r0, r0

20000070 <_E_TASKB_PSP>:
20000070:	00000000 	andeq	r0, r0, r0

20000074 <EXTI_flag>:
20000074:	00000000 	andeq	r0, r0, r0

Disassembly of section ._user_heap_stack:

20000078 <_end>:
	...

Disassembly of section .ARM.attributes:

00000000 <.ARM.attributes>:
   0:	00002841 	andeq	r2, r0, r1, asr #16
   4:	61656100 	cmnvs	r5, r0, lsl #2
   8:	01006962 	tsteq	r0, r2, ror #18
   c:	0000001e 	andeq	r0, r0, lr, lsl r0
  10:	4d2d3705 	stcmi	7, cr3, [sp, #-20]!	; 0xffffffec
  14:	070a0600 	streq	r0, [sl, -r0, lsl #12]
  18:	1202094d 	andne	r0, r2, #1261568	; 0x134000
  1c:	15011404 	strne	r1, [r1, #-1028]	; 0xfffffbfc
  20:	18031701 	stmdane	r3, {r0, r8, r9, sl, ip}
  24:	22011a01 	andcs	r1, r1, #4096	; 0x1000
  28:	Address 0x0000000000000028 is out of bounds.


Disassembly of section .comment:

00000000 <.comment>:
   0:	3a434347 	bcc	10d0d24 <_Min_Stack_Size+0x10d0924>
   4:	4e472820 	cdpmi	8, 4, cr2, cr7, cr0, {1}
   8:	6f542055 	svcvs	0x00542055
   c:	20736c6f 	rsbscs	r6, r3, pc, ror #24
  10:	20726f66 	rsbscs	r6, r2, r6, ror #30
  14:	334d5453 	movtcc	r5, #54355	; 0xd453
  18:	31312032 	teqcc	r1, r2, lsr r0
  1c:	722e332e 	eorvc	r3, lr, #-1207959552	; 0xb8000000
  20:	2e316c65 	cdpcs	12, 3, cr6, cr1, cr5, {3}
  24:	33323032 	teqcc	r2, #50	; 0x32
  28:	32313930 	eorscc	r3, r1, #48, 18	; 0xc0000
  2c:	3036312d 	eorscc	r3, r6, sp, lsr #2
  30:	31202930 			; <UNDEFINED> instruction: 0x31202930
  34:	2e332e31 	mrccs	14, 1, r2, cr3, cr1, {1}
  38:	30322031 	eorscc	r2, r2, r1, lsr r0
  3c:	37303232 			; <UNDEFINED> instruction: 0x37303232
  40:	Address 0x0000000000000040 is out of bounds.


Disassembly of section .debug_info:

00000000 <.debug_info>:
       0:	00000586 	andeq	r0, r0, r6, lsl #11
       4:	00000002 	andeq	r0, r0, r2
       8:	01040000 	mrseq	r0, (UNDEF: 4)
       c:	00000c21 	andeq	r0, r0, r1, lsr #24
      10:	0030ca0c 	eorseq	ip, r0, ip, lsl #20
      14:	00113b00 	andseq	r3, r1, r0, lsl #22
	...
      2c:	02010200 	andeq	r0, r1, #0, 4
      30:	000015a4 	andeq	r1, r0, r4, lsr #11
      34:	47060102 	strmi	r0, [r6, -r2, lsl #2]
      38:	03000004 	movweq	r0, #4
      3c:	0000572d 	andeq	r5, r0, sp, lsr #14
      40:	471e1a02 	ldrmi	r1, [lr, -r2, lsl #20]
      44:	02000000 	andeq	r0, r0, #0
      48:	32f90801 	rscscc	r0, r9, #65536	; 0x10000
      4c:	02020000 	andeq	r0, r2, #0
      50:	0004f605 	andeq	pc, r4, r5, lsl #12
      54:	07420300 	strbeq	r0, [r2, -r0, lsl #6]
      58:	1d020000 	stcne	0, cr0, [r2, #-0]
      5c:	00006122 	andeq	r6, r0, r2, lsr #2
      60:	07020200 	streq	r0, [r2, -r0, lsl #4]
      64:	00003e42 	andeq	r3, r0, r2, asr #28
      68:	00006104 	andeq	r6, r0, r4, lsl #2
      6c:	05040500 	streq	r0, [r4, #-1280]	; 0xfffffb00
      70:	00746e69 	rsbseq	r6, r4, r9, ror #28
      74:	00180f03 	andseq	r0, r8, r3, lsl #30
      78:	1d200200 	sfmne	f0, 4, [r0, #-0]
      7c:	00000080 	andeq	r0, r0, r0, lsl #1
      80:	01070402 	tsteq	r7, r2, lsl #8
      84:	04000014 	streq	r0, [r0], #-20	; 0xffffffec
      88:	00000080 	andeq	r0, r0, r0, lsl #1
      8c:	08050802 	stmdaeq	r5, {r1, fp}
      90:	0200002c 	andeq	r0, r0, #44	; 0x2c
      94:	46240708 	strtmi	r0, [r4], -r8, lsl #14
      98:	41030000 	mrsmi	r0, (UNDEF: 3)
      9c:	02000007 	andeq	r0, r0, #7
      a0:	0068282b 	rsbeq	r2, r8, fp, lsr #16
      a4:	0e030000 	cdpeq	0, 0, cr0, cr3, cr0, {0}
      a8:	02000018 	andeq	r0, r0, #24
      ac:	0087242e 	addeq	r2, r7, lr, lsr #8
      b0:	04020000 	streq	r0, [r2], #-0
      b4:	00407c05 	subeq	r7, r0, r5, lsl #24
      b8:	07040200 	streq	r0, [r4, -r0, lsl #4]
      bc:	00000f89 	andeq	r0, r0, r9, lsl #31
      c0:	3a031c06 	bcc	c70e0 <_Min_Stack_Size+0xc6ce0>
      c4:	00013309 	andeq	r3, r1, r9, lsl #6
      c8:	52430700 	subpl	r0, r3, #0, 14
      cc:	3b03004c 	blcc	c0204 <_Min_Stack_Size+0xbfe04>
      d0:	0000a60d 	andeq	sl, r0, sp, lsl #12
      d4:	00230200 	eoreq	r0, r3, r0, lsl #4
      d8:	48524307 	ldmdami	r2, {r0, r1, r2, r8, r9, lr}^
      dc:	0d3c0300 	ldceq	3, cr0, [ip, #-0]
      e0:	000000a6 	andeq	r0, r0, r6, lsr #1
      e4:	07042302 	streq	r2, [r4, -r2, lsl #6]
      e8:	00524449 	subseq	r4, r2, r9, asr #8
      ec:	a60d3d03 	strge	r3, [sp], -r3, lsl #26
      f0:	02000000 	andeq	r0, r0, #0
      f4:	4f070823 	svcmi	0x00070823
      f8:	03005244 	movweq	r5, #580	; 0x244
      fc:	00a60d3e 	adceq	r0, r6, lr, lsr sp
     100:	23020000 	movwcs	r0, #8192	; 0x2000
     104:	4aa1080c 	bmi	fe84213c <_estack+0xde83f93c>
     108:	3f030000 	svccc	0x00030000
     10c:	0000a60d 	andeq	sl, r0, sp, lsl #12
     110:	10230200 	eorne	r0, r3, r0, lsl #4
     114:	52524207 	subspl	r4, r2, #1879048192	; 0x70000000
     118:	0d400300 	stcleq	3, cr0, [r0, #-0]
     11c:	000000a6 	andeq	r0, r0, r6, lsr #1
     120:	08142302 	ldmdaeq	r4, {r1, r8, r9, sp}
     124:	000025c9 	andeq	r2, r0, r9, asr #11
     128:	a60d4103 	strge	r4, [sp], -r3, lsl #2
     12c:	02000000 	andeq	r0, r0, #0
     130:	03001823 	movweq	r1, #2083	; 0x823
     134:	00000559 	andeq	r0, r0, r9, asr r5
     138:	c0024203 	andgt	r4, r2, r3, lsl #4
     13c:	06000000 	streq	r0, [r0], -r0
     140:	09430320 	stmdbeq	r3, {r5, r8, r9}^
     144:	00000194 	muleq	r0, r4, r1
     148:	004ca508 	subeq	sl, ip, r8, lsl #10
     14c:	0d440300 	stcleq	3, cr0, [r4, #-0]
     150:	000000a6 	andeq	r0, r0, r6, lsr #1
     154:	08002302 	stmdaeq	r0, {r1, r8, r9, sp}
     158:	00003f2e 	andeq	r3, r0, lr, lsr #30
     15c:	a60d4503 	strge	r4, [sp], -r3, lsl #10
     160:	02000000 	andeq	r0, r0, #0
     164:	41080423 	tstmi	r8, r3, lsr #8
     168:	0300004b 	movweq	r0, #75	; 0x4b
     16c:	01a40d46 			; <UNDEFINED> instruction: 0x01a40d46
     170:	23020000 	movwcs	r0, #8192	; 0x2000
     174:	1d520808 	ldclne	8, cr0, [r2, #-32]	; 0xffffffe0
     178:	47030000 	strmi	r0, [r3, -r0]
     17c:	0000740c 	andeq	r7, r0, ip, lsl #8
     180:	18230200 	stmdane	r3!, {r9}
     184:	00199c08 	andseq	r9, r9, r8, lsl #24
     188:	0d480300 	stcleq	3, cr0, [r8, #-0]
     18c:	000000a6 	andeq	r0, r0, r6, lsr #1
     190:	001c2302 	andseq	r2, ip, r2, lsl #6
     194:	0000a609 	andeq	sl, r0, r9, lsl #12
     198:	0001a400 	andeq	sl, r1, r0, lsl #8
     19c:	00800a00 	addeq	r0, r0, r0, lsl #20
     1a0:	00030000 	andeq	r0, r3, r0
     1a4:	00019404 	andeq	r9, r1, r4, lsl #8
     1a8:	27dc0300 	ldrbcs	r0, [ip, r0, lsl #6]
     1ac:	49030000 	stmdbmi	r3, {}	; <UNPREDICTABLE>
     1b0:	00013f02 	andeq	r3, r1, r2, lsl #30
     1b4:	03180600 	tsteq	r8, #0, 12
     1b8:	0218094a 	andseq	r0, r8, #1212416	; 0x128000
     1bc:	49070000 	stmdbmi	r7, {}	; <UNPREDICTABLE>
     1c0:	0300524d 	movweq	r5, #589	; 0x24d
     1c4:	00a60d4b 	adceq	r0, r6, fp, asr #26
     1c8:	23020000 	movwcs	r0, #8192	; 0x2000
     1cc:	4d450700 	stclmi	7, cr0, [r5, #-0]
     1d0:	4c030052 	stcmi	0, cr0, [r3], {82}	; 0x52
     1d4:	0000a60d 	andeq	sl, r0, sp, lsl #12
     1d8:	04230200 	strteq	r0, [r3], #-512	; 0xfffffe00
     1dc:	000f0808 	andeq	r0, pc, r8, lsl #16
     1e0:	0d4d0300 	stcleq	3, cr0, [sp, #-0]
     1e4:	000000a6 	andeq	r0, r0, r6, lsr #1
     1e8:	08082302 	stmdaeq	r8, {r1, r8, r9, sp}
     1ec:	0000040e 	andeq	r0, r0, lr, lsl #8
     1f0:	a60d4e03 	strge	r4, [sp], -r3, lsl #28
     1f4:	02000000 	andeq	r0, r0, #0
     1f8:	98080c23 	stmdals	r8, {r0, r1, r5, sl, fp}
     1fc:	03000039 	movweq	r0, #57	; 0x39
     200:	00a60d4f 	adceq	r0, r6, pc, asr #26
     204:	23020000 	movwcs	r0, #8192	; 0x2000
     208:	52500710 	subspl	r0, r0, #16, 14	; 0x400000
     20c:	0d500300 	ldcleq	3, cr0, [r0, #-0]
     210:	000000a6 	andeq	r0, r0, r6, lsr #1
     214:	00142302 	andseq	r2, r4, r2, lsl #6
     218:	00451203 	subeq	r1, r5, r3, lsl #4
     21c:	02510300 	subseq	r0, r1, #0, 6
     220:	000001b5 			; <UNDEFINED> instruction: 0x000001b5
     224:	4701070b 	strmi	r0, [r1, -fp, lsl #14]
     228:	04000000 	streq	r0, [r0], #-0
     22c:	02630d0c 	rsbeq	r0, r3, #12, 26	; 0x300
     230:	ff0c0000 			; <UNDEFINED> instruction: 0xff0c0000
     234:	00000030 	andeq	r0, r0, r0, lsr r0
     238:	0017ee0c 	andseq	lr, r7, ip, lsl #28
     23c:	4b0c0100 	blmi	300644 <_Min_Stack_Size+0x300244>
     240:	02000035 	andeq	r0, r0, #53	; 0x35
     244:	0034d10c 	eorseq	sp, r4, ip, lsl #2
     248:	c30c0300 	movwgt	r0, #49920	; 0xc300
     24c:	0400003a 	streq	r0, [r0], #-58	; 0xffffffc6
     250:	00370a0c 	eorseq	r0, r7, ip, lsl #20
     254:	210c0500 	tstcs	ip, r0, lsl #10
     258:	06000002 	streq	r0, [r0], -r2
     25c:	004a940c 	subeq	r9, sl, ip, lsl #8
     260:	03000700 	movweq	r0, #1792	; 0x700
     264:	000002e1 	andeq	r0, r0, r1, ror #5
     268:	24020e04 	strcs	r0, [r2], #-3588	; 0xfffff1fc
     26c:	04000002 	streq	r0, [r0], #-2
     270:	00000263 	andeq	r0, r0, r3, ror #4
     274:	4701070b 	strmi	r0, [r1, -fp, lsl #14]
     278:	04000000 	streq	r0, [r0], #-0
     27c:	02950d10 	addseq	r0, r5, #16, 26	; 0x400
     280:	5c0c0000 	stcpl	0, cr0, [ip], {-0}
     284:	01000002 	tsteq	r0, r2
     288:	004c9d0c 	subeq	r9, ip, ip, lsl #26
     28c:	240c0200 	strcs	r0, [ip], #-512	; 0xfffffe00
     290:	0300000d 	movweq	r0, #13
     294:	4e6f0300 	cdpmi	3, 6, cr0, cr15, cr0, {0}
     298:	12040000 	andne	r0, r4, #0
     29c:	00027402 	andeq	r7, r2, r2, lsl #8
     2a0:	02950400 	addseq	r0, r5, #0, 8
     2a4:	04060000 	streq	r0, [r6], #-0
     2a8:	dd091d04 	stcle	13, cr1, [r9, #-16]
     2ac:	08000002 	stmdaeq	r0, {r1}
     2b0:	00004085 	andeq	r4, r0, r5, lsl #1
     2b4:	9a0f1e04 	bls	3c7acc <_Min_Stack_Size+0x3c76cc>
     2b8:	02000000 	andeq	r0, r0, #0
     2bc:	41080023 	tstmi	r8, r3, lsr #32
     2c0:	0400000b 	streq	r0, [r0], #-11
     2c4:	026f131f 	rsbeq	r1, pc, #2080374784	; 0x7c000000
     2c8:	23020000 	movwcs	r0, #8192	; 0x2000
     2cc:	1a480802 	bne	12022dc <_Min_Stack_Size+0x1201edc>
     2d0:	20040000 	andcs	r0, r4, r0
     2d4:	0002a113 	andeq	sl, r2, r3, lsl r1
     2d8:	03230200 			; <UNDEFINED> instruction: 0x03230200
     2dc:	1d470300 	stclne	3, cr0, [r7, #-0]
     2e0:	22040000 	andcs	r0, r4, #0
     2e4:	0002a602 	andeq	sl, r2, r2, lsl #12
     2e8:	01070b00 	tsteq	r7, r0, lsl #22
     2ec:	00000047 	andeq	r0, r0, r7, asr #32
     2f0:	0a0d1505 	beq	34570c <_Min_Stack_Size+0x34530c>
     2f4:	0c000003 	stceq	0, cr0, [r0], {3}
     2f8:	0000090f 	andeq	r0, r0, pc, lsl #18
     2fc:	46a70c00 	strtmi	r0, [r7], r0, lsl #24
     300:	0c010000 	stceq	0, cr0, [r1], {-0}
     304:	0000469f 	muleq	r0, pc, r6	; <UNPREDICTABLE>
     308:	fc030002 	stc2	0, cr0, [r3], {2}
     30c:	05000018 	streq	r0, [r0, #-24]	; 0xffffffe8
     310:	02e90217 	rsceq	r0, r9, #1879048193	; 0x70000001
     314:	070b0000 	streq	r0, [fp, -r0]
     318:	00004701 	andeq	r4, r0, r1, lsl #14
     31c:	0d180500 	cfldr32eq	mvfx0, [r8, #-0]
     320:	00000331 	andeq	r0, r0, r1, lsr r3
     324:	0037df0c 	eorseq	sp, r7, ip, lsl #30
     328:	ac0c0000 	stcge	0, cr0, [ip], {-0}
     32c:	01000014 	tsteq	r0, r4, lsl r0
     330:	18960300 	ldmne	r6, {r8, r9}
     334:	1a050000 	bne	14033c <_Min_Stack_Size+0x13ff3c>
     338:	00031602 	andeq	r1, r3, r2, lsl #12
     33c:	050c0600 	streq	r0, [ip, #-1536]	; 0xfffffa00
     340:	0383091c 	orreq	r0, r3, #28, 18	; 0x70000
     344:	cf080000 	svcgt	0x00080000
     348:	0500002b 	streq	r0, [r0, #-43]	; 0xffffffd5
     34c:	00550c1d 	subseq	r0, r5, sp, lsl ip
     350:	23020000 	movwcs	r0, #8192	; 0x2000
     354:	311c0800 	tstcc	ip, r0, lsl #16
     358:	1e050000 	cdpne	0, 0, cr0, cr5, cr0, {0}
     35c:	0003830d 	andeq	r8, r3, sp, lsl #6
     360:	04230200 	strteq	r0, [r3], #-512	; 0xfffffe00
     364:	4e495007 	cdpmi	0, 4, cr5, cr9, cr7, {0}
     368:	0c1f0500 	cfldr32eq	mvfx0, [pc], {-0}
     36c:	00000055 	andeq	r0, r0, r5, asr r0
     370:	08082302 	stmdaeq	r8, {r1, r8, r9, sp}
     374:	00002351 	andeq	r2, r0, r1, asr r3
     378:	550c2005 	strpl	r2, [ip, #-5]
     37c:	02000000 	andeq	r0, r0, #0
     380:	0d000a23 	vstreq	s0, [r0, #-140]	; 0xffffff74
     384:	00013304 	andeq	r3, r1, r4, lsl #6
     388:	053f0300 	ldreq	r0, [pc, #-768]!	; 90 <_Min_Heap_Size-0x170>
     38c:	21050000 	mrscs	r0, (UNDEF: 5)
     390:	00033d02 	andeq	r3, r3, r2, lsl #26
     394:	05140600 	ldreq	r0, [r4, #-1536]	; 0xfffffa00
     398:	03db0922 	bicseq	r0, fp, #557056	; 0x88000
     39c:	45080000 	strmi	r0, [r8, #-0]
     3a0:	0500002c 	streq	r0, [r0, #-44]	; 0xffffffd4
     3a4:	03891023 	orreq	r1, r9, #35	; 0x23
     3a8:	23020000 	movwcs	r0, #8192	; 0x2000
     3ac:	373b0800 	ldrcc	r0, [fp, -r0, lsl #16]!
     3b0:	24050000 	strcs	r0, [r5], #-0
     3b4:	00030a0a 	andeq	r0, r3, sl, lsl #20
     3b8:	0c230200 	sfmeq	f0, 4, [r3], #-0
     3bc:	002b0808 	eoreq	r0, fp, r8, lsl #16
     3c0:	0d250500 	cfstr32eq	mvfx0, [r5, #-0]
     3c4:	00000331 	andeq	r0, r0, r1, lsr r3
     3c8:	080d2302 	stmdaeq	sp, {r1, r8, r9, sp}
     3cc:	000013e1 	andeq	r1, r0, r1, ror #7
     3d0:	dd082605 	stcle	6, cr2, [r8, #-20]	; 0xffffffec
     3d4:	02000003 	andeq	r0, r0, #3
     3d8:	0e001023 	cdpeq	0, 0, cr1, cr0, cr3, {1}
     3dc:	db040d01 	blle	1037e8 <_Min_Stack_Size+0x1033e8>
     3e0:	03000003 	movweq	r0, #3
     3e4:	00003ab5 			; <UNDEFINED> instruction: 0x00003ab5
     3e8:	95022705 	strls	r2, [r2, #-1797]	; 0xfffff8fb
     3ec:	09000003 	stmdbeq	r0, {r0, r1}
     3f0:	000003ff 	strdeq	r0, [r0], -pc	; <UNPREDICTABLE>
     3f4:	000003ff 	strdeq	r0, [r0], -pc	; <UNPREDICTABLE>
     3f8:	0000800a 	andeq	r8, r0, sl
     3fc:	0d000e00 	stceq	14, cr0, [r0, #-0]
     400:	00040504 	andeq	r0, r4, r4, lsl #10
     404:	040c0f00 	streq	r0, [ip], #-3840	; 0xfffff100
     408:	00100000 	andseq	r0, r0, r0
     40c:	001d8711 	andseq	r8, sp, r1, lsl r7
     410:	080a0100 	stmdaeq	sl, {r8}
     414:	000003ef 	andeq	r0, r0, pc, ror #7
     418:	1c030501 	cfstr32ne	mvfx0, [r3], {1}
     41c:	12200000 	eorne	r0, r0, #0
     420:	000ec001 	andeq	ip, lr, r1
     424:	06280400 	strteq	r0, [r8], -r0, lsl #8
     428:	04390101 	ldrteq	r0, [r9], #-257	; 0xfffffeff
     42c:	83130000 	tsthi	r3, #0
     430:	13000003 	movwne	r0, #3
     434:	00000439 	andeq	r0, r0, r9, lsr r4
     438:	dd040d00 	stcle	13, cr0, [r4, #-0]
     43c:	14000002 	strne	r0, [r0], #-2
     440:	004d4001 	subeq	r4, sp, r1
     444:	07930100 	ldreq	r0, [r3, r0, lsl #2]
     448:	08000614 	stmdaeq	r0, {r2, r4, r9, sl}
     44c:	080006d8 	stmdaeq	r0, {r3, r4, r6, r7, r9, sl}
     450:	00000000 	andeq	r0, r0, r0
     454:	ab011401 	blge	45460 <_Min_Stack_Size+0x45060>
     458:	01000041 	tsteq	r0, r1, asr #32
     45c:	056c078c 	strbeq	r0, [ip, #-1932]!	; 0xfffff874
     460:	06140800 	ldreq	r0, [r4], -r0, lsl #16
     464:	002c0800 	eoreq	r0, ip, r0, lsl #16
     468:	14010000 	strne	r0, [r1], #-0
     46c:	00164601 	andseq	r4, r6, r1, lsl #12
     470:	07870100 	streq	r0, [r7, r0, lsl #2]
     474:	08000548 	stmdaeq	r0, {r3, r6, r8, sl}
     478:	0800056c 	stmdaeq	r0, {r2, r3, r5, r6, r8, sl}
     47c:	00000058 	andeq	r0, r0, r8, asr r0
     480:	1e011401 	cdpne	4, 0, cr1, cr1, cr1, {0}
     484:	01000049 	tsteq	r0, r9, asr #32
     488:	05240782 	streq	r0, [r4, #-1922]!	; 0xfffff87e
     48c:	05480800 	strbeq	r0, [r8, #-2048]	; 0xfffff800
     490:	00840800 	addeq	r0, r4, r0, lsl #16
     494:	14010000 	strne	r0, [r1], #-0
     498:	002fa801 	eoreq	sl, pc, r1, lsl #16
     49c:	077d0100 	ldrbeq	r0, [sp, -r0, lsl #2]!
     4a0:	08000500 	stmdaeq	r0, {r8, sl}
     4a4:	08000524 	stmdaeq	r0, {r2, r5, r8, sl}
     4a8:	000000b0 	strheq	r0, [r0], -r0	; <UNPREDICTABLE>
     4ac:	3e011401 	cdpcc	4, 0, cr1, cr1, cr1, {0}
     4b0:	01000053 	qaddeq	r0, r3, r0
     4b4:	04dc0778 	ldrbeq	r0, [ip], #1912	; 0x778
     4b8:	05000800 	streq	r0, [r0, #-2048]	; 0xfffff800
     4bc:	00dc0800 	sbcseq	r0, ip, r0, lsl #16
     4c0:	14010000 	strne	r0, [r1], #-0
     4c4:	004afc01 	subeq	pc, sl, r1, lsl #24
     4c8:	07740100 	ldrbeq	r0, [r4, -r0, lsl #2]!
     4cc:	080004b8 	stmdaeq	r0, {r3, r4, r5, r7, sl}
     4d0:	080004dc 	stmdaeq	r0, {r2, r3, r4, r6, r7, sl}
     4d4:	00000108 	andeq	r0, r0, r8, lsl #2
     4d8:	d0011501 	andle	r1, r1, r1, lsl #10
     4dc:	01000039 	tsteq	r0, r9, lsr r0
     4e0:	08010751 	stmdaeq	r1, {r0, r4, r6, r8, r9, sl}
     4e4:	b8080003 	stmdalt	r8, {r0, r1}
     4e8:	34080004 	strcc	r0, [r8], #-4
     4ec:	01000001 	tsteq	r0, r1
     4f0:	00000531 	andeq	r0, r0, r1, lsr r5
     4f4:	0024a716 	eoreq	sl, r4, r6, lsl r7
     4f8:	25510100 	ldrbcs	r0, [r1, #-256]	; 0xffffff00
     4fc:	00000531 	andeq	r0, r0, r1, lsr r5
     500:	176c9102 	strbne	r9, [ip, -r2, lsl #2]!
     504:	00004b3c 	andeq	r4, r0, ip, lsr fp
     508:	3b0c5201 	blcc	314d14 <_Min_Stack_Size+0x314914>
     50c:	02000000 	andeq	r0, r0, #0
     510:	b2177791 	andslt	r7, r7, #38010880	; 0x2440000
     514:	01000001 	tsteq	r0, r1
     518:	003b0c53 	eorseq	r0, fp, r3, asr ip
     51c:	91020000 	mrsls	r0, (UNDEF: 2)
     520:	69701876 	ldmdbvs	r0!, {r1, r2, r4, r5, r6, fp, ip}^
     524:	5601006e 	strpl	r0, [r1], -lr, rrx
     528:	0002dd0e 	andeq	sp, r2, lr, lsl #26
     52c:	70910200 	addsvc	r0, r1, r0, lsl #4
     530:	e3040d00 	movw	r0, #19712	; 0x4d00
     534:	19000003 	stmdbne	r0, {r0, r1}
     538:	0037da01 	eorseq	sp, r7, r1, lsl #20
     53c:	062e0100 	strteq	r0, [lr], -r0, lsl #2
     540:	00023c01 	andeq	r3, r2, r1, lsl #24
     544:	00030808 	andeq	r0, r3, r8, lsl #16
     548:	00018408 	andeq	r8, r1, r8, lsl #8
     54c:	05620100 	strbeq	r0, [r2, #-256]!	; 0xffffff00
     550:	691a0000 	ldmdbvs	sl, {}	; <UNPREDICTABLE>
     554:	01007172 	tsteq	r0, r2, ror r1
     558:	003b1c2e 	eorseq	r1, fp, lr, lsr #24
     55c:	91020000 	mrsls	r0, (UNDEF: 2)
     560:	011b0077 	tsteq	fp, r7, ror r0
     564:	000014a7 	andeq	r1, r0, r7, lsr #9
     568:	01060b01 	tsteq	r6, r1, lsl #22
     56c:	08000170 	stmdaeq	r0, {r4, r5, r6, r8}
     570:	0800023c 	stmdaeq	r0, {r2, r3, r4, r5, r9}
     574:	000001e0 	andeq	r0, r0, r0, ror #3
     578:	72691a01 	rsbvc	r1, r9, #4096	; 0x1000
     57c:	0b010071 	bleq	40748 <_Min_Stack_Size+0x40348>
     580:	00003b1b 	andeq	r3, r0, fp, lsl fp
     584:	77910200 	ldrvc	r0, [r1, r0, lsl #4]
     588:	05820000 	streq	r0, [r2]
     58c:	00020000 	andeq	r0, r2, r0
     590:	0000019d 	muleq	r0, sp, r1
     594:	0c210104 	stfeqs	f0, [r1], #-16
     598:	4d0c0000 	stcmi	0, cr0, [ip, #-0]
     59c:	3b000057 	blcc	700 <_Min_Stack_Size+0x300>
     5a0:	58000011 	stmdapl	r0, {r0, r4}
	...
     5ac:	cd000000 	stcgt	0, cr0, [r0, #-0]
     5b0:	de000007 	cdple	0, 0, cr0, cr0, cr7, {0}
     5b4:	02000003 	andeq	r0, r0, #3
     5b8:	15a40201 	strne	r0, [r4, #513]!	; 0x201
     5bc:	01020000 	mrseq	r0, (UNDEF: 2)
     5c0:	00044706 	andeq	r4, r4, r6, lsl #14
     5c4:	572d0300 	strpl	r0, [sp, -r0, lsl #6]!
     5c8:	1a020000 	bne	805d0 <_Min_Stack_Size+0x801d0>
     5cc:	0000471e 	andeq	r4, r0, lr, lsl r7
     5d0:	08010200 	stmdaeq	r1, {r9}
     5d4:	000032f9 	strdeq	r3, [r0], -r9
     5d8:	00004704 	andeq	r4, r0, r4, lsl #14
     5dc:	05020200 	streq	r0, [r2, #-512]	; 0xfffffe00
     5e0:	000004f6 	strdeq	r0, [r0], -r6
     5e4:	00074203 	andeq	r4, r7, r3, lsl #4
     5e8:	221d0200 	andscs	r0, sp, #0, 4
     5ec:	00000066 	andeq	r0, r0, r6, rrx
     5f0:	42070202 	andmi	r0, r7, #536870912	; 0x20000000
     5f4:	0400003e 	streq	r0, [r0], #-62	; 0xffffffc2
     5f8:	00000066 	andeq	r0, r0, r6, rrx
     5fc:	69050405 	stmdbvs	r5, {r0, r2, sl}
     600:	0200746e 	andeq	r7, r0, #1845493760	; 0x6e000000
     604:	14010704 	strne	r0, [r1], #-1796	; 0xfffff8fc
     608:	79040000 	stmdbvc	r4, {}	; <UNPREDICTABLE>
     60c:	02000000 	andeq	r0, r0, #0
     610:	2c080508 	cfstr32cs	mvfx0, [r8], {8}
     614:	08020000 	stmdaeq	r2, {}	; <UNPREDICTABLE>
     618:	00462407 	subeq	r2, r6, r7, lsl #8
     61c:	572c0300 	strpl	r0, [ip, -r0, lsl #6]!
     620:	28020000 	stmdacs	r2, {}	; <UNPREDICTABLE>
     624:	00004e25 	andeq	r4, r0, r5, lsr #28
     628:	07410300 	strbeq	r0, [r1, -r0, lsl #6]
     62c:	2b020000 	blcs	80634 <_Min_Stack_Size+0x80234>
     630:	00006d28 	andeq	r6, r0, r8, lsr #26
     634:	180e0300 	stmdane	lr, {r8, r9}
     638:	2e020000 	cdpcs	0, 0, cr0, cr2, cr0, {0}
     63c:	00008024 	andeq	r8, r0, r4, lsr #32
     640:	05040200 	streq	r0, [r4, #-512]	; 0xfffffe00
     644:	0000407c 	andeq	r4, r0, ip, ror r0
     648:	89070402 	stmdbhi	r7, {r1, sl}
     64c:	0600000f 	streq	r0, [r0], -pc
     650:	093a031c 	ldmdbeq	sl!, {r2, r3, r4, r8, r9}
     654:	00000138 	andeq	r0, r0, r8, lsr r1
     658:	4c524307 	mrrcmi	3, 0, r4, r2, cr7
     65c:	0d3b0300 	ldceq	3, cr0, [fp, #-0]
     660:	000000ab 	andeq	r0, r0, fp, lsr #1
     664:	07002302 	streq	r2, [r0, -r2, lsl #6]
     668:	00485243 	subeq	r5, r8, r3, asr #4
     66c:	ab0d3c03 	blge	34f680 <_Min_Stack_Size+0x34f280>
     670:	02000000 	andeq	r0, r0, #0
     674:	49070423 	stmdbmi	r7, {r0, r1, r5, sl}
     678:	03005244 	movweq	r5, #580	; 0x244
     67c:	00ab0d3d 	adceq	r0, fp, sp, lsr sp
     680:	23020000 	movwcs	r0, #8192	; 0x2000
     684:	444f0708 	strbmi	r0, [pc], #-1800	; 68c <_Min_Stack_Size+0x28c>
     688:	3e030052 	mcrcc	0, 0, r0, cr3, cr2, {2}
     68c:	0000ab0d 	andeq	sl, r0, sp, lsl #22
     690:	0c230200 	sfmeq	f0, 4, [r3], #-0
     694:	004aa108 	subeq	sl, sl, r8, lsl #2
     698:	0d3f0300 	ldceq	3, cr0, [pc, #-0]	; 6a0 <_Min_Stack_Size+0x2a0>
     69c:	000000ab 	andeq	r0, r0, fp, lsr #1
     6a0:	07102302 	ldreq	r2, [r0, -r2, lsl #6]
     6a4:	00525242 	subseq	r5, r2, r2, asr #4
     6a8:	ab0d4003 	blge	3506bc <_Min_Stack_Size+0x3502bc>
     6ac:	02000000 	andeq	r0, r0, #0
     6b0:	c9081423 	stmdbgt	r8, {r0, r1, r5, sl, ip}
     6b4:	03000025 	movweq	r0, #37	; 0x25
     6b8:	00ab0d41 	adceq	r0, fp, r1, asr #26
     6bc:	23020000 	movwcs	r0, #8192	; 0x2000
     6c0:	59030018 	stmdbpl	r3, {r3, r4}
     6c4:	03000005 	movweq	r0, #5
     6c8:	00c50242 	sbceq	r0, r5, r2, asr #4
     6cc:	30060000 	andcc	r0, r6, r0
     6d0:	01095203 	tsteq	r9, r3, lsl #4
     6d4:	07000002 	streq	r0, [r0, -r2]
     6d8:	03005243 	movweq	r5, #579	; 0x243
     6dc:	00ab0d53 	adceq	r0, fp, r3, asr sp
     6e0:	23020000 	movwcs	r0, #8192	; 0x2000
     6e4:	57690800 	strbpl	r0, [r9, -r0, lsl #16]!
     6e8:	54030000 	strpl	r0, [r3], #-0
     6ec:	0000ab0d 	andeq	sl, r0, sp, lsl #22
     6f0:	04230200 	strteq	r0, [r3], #-512	; 0xfffffe00
     6f4:	52494307 	subpl	r4, r9, #469762048	; 0x1c000000
     6f8:	0d550300 	ldcleq	3, cr0, [r5, #-0]
     6fc:	000000ab 	andeq	r0, r0, fp, lsr #1
     700:	08082302 	stmdaeq	r8, {r1, r8, r9, sp}
     704:	00005690 	muleq	r0, r0, r6
     708:	ab0d5603 	blge	355f1c <_Min_Stack_Size+0x355b1c>
     70c:	02000000 	andeq	r0, r0, #0
     710:	d6080c23 	strle	r0, [r8], -r3, lsr #24
     714:	03000056 	movweq	r0, #86	; 0x56
     718:	00ab0d57 	adceq	r0, fp, r7, asr sp
     71c:	23020000 	movwcs	r0, #8192	; 0x2000
     720:	56990810 			; <UNDEFINED> instruction: 0x56990810
     724:	58030000 	stmdapl	r3, {}	; <UNPREDICTABLE>
     728:	0000ab0d 	andeq	sl, r0, sp, lsl #22
     72c:	14230200 	strtne	r0, [r3], #-512	; 0xfffffe00
     730:	00578e08 	subseq	r8, r7, r8, lsl #28
     734:	0d590300 	ldcleq	3, cr0, [r9, #-0]
     738:	000000ab 	andeq	r0, r0, fp, lsr #1
     73c:	08182302 	ldmdaeq	r8, {r1, r8, r9, sp}
     740:	00005688 	andeq	r5, r0, r8, lsl #13
     744:	ab0d5a03 	blge	356f58 <_Min_Stack_Size+0x356b58>
     748:	02000000 	andeq	r0, r0, #0
     74c:	70081c23 	andvc	r1, r8, r3, lsr #24
     750:	03000056 	movweq	r0, #86	; 0x56
     754:	00ab0d5b 	adceq	r0, fp, fp, asr sp
     758:	23020000 	movwcs	r0, #8192	; 0x2000
     75c:	53430720 	movtpl	r0, #14112	; 0x3720
     760:	5c030052 	stcpl	0, cr0, [r3], {82}	; 0x52
     764:	0000ab0d 	andeq	sl, r0, sp, lsl #22
     768:	24230200 	strtcs	r0, [r3], #-512	; 0xfffffe00
     76c:	0056cf08 	subseq	ip, r6, r8, lsl #30
     770:	0d5d0300 	ldcleq	3, cr0, [sp, #-0]
     774:	000000ab 	andeq	r0, r0, fp, lsr #1
     778:	08282302 	stmdaeq	r8!, {r1, r8, r9, sp}
     77c:	00005736 	andeq	r5, r0, r6, lsr r7
     780:	ab0d5e03 	blge	357f94 <_Min_Stack_Size+0x357b94>
     784:	02000000 	andeq	r0, r0, #0
     788:	03002c23 	movweq	r2, #3107	; 0xc23
     78c:	000056c7 	andeq	r5, r0, r7, asr #13
     790:	44025f03 	strmi	r5, [r2], #-3843	; 0xfffff0fd
     794:	09000001 	stmdbeq	r0, {r0}
     798:	00470107 	subeq	r0, r7, r7, lsl #2
     79c:	0c040000 	stceq	0, cr0, [r4], {-0}
     7a0:	00024c0d 	andeq	r4, r2, sp, lsl #24
     7a4:	30ff0a00 	rscscc	r0, pc, r0, lsl #20
     7a8:	0a000000 	beq	7b0 <_Min_Stack_Size+0x3b0>
     7ac:	000017ee 	andeq	r1, r0, lr, ror #15
     7b0:	354b0a01 	strbcc	r0, [fp, #-2561]	; 0xfffff5ff
     7b4:	0a020000 	beq	807bc <_Min_Stack_Size+0x803bc>
     7b8:	000034d1 	ldrdeq	r3, [r0], -r1
     7bc:	3ac30a03 	bcc	ff0c2fd0 <_estack+0xdf0c07d0>
     7c0:	0a040000 	beq	1007c8 <_Min_Stack_Size+0x1003c8>
     7c4:	0000370a 	andeq	r3, r0, sl, lsl #14
     7c8:	02210a05 	eoreq	r0, r1, #20480	; 0x5000
     7cc:	0a060000 	beq	1807d4 <_Min_Stack_Size+0x1803d4>
     7d0:	00004a94 	muleq	r0, r4, sl
     7d4:	e1030007 	tst	r3, r7
     7d8:	04000002 	streq	r0, [r0], #-2
     7dc:	020d020e 	andeq	r0, sp, #-536870912	; 0xe0000000
     7e0:	4c040000 	stcmi	0, cr0, [r4], {-0}
     7e4:	09000002 	stmdbeq	r0, {r1}
     7e8:	00470107 	subeq	r0, r7, r7, lsl #2
     7ec:	10040000 	andne	r0, r4, r0
     7f0:	00027e0d 	andeq	r7, r2, sp, lsl #28
     7f4:	025c0a00 	subseq	r0, ip, #0, 20
     7f8:	0a010000 	beq	40800 <_Min_Stack_Size+0x40400>
     7fc:	00004c9d 	muleq	r0, sp, ip
     800:	0d240a02 	vstmdbeq	r4!, {s0-s1}
     804:	00030000 	andeq	r0, r3, r0
     808:	004e6f03 	subeq	r6, lr, r3, lsl #30
     80c:	02120400 	andseq	r0, r2, #0, 8
     810:	0000025d 	andeq	r0, r0, sp, asr r2
     814:	00027e04 	andeq	r7, r2, r4, lsl #28
     818:	01070900 	tsteq	r7, r0, lsl #18
     81c:	00000047 	andeq	r0, r0, r7, asr #32
     820:	aa0d1304 	bge	345438 <_Min_Stack_Size+0x345038>
     824:	0a000002 	beq	834 <_Min_Stack_Size+0x434>
     828:	000056bd 			; <UNDEFINED> instruction: 0x000056bd
     82c:	573c0a00 	ldrpl	r0, [ip, -r0, lsl #20]!
     830:	00010000 	andeq	r0, r1, r0
     834:	47010709 	strmi	r0, [r1, -r9, lsl #14]
     838:	04000000 	streq	r0, [r0], #-0
     83c:	02c50d1a 	sbceq	r0, r5, #1664	; 0x680
     840:	7d0a0000 	stcvc	0, cr0, [sl, #-0]
     844:	00000056 	andeq	r0, r0, r6, asr r0
     848:	0057730a 	subseq	r7, r7, sl, lsl #6
     84c:	03000100 	movweq	r0, #256	; 0x100
     850:	000057b8 			; <UNDEFINED> instruction: 0x000057b8
     854:	aa021c04 	bge	8786c <_Min_Stack_Size+0x8746c>
     858:	06000002 	streq	r0, [r0], -r2
     85c:	091d0404 	ldmdbeq	sp, {r2, sl}
     860:	00000308 	andeq	r0, r0, r8, lsl #6
     864:	00408508 	subeq	r8, r0, r8, lsl #10
     868:	0f1e0400 	svceq	0x001e0400
     86c:	0000009f 	muleq	r0, pc, r0	; <UNPREDICTABLE>
     870:	08002302 	stmdaeq	r0, {r1, r8, r9, sp}
     874:	00000b41 	andeq	r0, r0, r1, asr #22
     878:	58131f04 	ldmdapl	r3, {r2, r8, r9, sl, fp, ip}
     87c:	02000002 	andeq	r0, r0, #2
     880:	48080223 	stmdami	r8, {r0, r1, r5, r9}
     884:	0400001a 	streq	r0, [r0], #-26	; 0xffffffe6
     888:	028a1320 	addeq	r1, sl, #32, 6	; 0x80000000
     88c:	23020000 	movwcs	r0, #8192	; 0x2000
     890:	47030003 	strmi	r0, [r3, -r3]
     894:	0400001d 	streq	r0, [r0], #-29	; 0xffffffe3
     898:	02d10222 	sbcseq	r0, r1, #536870914	; 0x20000002
     89c:	010b0000 	mrseq	r0, (UNDEF: 11)
     8a0:	000057a6 	andeq	r5, r0, r6, lsr #15
     8a4:	01067601 	tsteq	r6, r1, lsl #12
	...
     8b0:	0000023c 	andeq	r0, r0, ip, lsr r2
     8b4:	00034e01 	andeq	r4, r3, r1, lsl #28
     8b8:	57470c00 	strbpl	r0, [r7, -r0, lsl #24]
     8bc:	76010000 	strvc	r0, [r1], -r0
     8c0:	00034e23 	andeq	r4, r3, r3, lsr #28
     8c4:	74910200 	ldrvc	r0, [r1], #512	; 0x200
     8c8:	0057ce0c 	subseq	ip, r7, ip, lsl #28
     8cc:	35760100 	ldrbcc	r0, [r6, #-256]!	; 0xffffff00
     8d0:	000002c5 	andeq	r0, r0, r5, asr #5
     8d4:	00739102 	rsbseq	r9, r3, r2, lsl #2
     8d8:	0138040d 	teqeq	r8, sp, lsl #8
     8dc:	010e0000 	mrseq	r0, (UNDEF: 14)
     8e0:	0000571e 	andeq	r5, r0, lr, lsl r7
     8e4:	010a5f01 	tsteq	sl, r1, lsl #30
     8e8:	0000003b 	andeq	r0, r0, fp, lsr r0
	...
     8f4:	00000298 	muleq	r0, r8, r2
     8f8:	0003a101 	andeq	sl, r3, r1, lsl #2
     8fc:	57470c00 	strbpl	r0, [r7, -r0, lsl #24]
     900:	5f010000 	svcpl	0x00010000
     904:	00034e23 	andeq	r4, r3, r3, lsr #28
     908:	6c910200 	lfmvs	f0, 4, [r1], {0}
     90c:	0056fe0c 	subseq	pc, r6, ip, lsl #28
     910:	345f0100 	ldrbcc	r0, [pc], #-256	; 918 <_Min_Stack_Size+0x518>
     914:	0000009f 	muleq	r0, pc, r0	; <UNPREDICTABLE>
     918:	0f6a9102 	svceq	0x006a9102
     91c:	00005709 	andeq	r5, r0, r9, lsl #14
     920:	3b0b6001 	blcc	2d892c <_Min_Stack_Size+0x2d852c>
     924:	02000000 	andeq	r0, r0, #0
     928:	0b007791 	bleq	1e774 <_Min_Stack_Size+0x1e374>
     92c:	00579601 	subseq	r9, r7, r1, lsl #12
     930:	065a0100 	ldrbeq	r0, [sl], -r0, lsl #2
     934:	00000001 	andeq	r0, r0, r1
     938:	00000000 	andeq	r0, r0, r0
     93c:	0002f400 	andeq	pc, r2, r0, lsl #8
     940:	03db0100 	bicseq	r0, fp, #0, 2
     944:	470c0000 	strmi	r0, [ip, -r0]
     948:	01000057 	qaddeq	r0, r7, r0
     94c:	034e215a 	movteq	r2, #57690	; 0xe15a
     950:	91020000 	mrsls	r0, (UNDEF: 2)
     954:	56fe0c74 	uxtahpl	r0, lr, r4, ror #24
     958:	5a010000 	bpl	40960 <_Min_Stack_Size+0x40560>
     95c:	00009f32 	andeq	r9, r0, r2, lsr pc
     960:	72910200 	addsvc	r0, r1, #0, 4
     964:	c4010e00 	strgt	r0, [r1], #-3584	; 0xfffff200
     968:	01000057 	qaddeq	r0, r7, r0
     96c:	5a010b57 	bpl	436d0 <_Min_Stack_Size+0x432d0>
	...
     978:	50000000 	andpl	r0, r0, r0
     97c:	01000003 	tsteq	r0, r3
     980:	0000040a 	andeq	r0, r0, sl, lsl #8
     984:	0057470c 	subseq	r4, r7, ip, lsl #14
     988:	25570100 	ldrbcs	r0, [r7, #-256]	; 0xffffff00
     98c:	0000034e 	andeq	r0, r0, lr, asr #6
     990:	00749102 	rsbseq	r9, r4, r2, lsl #2
     994:	56f0010e 	ldrbtpl	r0, [r0], lr, lsl #2
     998:	52010000 	andpl	r0, r1, #0
     99c:	005a010b 	subseq	r0, sl, fp, lsl #2
	...
     9a8:	03ac0000 			; <UNDEFINED> instruction: 0x03ac0000
     9ac:	48010000 	stmdami	r1, {}	; <UNPREDICTABLE>
     9b0:	0c000004 	stceq	0, cr0, [r0], {4}
     9b4:	00005747 	andeq	r5, r0, r7, asr #14
     9b8:	4e245201 	cdpmi	2, 2, cr5, cr4, cr1, {0}
     9bc:	02000003 	andeq	r0, r0, #3
     9c0:	fe0c7491 	mcr2	4, 0, r7, cr12, cr1, {4}
     9c4:	01000056 	qaddeq	r0, r6, r0
     9c8:	009f3552 	addseq	r3, pc, r2, asr r5	; <UNPREDICTABLE>
     9cc:	91020000 	mrsls	r0, (UNDEF: 2)
     9d0:	010b0072 	tsteq	fp, r2, ror r0
     9d4:	000056a7 	andeq	r5, r0, r7, lsr #13
     9d8:	01064d01 	tsteq	r6, r1, lsl #26
	...
     9e4:	00000408 	andeq	r0, r0, r8, lsl #8
     9e8:	00048201 	andeq	r8, r4, r1, lsl #4
     9ec:	56b70c00 	ldrtpl	r0, [r7], r0, lsl #24
     9f0:	4d010000 	stcmi	0, cr0, [r1, #-0]
     9f4:	00034e21 	andeq	r4, r3, r1, lsr #28
     9f8:	74910200 	ldrvc	r0, [r1], #512	; 0x200
     9fc:	0057630c 	subseq	r6, r7, ip, lsl #6
     a00:	324d0100 	subcc	r0, sp, #0, 2
     a04:	0000009f 	muleq	r0, pc, r0	; <UNPREDICTABLE>
     a08:	00729102 	rsbseq	r9, r2, r2, lsl #2
     a0c:	577f010b 	ldrbpl	r0, [pc, -fp, lsl #2]!
     a10:	41010000 	mrsmi	r0, (UNDEF: 1)
     a14:	00000106 	andeq	r0, r0, r6, lsl #2
     a18:	00000000 	andeq	r0, r0, r0
     a1c:	04640000 	strbteq	r0, [r4], #-0
     a20:	cb010000 	blgt	40a28 <_Min_Stack_Size+0x40628>
     a24:	0c000004 	stceq	0, cr0, [r0], {4}
     a28:	00005747 	andeq	r5, r0, r7, asr #14
     a2c:	4e204101 	sufmis	f4, f0, f1
     a30:	02000003 	andeq	r0, r0, #3
     a34:	fe0c7491 	mcr2	4, 0, r7, cr12, cr1, {4}
     a38:	01000056 	qaddeq	r0, r6, r0
     a3c:	009f3141 	addseq	r3, pc, r1, asr #2
     a40:	91020000 	mrsls	r0, (UNDEF: 2)
     a44:	57630c72 			; <UNDEFINED> instruction: 0x57630c72
     a48:	41010000 	mrsmi	r0, (UNDEF: 1)
     a4c:	00009346 	andeq	r9, r0, r6, asr #6
     a50:	71910200 	orrsvc	r0, r1, r0, lsl #4
     a54:	df010b00 	svcle	0x00010b00
     a58:	01000056 	qaddeq	r0, r6, r0
     a5c:	00010628 	andeq	r0, r1, r8, lsr #12
     a60:	00000000 	andeq	r0, r0, r0
     a64:	c0000000 	andgt	r0, r0, r0
     a68:	01000004 	tsteq	r0, r4
     a6c:	000004f6 	strdeq	r0, [r0], -r6
     a70:	0057470c 	subseq	r4, r7, ip, lsl #14
     a74:	22280100 	eorcs	r0, r8, #0, 2
     a78:	0000034e 	andeq	r0, r0, lr, asr #6
     a7c:	00749102 	rsbseq	r9, r4, r2, lsl #2
     a80:	0ec00110 	mcreq	1, 6, r0, cr0, cr0, {0}
     a84:	0e010000 	cdpeq	0, 0, cr0, cr1, cr0, {0}
     a88:	07080106 	streq	r0, [r8, -r6, lsl #2]
     a8c:	08560800 	ldmdaeq	r6, {fp}^
     a90:	051c0800 	ldreq	r0, [ip, #-2048]	; 0xfffff800
     a94:	3f010000 	svccc	0x00010000
     a98:	0c000005 	stceq	0, cr0, [r0], {5}
     a9c:	00005747 	andeq	r5, r0, r7, asr #14
     aa0:	4e200e01 	cdpmi	14, 2, cr0, cr0, cr1, {0}
     aa4:	02000003 	andeq	r0, r0, #3
     aa8:	6e0c6491 	mcrvs	4, 0, r6, cr12, cr1, {4}
     aac:	01000057 	qaddeq	r0, r7, r0
     ab0:	053f320e 	ldreq	r3, [pc, #-526]!	; 8aa <_Min_Stack_Size+0x4aa>
     ab4:	91020000 	mrsls	r0, (UNDEF: 2)
     ab8:	56a00f60 	strtpl	r0, [r0], r0, ror #30
     abc:	0f010000 	svceq	0x00010000
     ac0:	0005450e 	andeq	r4, r5, lr, lsl #10
     ac4:	6c910200 	lfmvs	f0, 4, [r1], {0}
     ac8:	08040d00 	stmdaeq	r4, {r8, sl, fp}
     acc:	0d000003 	stceq	0, cr0, [r0, #-12]
     ad0:	0000ab04 	andeq	sl, r0, r4, lsl #22
     ad4:	0e011100 	adfeqs	f1, f1, f0
     ad8:	01000057 	qaddeq	r0, r7, r0
     adc:	5a010b0a 	bpl	4370c <_Min_Stack_Size+0x4330c>
     ae0:	d8000000 	stmdale	r0, {}	; <UNPREDICTABLE>
     ae4:	08080006 	stmdaeq	r8, {r1, r2}
     ae8:	6c080007 	stcvs	0, cr0, [r8], {7}
     aec:	01000005 	tsteq	r0, r5
     af0:	6e697012 	mcrvs	0, 3, r7, cr9, cr2, {0}
     af4:	250a0100 	strcs	r0, [sl, #-256]	; 0xffffff00
     af8:	0000005a 	andeq	r0, r0, sl, asr r0
     afc:	0f6e9102 	svceq	0x006e9102
     b00:	00005675 	andeq	r5, r0, r5, ror r6
     b04:	5a0c0b01 	bpl	303710 <_Min_Stack_Size+0x303310>
     b08:	02000000 	andeq	r0, r0, #0
     b0c:	00007691 	muleq	r0, r1, r6
     b10:	000005c4 	andeq	r0, r0, r4, asr #11
     b14:	02dd0002 	sbcseq	r0, sp, #2
     b18:	01040000 	mrseq	r0, (UNDEF: 4)
     b1c:	00000c21 	andeq	r0, r0, r1, lsr #24
     b20:	0059340c 	subseq	r3, r9, ip, lsl #8
     b24:	00113b00 	andseq	r3, r1, r0, lsl #22
     b28:	0000b000 	andeq	fp, r0, r0
	...
     b34:	000ed000 	andeq	sp, lr, r0
     b38:	00046300 	andeq	r6, r4, r0, lsl #6
     b3c:	02010200 	andeq	r0, r1, #0, 4
     b40:	000015a4 	andeq	r1, r0, r4, lsr #11
     b44:	47060102 	strmi	r0, [r6, -r2, lsl #2]
     b48:	02000004 	andeq	r0, r0, #4
     b4c:	32f90801 	rscscc	r0, r9, #65536	; 0x10000
     b50:	02020000 	andeq	r0, r2, #0
     b54:	0004f605 	andeq	pc, r4, r5, lsl #12
     b58:	07420300 	strbeq	r0, [r2, -r0, lsl #6]
     b5c:	1d020000 	stcne	0, cr0, [r2, #-0]
     b60:	00005522 	andeq	r5, r0, r2, lsr #10
     b64:	07020200 	streq	r0, [r2, -r0, lsl #4]
     b68:	00003e42 	andeq	r3, r0, r2, asr #28
     b6c:	69050404 	stmdbvs	r5, {r2, sl}
     b70:	0200746e 	andeq	r7, r0, #1845493760	; 0x6e000000
     b74:	14010704 	strne	r0, [r1], #-1796	; 0xfffff8fc
     b78:	63050000 	movwvs	r0, #20480	; 0x5000
     b7c:	02000000 	andeq	r0, r0, #0
     b80:	2c080508 	cfstr32cs	mvfx0, [r8], {8}
     b84:	08020000 	stmdaeq	r2, {}	; <UNPREDICTABLE>
     b88:	00462407 	subeq	r2, r6, r7, lsl #8
     b8c:	180e0300 	stmdane	lr, {r8, r9}
     b90:	2e020000 	cdpcs	0, 0, cr0, cr2, cr0, {0}
     b94:	00006a24 	andeq	r6, r0, r4, lsr #20
     b98:	58280300 	stmdapl	r8!, {r8, r9}
     b9c:	2b030000 	blcs	c0ba4 <_Min_Stack_Size+0xc07a4>
     ba0:	00003b18 	andeq	r3, r0, r8, lsl fp
     ba4:	05040200 	streq	r0, [r4, #-512]	; 0xfffffe00
     ba8:	0000407c 	andeq	r4, r0, ip, ror r0
     bac:	005ab503 	subseq	fp, sl, r3, lsl #10
     bb0:	194f0300 	stmdbne	pc, {r8, r9}^	; <UNPREDICTABLE>
     bb4:	000000a8 	andeq	r0, r0, r8, lsr #1
     bb8:	89070402 	stmdbhi	r7, {r1, sl}
     bbc:	0300000f 	movweq	r0, #15
     bc0:	0000582a 	andeq	r5, r0, sl, lsr #16
     bc4:	89131804 	ldmdbhi	r3, {r2, fp, ip}
     bc8:	03000000 	movweq	r0, #0
     bcc:	00005ab7 			; <UNDEFINED> instruction: 0x00005ab7
     bd0:	9c143004 	ldcls	0, cr3, [r4], {4}
     bd4:	06000000 	streq	r0, [r0], -r0
     bd8:	093a051c 	ldmdbeq	sl!, {r2, r3, r4, r8, sl}
     bdc:	0000013a 	andeq	r0, r0, sl, lsr r1
     be0:	4c524307 	mrrcmi	3, 0, r4, r2, cr7
     be4:	0d3b0500 	cfldr32eq	mvfx0, [fp, #-0]
     be8:	0000007d 	andeq	r0, r0, sp, ror r0
     bec:	07002302 	streq	r2, [r0, -r2, lsl #6]
     bf0:	00485243 	subeq	r5, r8, r3, asr #4
     bf4:	7d0d3c05 	stcvc	12, cr3, [sp, #-20]	; 0xffffffec
     bf8:	02000000 	andeq	r0, r0, #0
     bfc:	49070423 	stmdbmi	r7, {r0, r1, r5, sl}
     c00:	05005244 	streq	r5, [r0, #-580]	; 0xfffffdbc
     c04:	007d0d3d 	rsbseq	r0, sp, sp, lsr sp
     c08:	23020000 	movwcs	r0, #8192	; 0x2000
     c0c:	444f0708 	strbmi	r0, [pc], #-1800	; c14 <_Min_Stack_Size+0x814>
     c10:	3e050052 	mcrcc	0, 0, r0, cr5, cr2, {2}
     c14:	00007d0d 	andeq	r7, r0, sp, lsl #26
     c18:	0c230200 	sfmeq	f0, 4, [r3], #-0
     c1c:	004aa108 	subeq	sl, sl, r8, lsl #2
     c20:	0d3f0500 	cfldr32eq	mvfx0, [pc, #-0]	; c28 <_Min_Stack_Size+0x828>
     c24:	0000007d 	andeq	r0, r0, sp, ror r0
     c28:	07102302 	ldreq	r2, [r0, -r2, lsl #6]
     c2c:	00525242 	subseq	r5, r2, r2, asr #4
     c30:	7d0d4005 	stcvc	0, cr4, [sp, #-20]	; 0xffffffec
     c34:	02000000 	andeq	r0, r0, #0
     c38:	c9081423 	stmdbgt	r8, {r0, r1, r5, sl, ip}
     c3c:	05000025 	streq	r0, [r0, #-37]	; 0xffffffdb
     c40:	007d0d41 	rsbseq	r0, sp, r1, asr #26
     c44:	23020000 	movwcs	r0, #8192	; 0x2000
     c48:	59030018 	stmdbpl	r3, {r3, r4}
     c4c:	05000005 	streq	r0, [r0, #-5]
     c50:	00c70242 	sbceq	r0, r7, r2, asr #4
     c54:	30060000 	andcc	r0, r6, r0
     c58:	03095205 	movweq	r5, #37381	; 0x9205
     c5c:	07000002 	streq	r0, [r0, -r2]
     c60:	05005243 	streq	r5, [r0, #-579]	; 0xfffffdbd
     c64:	007d0d53 	rsbseq	r0, sp, r3, asr sp
     c68:	23020000 	movwcs	r0, #8192	; 0x2000
     c6c:	57690800 	strbpl	r0, [r9, -r0, lsl #16]!
     c70:	54050000 	strpl	r0, [r5], #-0
     c74:	00007d0d 	andeq	r7, r0, sp, lsl #26
     c78:	04230200 	strteq	r0, [r3], #-512	; 0xfffffe00
     c7c:	52494307 	subpl	r4, r9, #469762048	; 0x1c000000
     c80:	0d550500 	cfldr64eq	mvdx0, [r5, #-0]
     c84:	0000007d 	andeq	r0, r0, sp, ror r0
     c88:	08082302 	stmdaeq	r8, {r1, r8, r9, sp}
     c8c:	00005690 	muleq	r0, r0, r6
     c90:	7d0d5605 	stcvc	6, cr5, [sp, #-20]	; 0xffffffec
     c94:	02000000 	andeq	r0, r0, #0
     c98:	d6080c23 	strle	r0, [r8], -r3, lsr #24
     c9c:	05000056 	streq	r0, [r0, #-86]	; 0xffffffaa
     ca0:	007d0d57 	rsbseq	r0, sp, r7, asr sp
     ca4:	23020000 	movwcs	r0, #8192	; 0x2000
     ca8:	56990810 			; <UNDEFINED> instruction: 0x56990810
     cac:	58050000 	stmdapl	r5, {}	; <UNPREDICTABLE>
     cb0:	00007d0d 	andeq	r7, r0, sp, lsl #26
     cb4:	14230200 	strtne	r0, [r3], #-512	; 0xfffffe00
     cb8:	00578e08 	subseq	r8, r7, r8, lsl #28
     cbc:	0d590500 	cfldr64eq	mvdx0, [r9, #-0]
     cc0:	0000007d 	andeq	r0, r0, sp, ror r0
     cc4:	08182302 	ldmdaeq	r8, {r1, r8, r9, sp}
     cc8:	00005688 	andeq	r5, r0, r8, lsl #13
     ccc:	7d0d5a05 	vstrvc	s10, [sp, #-20]	; 0xffffffec
     cd0:	02000000 	andeq	r0, r0, #0
     cd4:	70081c23 	andvc	r1, r8, r3, lsr #24
     cd8:	05000056 	streq	r0, [r0, #-86]	; 0xffffffaa
     cdc:	007d0d5b 	rsbseq	r0, sp, fp, asr sp
     ce0:	23020000 	movwcs	r0, #8192	; 0x2000
     ce4:	53430720 	movtpl	r0, #14112	; 0x3720
     ce8:	5c050052 	stcpl	0, cr0, [r5], {82}	; 0x52
     cec:	00007d0d 	andeq	r7, r0, sp, lsl #26
     cf0:	24230200 	strtcs	r0, [r3], #-512	; 0xfffffe00
     cf4:	0056cf08 	subseq	ip, r6, r8, lsl #30
     cf8:	0d5d0500 	cfldr64eq	mvdx0, [sp, #-0]
     cfc:	0000007d 	andeq	r0, r0, sp, ror r0
     d00:	08282302 	stmdaeq	r8!, {r1, r8, r9, sp}
     d04:	00005736 	andeq	r5, r0, r6, lsr r7
     d08:	7d0d5e05 	stcvc	14, cr5, [sp, #-20]	; 0xffffffec
     d0c:	02000000 	andeq	r0, r0, #0
     d10:	03002c23 	movweq	r2, #3107	; 0xc23
     d14:	000056c7 	andeq	r5, r0, r7, asr #13
     d18:	46025f05 	strmi	r5, [r2], -r5, lsl #30
     d1c:	09000001 	stmdbeq	r0, {r0}
     d20:	003b0107 	eorseq	r0, fp, r7, lsl #2
     d24:	17060000 	strne	r0, [r6, -r0]
     d28:	00027e0d 	andeq	r7, r2, sp, lsl #28
     d2c:	5a630a00 	bpl	18c3534 <_Min_Stack_Size+0x18c3134>
     d30:	0a000000 	beq	d38 <_Min_Stack_Size+0x938>
     d34:	00005bf9 	strdeq	r5, [r0], -r9
     d38:	5aaf0a01 	bpl	febc3544 <_estack+0xdebc0d44>
     d3c:	0a020000 	beq	80d44 <_Min_Stack_Size+0x80944>
     d40:	00005acd 	andeq	r5, r0, sp, asr #21
     d44:	586b0a03 	stmdapl	fp!, {r0, r1, r9, fp}^
     d48:	0a040000 	beq	100d50 <_Min_Stack_Size+0x100950>
     d4c:	000058f7 	strdeq	r5, [r0], -r7
     d50:	5b230a05 	blpl	8c356c <_Min_Stack_Size+0x8c316c>
     d54:	0a060000 	beq	180d5c <_Min_Stack_Size+0x18095c>
     d58:	00005900 	andeq	r5, r0, r0, lsl #18
     d5c:	58740a07 	ldmdapl	r4!, {r0, r1, r2, r9, fp}^
     d60:	0a080000 	beq	200d68 <_Min_Stack_Size+0x200968>
     d64:	00005854 	andeq	r5, r0, r4, asr r8
     d68:	58350a09 	ldmdapl	r5!, {r0, r3, r9, fp}
     d6c:	0a0a0000 	beq	280d74 <_Min_Stack_Size+0x280974>
     d70:	00005ac3 	andeq	r5, r0, r3, asr #21
     d74:	59090a0b 	stmdbpl	r9, {r0, r1, r3, r9, fp}
     d78:	0a0c0000 	beq	300d80 <_Min_Stack_Size+0x300980>
     d7c:	00005c23 	andeq	r5, r0, r3, lsr #24
     d80:	5c2a0a0d 			; <UNDEFINED> instruction: 0x5c2a0a0d
     d84:	0a0e0000 	beq	380d8c <_Min_Stack_Size+0x38098c>
     d88:	00005d45 	andeq	r5, r0, r5, asr #26
     d8c:	0709000f 	streq	r0, [r9, -pc]
     d90:	00003b01 	andeq	r3, r0, r1, lsl #22
     d94:	0d150700 	ldceq	7, cr0, [r5, #-0]
     d98:	0000029f 	muleq	r0, pc, r2	; <UNPREDICTABLE>
     d9c:	00090f0a 	andeq	r0, r9, sl, lsl #30
     da0:	a70a0000 	strge	r0, [sl, -r0]
     da4:	01000046 	tsteq	r0, r6, asr #32
     da8:	00469f0a 	subeq	r9, r6, sl, lsl #30
     dac:	03000200 	movweq	r0, #512	; 0x200
     db0:	000018fc 	strdeq	r1, [r0], -ip
     db4:	7e021707 	cdpvc	7, 0, cr1, cr2, cr7, {0}
     db8:	09000002 	stmdbeq	r0, {r1}
     dbc:	003b0107 	eorseq	r0, fp, r7, lsl #2
     dc0:	18070000 	stmdane	r7, {}	; <UNPREDICTABLE>
     dc4:	0002c60d 	andeq	ip, r2, sp, lsl #12
     dc8:	37df0a00 	ldrbcc	r0, [pc, r0, lsl #20]
     dcc:	0a000000 	beq	dd4 <_Min_Stack_Size+0x9d4>
     dd0:	000014ac 	andeq	r1, r0, ip, lsr #9
     dd4:	96030001 	strls	r0, [r3], -r1
     dd8:	07000018 	smladeq	r0, r8, r0, r0
     ddc:	02ab021a 	adceq	r0, fp, #-1610612735	; 0xa0000001
     de0:	0c060000 	stceq	0, cr0, [r6], {-0}
     de4:	18091c07 	stmdane	r9, {r0, r1, r2, sl, fp, ip}
     de8:	08000003 	stmdaeq	r0, {r0, r1}
     dec:	00002bcf 	andeq	r2, r0, pc, asr #23
     df0:	490c1d07 	stmdbmi	ip, {r0, r1, r2, r8, sl, fp, ip}
     df4:	02000000 	andeq	r0, r0, #0
     df8:	1c080023 	stcne	0, cr0, [r8], {35}	; 0x23
     dfc:	07000031 	smladxeq	r0, r1, r0, r0
     e00:	03180d1e 	tsteq	r8, #1920	; 0x780
     e04:	23020000 	movwcs	r0, #8192	; 0x2000
     e08:	49500704 	ldmdbmi	r0, {r2, r8, r9, sl}^
     e0c:	1f07004e 	svcne	0x0007004e
     e10:	0000490c 	andeq	r4, r0, ip, lsl #18
     e14:	08230200 	stmdaeq	r3!, {r9}
     e18:	00235108 	eoreq	r5, r3, r8, lsl #2
     e1c:	0c200700 	stceq	7, cr0, [r0], #-0
     e20:	00000049 	andeq	r0, r0, r9, asr #32
     e24:	000a2302 	andeq	r2, sl, r2, lsl #6
     e28:	013a040b 	teqeq	sl, fp, lsl #8
     e2c:	3f030000 	svccc	0x00030000
     e30:	07000005 	streq	r0, [r0, -r5]
     e34:	02d20221 	sbcseq	r0, r2, #268435458	; 0x10000002
     e38:	14060000 	strne	r0, [r6], #-0
     e3c:	70092207 	andvc	r2, r9, r7, lsl #4
     e40:	08000003 	stmdaeq	r0, {r0, r1}
     e44:	00002c45 	andeq	r2, r0, r5, asr #24
     e48:	1e102307 	cdpne	3, 1, cr2, cr0, cr7, {0}
     e4c:	02000003 	andeq	r0, r0, #3
     e50:	3b080023 	blcc	200ee4 <_Min_Stack_Size+0x200ae4>
     e54:	07000037 	smladxeq	r0, r7, r0, r0
     e58:	029f0a24 	addseq	r0, pc, #36, 20	; 0x24000
     e5c:	23020000 	movwcs	r0, #8192	; 0x2000
     e60:	2b08080c 	blcs	202e98 <_Min_Stack_Size+0x202a98>
     e64:	25070000 	strcs	r0, [r7, #-0]
     e68:	0002c60d 	andeq	ip, r2, sp, lsl #12
     e6c:	0d230200 	sfmeq	f0, 4, [r3, #-0]
     e70:	0013e108 	andseq	lr, r3, r8, lsl #2
     e74:	08260700 	stmdaeq	r6!, {r8, r9, sl}
     e78:	00000372 	andeq	r0, r0, r2, ror r3
     e7c:	00102302 	andseq	r2, r0, r2, lsl #6
     e80:	040b010c 	streq	r0, [fp], #-268	; 0xfffffef4
     e84:	00000370 	andeq	r0, r0, r0, ror r3
     e88:	003ab503 	eorseq	fp, sl, r3, lsl #10
     e8c:	02270700 	eoreq	r0, r7, #0, 14
     e90:	0000032a 	andeq	r0, r0, sl, lsr #6
     e94:	005d1e0d 	subseq	r1, sp, sp, lsl #28
     e98:	0f1c0100 	svceq	0x001c0100
     e9c:	0000003b 	andeq	r0, r0, fp, lsr r0
     ea0:	58030501 	stmdapl	r3, {r0, r8, sl}
     ea4:	0d200000 	stceq	0, cr0, [r0, #-0]
     ea8:	00005b03 	andeq	r5, r0, r3, lsl #22
     eac:	3b0f1d01 	blcc	3c82b8 <_Min_Stack_Size+0x3c7eb8>
     eb0:	01000000 	mrseq	r0, (UNDEF: 0)
     eb4:	00000305 	andeq	r0, r0, r5, lsl #6
     eb8:	07090000 	streq	r0, [r9, -r0]
     ebc:	00003b01 	andeq	r3, r0, r1, lsl #22
     ec0:	0d1e0100 	ldfeqs	f0, [lr, #-0]
     ec4:	000003c5 	andeq	r0, r0, r5, asr #7
     ec8:	005a410a 	subseq	r4, sl, sl, lsl #2
     ecc:	7a0a0000 	bvc	280ed4 <_Min_Stack_Size+0x280ad4>
     ed0:	01000058 	qaddeq	r0, r8, r0
     ed4:	01070900 	tsteq	r7, r0, lsl #18
     ed8:	0000003b 	andeq	r0, r0, fp, lsr r0
     edc:	e00d2101 	and	r2, sp, r1, lsl #2
     ee0:	0e000003 	cdpeq	0, 0, cr0, cr0, cr3, {0}
     ee4:	0050534d 	subseq	r5, r0, sp, asr #6
     ee8:	53500e00 	cmppl	r0, #0, 28
     eec:	00010050 	andeq	r0, r1, r0, asr r0
     ef0:	3b010709 	blcc	42b1c <_Min_Stack_Size+0x4271c>
     ef4:	01000000 	mrseq	r0, (UNDEF: 0)
     ef8:	03fb0d24 	mvnseq	r0, #36, 26	; 0x900
     efc:	0c0a0000 	stceq	0, cr0, [sl], {-0}
     f00:	0000005b 	andeq	r0, r0, fp, asr r0
     f04:	005b120a 	subseq	r1, fp, sl, lsl #4
     f08:	0f000100 	svceq	0x00000100
     f0c:	00005b18 	andeq	r5, r0, r8, lsl fp
     f10:	5c0c4401 	cfstrspl	mvf4, [ip], {1}
     f14:	01000000 	mrseq	r0, (UNDEF: 0)
     f18:	59100d01 	ldmdbpl	r0, {r0, r8, sl, fp}
     f1c:	45010000 	strmi	r0, [r1, #-0]
     f20:	0000bb0a 	andeq	fp, r0, sl, lsl #22
     f24:	03050100 	movweq	r0, #20736	; 0x5100
     f28:	2000005c 	andcs	r0, r0, ip, asr r0
     f2c:	005a940d 	subseq	r9, sl, sp, lsl #8
     f30:	0a460100 	beq	1181338 <_Min_Stack_Size+0x1180f38>
     f34:	000000bb 	strheq	r0, [r0], -fp
     f38:	60030501 	andvs	r0, r3, r1, lsl #10
     f3c:	0d200000 	stceq	0, cr0, [r0, #-0]
     f40:	00005844 	andeq	r5, r0, r4, asr #16
     f44:	bb0a4701 	bllt	292b50 <_Min_Stack_Size+0x292750>
     f48:	01000000 	mrseq	r0, (UNDEF: 0)
     f4c:	00640305 	rsbeq	r0, r4, r5, lsl #6
     f50:	110d2000 	mrsne	r2, (UNDEF: 13)
     f54:	0100005c 	qaddeq	r0, ip, r0
     f58:	00bb0a48 	adcseq	r0, fp, r8, asr #20
     f5c:	05010000 	streq	r0, [r1, #-0]
     f60:	00006803 	andeq	r6, r0, r3, lsl #16
     f64:	5d630d20 	stclpl	13, cr0, [r3, #-128]!	; 0xffffff80
     f68:	49010000 	stmdbmi	r1, {}	; <UNPREDICTABLE>
     f6c:	0000bb0a 	andeq	fp, r0, sl, lsl #22
     f70:	03050100 	movweq	r0, #20736	; 0x5100
     f74:	2000006c 	andcs	r0, r0, ip, rrx
     f78:	005b5a0d 	subseq	r5, fp, sp, lsl #20
     f7c:	0a4a0100 	beq	1281384 <_Min_Stack_Size+0x1280f84>
     f80:	000000bb 	strheq	r0, [r0], -fp
     f84:	70030501 	andvc	r0, r3, r1, lsl #10
     f88:	0d200000 	stceq	0, cr0, [r0, #-0]
     f8c:	00005d38 	andeq	r5, r0, r8, lsr sp
     f90:	af094c01 	svcge	0x00094c01
     f94:	01000000 	mrseq	r0, (UNDEF: 0)
     f98:	00740305 	rsbseq	r0, r4, r5, lsl #6
     f9c:	01102000 	tsteq	r0, r0
     fa0:	000039d0 	ldrdeq	r3, [r0], -r0
     fa4:	0107fe07 	tsteq	r7, r7, lsl #28	; <UNPREDICTABLE>
     fa8:	0004a301 	andeq	sl, r4, r1, lsl #6
     fac:	04a31100 	strteq	r1, [r3], #256	; 0x100
     fb0:	0b000000 	bleq	fb8 <_Min_Stack_Size+0xbb8>
     fb4:	00037804 	andeq	r7, r3, r4, lsl #16
     fb8:	1e011200 	cdpne	2, 0, cr1, cr1, cr0, {0}
     fbc:	0100005c 	qaddeq	r0, ip, r0
     fc0:	5c010589 	cfstr32pl	mvfx0, [r1], {137}	; 0x89
     fc4:	f0000000 			; <UNDEFINED> instruction: 0xf0000000
     fc8:	48080009 	stmdami	r8, {r0, r3}
     fcc:	c808000a 	stmdagt	r8, {r1, r3}
     fd0:	01000005 	tsteq	r0, r5
     fd4:	000004d8 	ldrdeq	r0, [r0], -r8
     fd8:	0024a713 	eoreq	sl, r4, r3, lsl r7
     fdc:	108b0100 	addne	r0, fp, r0, lsl #2
     fe0:	00000378 	andeq	r0, r0, r8, ror r3
     fe4:	00649102 	rsbeq	r9, r4, r2, lsl #2
     fe8:	5d4c0114 	stfple	f0, [ip, #-80]	; 0xffffffb0
     fec:	83010000 	movwhi	r0, #4096	; 0x1000
     ff0:	0009bc06 	andeq	fp, r9, r6, lsl #24
     ff4:	0009f008 	andeq	pc, r9, r8
     ff8:	00060008 	andeq	r0, r6, r8
     ffc:	01140100 	tsteq	r4, r0, lsl #2
    1000:	00005af4 	strdeq	r5, [r0], -r4
    1004:	8c067a01 			; <UNDEFINED> instruction: 0x8c067a01
    1008:	bc080009 	stclt	0, cr0, [r8], {9}
    100c:	44080009 	strmi	r0, [r8], #-9
    1010:	01000006 	tsteq	r0, r6
    1014:	583c0115 	ldmdapl	ip!, {r0, r2, r4, r8}
    1018:	56010000 	strpl	r0, [r1], -r0
    101c:	0008a806 	andeq	sl, r8, r6, lsl #16
    1020:	00098c08 	andeq	r8, r9, r8, lsl #24
    1024:	00068808 	andeq	r8, r6, r8, lsl #16
    1028:	01140100 	tsteq	r4, r0, lsl #2
    102c:	00005d12 	andeq	r5, r0, r2, lsl sp
    1030:	90065301 	andls	r5, r6, r1, lsl #6
    1034:	a8080008 	stmdage	r8, {r3}
    1038:	b4080008 	strlt	r0, [r8], #-8
    103c:	01000006 	tsteq	r0, r6
    1040:	585a0116 	ldmdapl	sl, {r1, r2, r4, r8}^
    1044:	50010000 	andpl	r0, r1, r0
    1048:	005c0105 	subseq	r0, ip, r5, lsl #2
    104c:	08760000 	ldmdaeq	r6!, {}^	; <UNPREDICTABLE>
    1050:	08900800 	ldmeq	r0, {fp}
    1054:	06f80800 	ldrbteq	r0, [r8], r0, lsl #16
    1058:	84010000 	strhi	r0, [r1], #-0
    105c:	17000005 	strne	r0, [r0, -r5]
    1060:	50010061 	andpl	r0, r1, r1, rrx
    1064:	00005c17 	andeq	r5, r0, r7, lsl ip
    1068:	74910200 	ldrvc	r0, [r1], #512	; 0x200
    106c:	01006217 	tsteq	r0, r7, lsl r2
    1070:	005c1d50 	subseq	r1, ip, r0, asr sp
    1074:	91020000 	mrsls	r0, (UNDEF: 2)
    1078:	00631770 	rsbeq	r1, r3, r0, ror r7
    107c:	5c235001 	stcpl	0, cr5, [r3], #-4
    1080:	02000000 	andeq	r0, r0, #0
    1084:	64176c91 	ldrvs	r6, [r7], #-3217	; 0xfffff36f
    1088:	29500100 	ldmdbcs	r0, {r8}^
    108c:	0000005c 	andeq	r0, r0, ip, asr r0
    1090:	00689102 	rsbeq	r9, r8, r2, lsl #2
    1094:	5d2a0118 	stfpls	f0, [sl, #-96]!	; 0xffffffa0
    1098:	4d010000 	stcmi	0, cr0, [r1, #-0]
    109c:	005c0105 	subseq	r0, ip, r5, lsl #2
    10a0:	08560000 	ldmdaeq	r6, {}^	; <UNPREDICTABLE>
    10a4:	08760800 	ldmdaeq	r6!, {fp}^
    10a8:	07540800 	ldrbeq	r0, [r4, -r0, lsl #16]
    10ac:	17010000 	strne	r0, [r1, -r0]
    10b0:	4d010061 	stcmi	0, cr0, [r1, #-388]	; 0xfffffe7c
    10b4:	00005c17 	andeq	r5, r0, r7, lsl ip
    10b8:	74910200 	ldrvc	r0, [r1], #512	; 0x200
    10bc:	01006217 	tsteq	r0, r7, lsl r2
    10c0:	005c1d4d 	subseq	r1, ip, sp, asr #26
    10c4:	91020000 	mrsls	r0, (UNDEF: 2)
    10c8:	00631770 	rsbeq	r1, r3, r0, ror r7
    10cc:	5c234d01 	stcpl	13, cr4, [r3], #-4
    10d0:	02000000 	andeq	r0, r0, #0
    10d4:	00006c91 	muleq	r0, r1, ip
    10d8:	0000001e 	andeq	r0, r0, lr, lsl r0
    10dc:	04740002 	ldrbteq	r0, [r4], #-2
    10e0:	01040000 	mrseq	r0, (UNDEF: 4)
    10e4:	000014a0 	andeq	r1, r0, r0, lsr #9
    10e8:	000000f0 	strdeq	r0, [r0], -r0	; <UNPREDICTABLE>
    10ec:	00005d70 	andeq	r5, r0, r0, ror sp
    10f0:	0000113b 	andeq	r1, r0, fp, lsr r1
    10f4:	00005d93 	muleq	r0, r3, sp
    10f8:	Address 0x00000000000010f8 is out of bounds.


Disassembly of section .debug_abbrev:

00000000 <.debug_abbrev>:
   0:	25011101 	strcs	r1, [r1, #-257]	; 0xfffffeff
   4:	030b130e 	movweq	r1, #45838	; 0xb30e
   8:	550e1b0e 	strpl	r1, [lr, #-2830]	; 0xfffff4f2
   c:	52011106 	andpl	r1, r1, #-2147483647	; 0x80000001
  10:	99061001 	stmdbls	r6, {r0, ip}
  14:	00000642 	andeq	r0, r0, r2, asr #12
  18:	0b002402 	bleq	9028 <_Min_Stack_Size+0x8c28>
  1c:	030b3e0b 	movweq	r3, #48651	; 0xbe0b
  20:	0300000e 	movweq	r0, #14
  24:	0e030016 	mcreq	0, 0, r0, cr3, cr6, {0}
  28:	0b3b0b3a 	bleq	ec2d18 <_Min_Stack_Size+0xec2918>
  2c:	13490b39 	movtne	r0, #39737	; 0x9b39
  30:	35040000 	strcc	r0, [r4, #-0]
  34:	00134900 	andseq	r4, r3, r0, lsl #18
  38:	00240500 	eoreq	r0, r4, r0, lsl #10
  3c:	0b3e0b0b 	bleq	f82c70 <_Min_Stack_Size+0xf82870>
  40:	00000803 	andeq	r0, r0, r3, lsl #16
  44:	0b011306 	bleq	44c64 <_Min_Stack_Size+0x44864>
  48:	3b0b3a0b 	blcc	2ce87c <_Min_Stack_Size+0x2ce47c>
  4c:	010b390b 	tsteq	fp, fp, lsl #18
  50:	07000013 	smladeq	r0, r3, r0, r0
  54:	0803000d 	stmdaeq	r3, {r0, r2, r3}
  58:	0b3b0b3a 	bleq	ec2d48 <_Min_Stack_Size+0xec2948>
  5c:	13490b39 	movtne	r0, #39737	; 0x9b39
  60:	00000a38 	andeq	r0, r0, r8, lsr sl
  64:	03000d08 	movweq	r0, #3336	; 0xd08
  68:	3b0b3a0e 	blcc	2ce8a8 <_Min_Stack_Size+0x2ce4a8>
  6c:	490b390b 	stmdbmi	fp, {r0, r1, r3, r8, fp, ip, sp}
  70:	000a3813 	andeq	r3, sl, r3, lsl r8
  74:	01010900 	tsteq	r1, r0, lsl #18
  78:	13011349 	movwne	r1, #4937	; 0x1349
  7c:	210a0000 	mrscs	r0, (UNDEF: 10)
  80:	2f134900 	svccs	0x00134900
  84:	0b00000b 	bleq	b8 <_Min_Heap_Size-0x148>
  88:	0b3e0104 	bleq	f804a0 <_Min_Stack_Size+0xf800a0>
  8c:	13490b0b 	movtne	r0, #39691	; 0x9b0b
  90:	0b3b0b3a 	bleq	ec2d80 <_Min_Stack_Size+0xec2980>
  94:	13010b39 	movwne	r0, #6969	; 0x1b39
  98:	280c0000 	stmdacs	ip, {}	; <UNPREDICTABLE>
  9c:	1c0e0300 	stcne	3, cr0, [lr], {-0}
  a0:	0d00000b 	stceq	0, cr0, [r0, #-44]	; 0xffffffd4
  a4:	0b0b000f 	bleq	2c00e8 <_Min_Stack_Size+0x2bfce8>
  a8:	00001349 	andeq	r1, r0, r9, asr #6
  ac:	2700150e 	strcs	r1, [r0, -lr, lsl #10]
  b0:	0f00000c 	svceq	0x0000000c
  b4:	13010115 	movwne	r0, #4373	; 0x1115
  b8:	18100000 	ldmdane	r0, {}	; <UNPREDICTABLE>
  bc:	11000000 	mrsne	r0, (UNDEF: 0)
  c0:	0e030034 	mcreq	0, 0, r0, cr3, cr4, {1}
  c4:	0b3b0b3a 	bleq	ec2db4 <_Min_Stack_Size+0xec29b4>
  c8:	13490b39 	movtne	r0, #39737	; 0x9b39
  cc:	0a020c3f 	beq	831d0 <_Min_Stack_Size+0x82dd0>
  d0:	2e120000 	cdpcs	0, 1, cr0, cr2, cr0, {0}
  d4:	030c3f01 	movweq	r3, #52993	; 0xcf01
  d8:	3b0b3a0e 	blcc	2ce918 <_Min_Stack_Size+0x2ce518>
  dc:	270b390b 	strcs	r3, [fp, -fp, lsl #18]
  e0:	010c3c0c 	tsteq	ip, ip, lsl #24
  e4:	13000013 	movwne	r0, #19
  e8:	13490005 	movtne	r0, #36869	; 0x9005
  ec:	2e140000 	cdpcs	0, 1, cr0, cr4, cr0, {0}
  f0:	030c3f00 	movweq	r3, #52992	; 0xcf00
  f4:	3b0b3a0e 	blcc	2ce934 <_Min_Stack_Size+0x2ce534>
  f8:	110b390b 	tstne	fp, fp, lsl #18
  fc:	40011201 	andmi	r1, r1, r1, lsl #4
 100:	0c429606 	mcrreq	6, 0, r9, r2, cr6
 104:	2e150000 	cdpcs	0, 1, cr0, cr5, cr0, {0}
 108:	030c3f01 	movweq	r3, #52993	; 0xcf01
 10c:	3b0b3a0e 	blcc	2ce94c <_Min_Stack_Size+0x2ce54c>
 110:	270b390b 	strcs	r3, [fp, -fp, lsl #18]
 114:	1201110c 	andne	r1, r1, #12, 2
 118:	96064001 	strls	r4, [r6], -r1
 11c:	13010c42 	movwne	r0, #7234	; 0x1c42
 120:	05160000 	ldreq	r0, [r6, #-0]
 124:	3a0e0300 	bcc	380d2c <_Min_Stack_Size+0x38092c>
 128:	390b3b0b 	stmdbcc	fp, {r0, r1, r3, r8, r9, fp, ip, sp}
 12c:	0213490b 	andseq	r4, r3, #180224	; 0x2c000
 130:	1700000a 	strne	r0, [r0, -sl]
 134:	0e030034 	mcreq	0, 0, r0, cr3, cr4, {1}
 138:	0b3b0b3a 	bleq	ec2e28 <_Min_Stack_Size+0xec2a28>
 13c:	13490b39 	movtne	r0, #39737	; 0x9b39
 140:	00000a02 	andeq	r0, r0, r2, lsl #20
 144:	03003418 	movweq	r3, #1048	; 0x418
 148:	3b0b3a08 	blcc	2ce970 <_Min_Stack_Size+0x2ce570>
 14c:	490b390b 	stmdbmi	fp, {r0, r1, r3, r8, fp, ip, sp}
 150:	000a0213 	andeq	r0, sl, r3, lsl r2
 154:	012e1900 			; <UNDEFINED> instruction: 0x012e1900
 158:	0e030c3f 	mcreq	12, 0, r0, cr3, cr15, {1}
 15c:	0b3b0b3a 	bleq	ec2e4c <_Min_Stack_Size+0xec2a4c>
 160:	0c270b39 			; <UNDEFINED> instruction: 0x0c270b39
 164:	01120111 	tsteq	r2, r1, lsl r1
 168:	42970640 	addsmi	r0, r7, #64, 12	; 0x4000000
 16c:	0013010c 	andseq	r0, r3, ip, lsl #2
 170:	00051a00 	andeq	r1, r5, r0, lsl #20
 174:	0b3a0803 	bleq	e82188 <_Min_Stack_Size+0xe81d88>
 178:	0b390b3b 	bleq	e42e6c <_Min_Stack_Size+0xe42a6c>
 17c:	0a021349 	beq	84ea8 <_Min_Stack_Size+0x84aa8>
 180:	2e1b0000 	cdpcs	0, 1, cr0, cr11, cr0, {0}
 184:	030c3f01 	movweq	r3, #52993	; 0xcf01
 188:	3b0b3a0e 	blcc	2ce9c8 <_Min_Stack_Size+0x2ce5c8>
 18c:	270b390b 	strcs	r3, [fp, -fp, lsl #18]
 190:	1201110c 	andne	r1, r1, #12, 2
 194:	97064001 	strls	r4, [r6, -r1]
 198:	00000c42 	andeq	r0, r0, r2, asr #24
 19c:	01110100 	tsteq	r1, r0, lsl #2
 1a0:	0b130e25 	bleq	4c3a3c <_Min_Stack_Size+0x4c363c>
 1a4:	0e1b0e03 	cdpeq	14, 1, cr0, cr11, cr3, {0}
 1a8:	01110655 	tsteq	r1, r5, asr r6
 1ac:	06100152 			; <UNDEFINED> instruction: 0x06100152
 1b0:	00064299 	muleq	r6, r9, r2
 1b4:	00240200 	eoreq	r0, r4, r0, lsl #4
 1b8:	0b3e0b0b 	bleq	f82dec <_Min_Stack_Size+0xf829ec>
 1bc:	00000e03 	andeq	r0, r0, r3, lsl #28
 1c0:	03001603 	movweq	r1, #1539	; 0x603
 1c4:	3b0b3a0e 	blcc	2cea04 <_Min_Stack_Size+0x2ce604>
 1c8:	490b390b 	stmdbmi	fp, {r0, r1, r3, r8, fp, ip, sp}
 1cc:	04000013 	streq	r0, [r0], #-19	; 0xffffffed
 1d0:	13490035 	movtne	r0, #36917	; 0x9035
 1d4:	24050000 	strcs	r0, [r5], #-0
 1d8:	3e0b0b00 	vmlacc.f64	d0, d11, d0
 1dc:	0008030b 	andeq	r0, r8, fp, lsl #6
 1e0:	01130600 	tsteq	r3, r0, lsl #12
 1e4:	0b3a0b0b 	bleq	e82e18 <_Min_Stack_Size+0xe82a18>
 1e8:	0b390b3b 	bleq	e42edc <_Min_Stack_Size+0xe42adc>
 1ec:	00001301 	andeq	r1, r0, r1, lsl #6
 1f0:	03000d07 	movweq	r0, #3335	; 0xd07
 1f4:	3b0b3a08 	blcc	2cea1c <_Min_Stack_Size+0x2ce61c>
 1f8:	490b390b 	stmdbmi	fp, {r0, r1, r3, r8, fp, ip, sp}
 1fc:	000a3813 	andeq	r3, sl, r3, lsl r8
 200:	000d0800 	andeq	r0, sp, r0, lsl #16
 204:	0b3a0e03 	bleq	e83a18 <_Min_Stack_Size+0xe83618>
 208:	0b390b3b 	bleq	e42efc <_Min_Stack_Size+0xe42afc>
 20c:	0a381349 	beq	e04f38 <_Min_Stack_Size+0xe04b38>
 210:	04090000 	streq	r0, [r9], #-0
 214:	0b0b3e01 	bleq	2cfa20 <_Min_Stack_Size+0x2cf620>
 218:	3a13490b 	bcc	4d264c <_Min_Stack_Size+0x4d224c>
 21c:	390b3b0b 	stmdbcc	fp, {r0, r1, r3, r8, r9, fp, ip, sp}
 220:	0013010b 	andseq	r0, r3, fp, lsl #2
 224:	00280a00 	eoreq	r0, r8, r0, lsl #20
 228:	0b1c0e03 	bleq	703a3c <_Min_Stack_Size+0x70363c>
 22c:	2e0b0000 	cdpcs	0, 0, cr0, cr11, cr0, {0}
 230:	030c3f01 	movweq	r3, #52993	; 0xcf01
 234:	3b0b3a0e 	blcc	2cea74 <_Min_Stack_Size+0x2ce674>
 238:	270b390b 	strcs	r3, [fp, -fp, lsl #18]
 23c:	1201110c 	andne	r1, r1, #12, 2
 240:	97064001 	strls	r4, [r6, -r1]
 244:	13010c42 	movwne	r0, #7234	; 0x1c42
 248:	050c0000 	streq	r0, [ip, #-0]
 24c:	3a0e0300 	bcc	380e54 <_Min_Stack_Size+0x380a54>
 250:	390b3b0b 	stmdbcc	fp, {r0, r1, r3, r8, r9, fp, ip, sp}
 254:	0213490b 	andseq	r4, r3, #180224	; 0x2c000
 258:	0d00000a 	stceq	0, cr0, [r0, #-40]	; 0xffffffd8
 25c:	0b0b000f 	bleq	2c02a0 <_Min_Stack_Size+0x2bfea0>
 260:	00001349 	andeq	r1, r0, r9, asr #6
 264:	3f012e0e 	svccc	0x00012e0e
 268:	3a0e030c 	bcc	380ea0 <_Min_Stack_Size+0x380aa0>
 26c:	390b3b0b 	stmdbcc	fp, {r0, r1, r3, r8, r9, fp, ip, sp}
 270:	490c270b 	stmdbmi	ip, {r0, r1, r3, r8, r9, sl, sp}
 274:	12011113 	andne	r1, r1, #-1073741820	; 0xc0000004
 278:	97064001 	strls	r4, [r6, -r1]
 27c:	13010c42 	movwne	r0, #7234	; 0x1c42
 280:	340f0000 	strcc	r0, [pc], #-0	; 288 <_Min_Heap_Size+0x88>
 284:	3a0e0300 	bcc	380e8c <_Min_Stack_Size+0x380a8c>
 288:	390b3b0b 	stmdbcc	fp, {r0, r1, r3, r8, r9, fp, ip, sp}
 28c:	0213490b 	andseq	r4, r3, #180224	; 0x2c000
 290:	1000000a 	andne	r0, r0, sl
 294:	0c3f012e 	ldfeqs	f0, [pc], #-184	; 1e4 <_Min_Heap_Size-0x1c>
 298:	0b3a0e03 	bleq	e83aac <_Min_Stack_Size+0xe836ac>
 29c:	0b390b3b 	bleq	e42f90 <_Min_Stack_Size+0xe42b90>
 2a0:	01110c27 	tsteq	r1, r7, lsr #24
 2a4:	06400112 			; <UNDEFINED> instruction: 0x06400112
 2a8:	010c4296 			; <UNDEFINED> instruction: 0x010c4296
 2ac:	11000013 	tstne	r0, r3, lsl r0
 2b0:	0c3f012e 	ldfeqs	f0, [pc], #-184	; 200 <_Min_Heap_Size>
 2b4:	0b3a0e03 	bleq	e83ac8 <_Min_Stack_Size+0xe836c8>
 2b8:	0b390b3b 	bleq	e42fac <_Min_Stack_Size+0xe42bac>
 2bc:	13490c27 	movtne	r0, #39975	; 0x9c27
 2c0:	01120111 	tsteq	r2, r1, lsl r1
 2c4:	42970640 	addsmi	r0, r7, #64, 12	; 0x4000000
 2c8:	1200000c 	andne	r0, r0, #12
 2cc:	08030005 	stmdaeq	r3, {r0, r2}
 2d0:	0b3b0b3a 	bleq	ec2fc0 <_Min_Stack_Size+0xec2bc0>
 2d4:	13490b39 	movtne	r0, #39737	; 0x9b39
 2d8:	00000a02 	andeq	r0, r0, r2, lsl #20
 2dc:	01110100 	tsteq	r1, r0, lsl #2
 2e0:	0b130e25 	bleq	4c3b7c <_Min_Stack_Size+0x4c377c>
 2e4:	0e1b0e03 	cdpeq	14, 1, cr0, cr11, cr3, {0}
 2e8:	01110655 	tsteq	r1, r5, asr r6
 2ec:	06100152 			; <UNDEFINED> instruction: 0x06100152
 2f0:	00064299 	muleq	r6, r9, r2
 2f4:	00240200 	eoreq	r0, r4, r0, lsl #4
 2f8:	0b3e0b0b 	bleq	f82f2c <_Min_Stack_Size+0xf82b2c>
 2fc:	00000e03 	andeq	r0, r0, r3, lsl #28
 300:	03001603 	movweq	r1, #1539	; 0x603
 304:	3b0b3a0e 	blcc	2ceb44 <_Min_Stack_Size+0x2ce744>
 308:	490b390b 	stmdbmi	fp, {r0, r1, r3, r8, fp, ip, sp}
 30c:	04000013 	streq	r0, [r0], #-19	; 0xffffffed
 310:	0b0b0024 	bleq	2c03a8 <_Min_Stack_Size+0x2bffa8>
 314:	08030b3e 	stmdaeq	r3, {r1, r2, r3, r4, r5, r8, r9, fp}
 318:	35050000 	strcc	r0, [r5, #-0]
 31c:	00134900 	andseq	r4, r3, r0, lsl #18
 320:	01130600 	tsteq	r3, r0, lsl #12
 324:	0b3a0b0b 	bleq	e82f58 <_Min_Stack_Size+0xe82b58>
 328:	0b390b3b 	bleq	e4301c <_Min_Stack_Size+0xe42c1c>
 32c:	00001301 	andeq	r1, r0, r1, lsl #6
 330:	03000d07 	movweq	r0, #3335	; 0xd07
 334:	3b0b3a08 	blcc	2ceb5c <_Min_Stack_Size+0x2ce75c>
 338:	490b390b 	stmdbmi	fp, {r0, r1, r3, r8, fp, ip, sp}
 33c:	000a3813 	andeq	r3, sl, r3, lsl r8
 340:	000d0800 	andeq	r0, sp, r0, lsl #16
 344:	0b3a0e03 	bleq	e83b58 <_Min_Stack_Size+0xe83758>
 348:	0b390b3b 	bleq	e4303c <_Min_Stack_Size+0xe42c3c>
 34c:	0a381349 	beq	e05078 <_Min_Stack_Size+0xe04c78>
 350:	04090000 	streq	r0, [r9], #-0
 354:	0b0b3e01 	bleq	2cfb60 <_Min_Stack_Size+0x2cf760>
 358:	3a13490b 	bcc	4d278c <_Min_Stack_Size+0x4d238c>
 35c:	390b3b0b 	stmdbcc	fp, {r0, r1, r3, r8, r9, fp, ip, sp}
 360:	0013010b 	andseq	r0, r3, fp, lsl #2
 364:	00280a00 	eoreq	r0, r8, r0, lsl #20
 368:	0b1c0e03 	bleq	703b7c <_Min_Stack_Size+0x70377c>
 36c:	0f0b0000 	svceq	0x000b0000
 370:	490b0b00 	stmdbmi	fp, {r8, r9, fp}
 374:	0c000013 	stceq	0, cr0, [r0], {19}
 378:	0c270015 	stceq	0, cr0, [r7], #-84	; 0xffffffac
 37c:	340d0000 	strcc	r0, [sp], #-0
 380:	3a0e0300 	bcc	380f88 <_Min_Stack_Size+0x380b88>
 384:	390b3b0b 	stmdbcc	fp, {r0, r1, r3, r8, r9, fp, ip, sp}
 388:	3f13490b 	svccc	0x0013490b
 38c:	000a020c 	andeq	r0, sl, ip, lsl #4
 390:	00280e00 	eoreq	r0, r8, r0, lsl #28
 394:	0b1c0803 	bleq	7023a8 <_Min_Stack_Size+0x701fa8>
 398:	340f0000 	strcc	r0, [pc], #-0	; 3a0 <_Min_Heap_Size+0x1a0>
 39c:	3a0e0300 	bcc	380fa4 <_Min_Stack_Size+0x380ba4>
 3a0:	390b3b0b 	stmdbcc	fp, {r0, r1, r3, r8, r9, fp, ip, sp}
 3a4:	3f13490b 	svccc	0x0013490b
 3a8:	000c3c0c 	andeq	r3, ip, ip, lsl #24
 3ac:	012e1000 			; <UNDEFINED> instruction: 0x012e1000
 3b0:	0e030c3f 	mcreq	12, 0, r0, cr3, cr15, {1}
 3b4:	0b3b0b3a 	bleq	ec30a4 <_Min_Stack_Size+0xec2ca4>
 3b8:	0c270b39 			; <UNDEFINED> instruction: 0x0c270b39
 3bc:	13010c3c 	movwne	r0, #7228	; 0x1c3c
 3c0:	05110000 	ldreq	r0, [r1, #-0]
 3c4:	00134900 	andseq	r4, r3, r0, lsl #18
 3c8:	012e1200 			; <UNDEFINED> instruction: 0x012e1200
 3cc:	0e030c3f 	mcreq	12, 0, r0, cr3, cr15, {1}
 3d0:	0b3b0b3a 	bleq	ec30c0 <_Min_Stack_Size+0xec2cc0>
 3d4:	0c270b39 			; <UNDEFINED> instruction: 0x0c270b39
 3d8:	01111349 	tsteq	r1, r9, asr #6
 3dc:	06400112 			; <UNDEFINED> instruction: 0x06400112
 3e0:	010c4296 			; <UNDEFINED> instruction: 0x010c4296
 3e4:	13000013 	movwne	r0, #19
 3e8:	0e030034 	mcreq	0, 0, r0, cr3, cr4, {1}
 3ec:	0b3b0b3a 	bleq	ec30dc <_Min_Stack_Size+0xec2cdc>
 3f0:	13490b39 	movtne	r0, #39737	; 0x9b39
 3f4:	00000a02 	andeq	r0, r0, r2, lsl #20
 3f8:	3f002e14 	svccc	0x00002e14
 3fc:	3a0e030c 	bcc	381034 <_Min_Stack_Size+0x380c34>
 400:	390b3b0b 	stmdbcc	fp, {r0, r1, r3, r8, r9, fp, ip, sp}
 404:	1201110b 	andne	r1, r1, #-1073741822	; 0xc0000002
 408:	97064001 	strls	r4, [r6, -r1]
 40c:	00000c42 	andeq	r0, r0, r2, asr #24
 410:	3f002e15 	svccc	0x00002e15
 414:	3a0e030c 	bcc	38104c <_Min_Stack_Size+0x380c4c>
 418:	390b3b0b 	stmdbcc	fp, {r0, r1, r3, r8, r9, fp, ip, sp}
 41c:	1201110b 	andne	r1, r1, #-1073741822	; 0xc0000002
 420:	96064001 	strls	r4, [r6], -r1
 424:	00000c42 	andeq	r0, r0, r2, asr #24
 428:	3f012e16 	svccc	0x00012e16
 42c:	3a0e030c 	bcc	381064 <_Min_Stack_Size+0x380c64>
 430:	390b3b0b 	stmdbcc	fp, {r0, r1, r3, r8, r9, fp, ip, sp}
 434:	490c270b 	stmdbmi	ip, {r0, r1, r3, r8, r9, sl, sp}
 438:	12011113 	andne	r1, r1, #-1073741820	; 0xc0000004
 43c:	97064001 	strls	r4, [r6, -r1]
 440:	13010c42 	movwne	r0, #7234	; 0x1c42
 444:	05170000 	ldreq	r0, [r7, #-0]
 448:	3a080300 	bcc	201050 <_Min_Stack_Size+0x200c50>
 44c:	390b3b0b 	stmdbcc	fp, {r0, r1, r3, r8, r9, fp, ip, sp}
 450:	0213490b 	andseq	r4, r3, #180224	; 0x2c000
 454:	1800000a 	stmdane	r0, {r1, r3}
 458:	0c3f012e 	ldfeqs	f0, [pc], #-184	; 3a8 <_Min_Heap_Size+0x1a8>
 45c:	0b3a0e03 	bleq	e83c70 <_Min_Stack_Size+0xe83870>
 460:	0b390b3b 	bleq	e43154 <_Min_Stack_Size+0xe42d54>
 464:	13490c27 	movtne	r0, #39975	; 0x9c27
 468:	01120111 	tsteq	r2, r1, lsl r1
 46c:	42970640 	addsmi	r0, r7, #64, 12	; 0x4000000
 470:	0000000c 	andeq	r0, r0, ip
 474:	10001101 	andne	r1, r0, r1, lsl #2
 478:	03065506 	movweq	r5, #25862	; 0x6506
 47c:	250e1b0e 	strcs	r1, [lr, #-2830]	; 0xfffff4f2
 480:	0005130e 	andeq	r1, r5, lr, lsl #6
	...

Disassembly of section .debug_loc:

00000000 <.debug_loc>:
   0:	08000614 	stmdaeq	r0, {r2, r4, r9, sl}
   4:	08000616 	stmdaeq	r0, {r1, r2, r4, r9, sl}
   8:	007d0002 	rsbseq	r0, sp, r2
   c:	08000616 	stmdaeq	r0, {r1, r2, r4, r9, sl}
  10:	08000618 	stmdaeq	r0, {r3, r4, r9, sl}
  14:	087d0002 	ldmdaeq	sp!, {r1}^
  18:	08000618 	stmdaeq	r0, {r3, r4, r9, sl}
  1c:	080006d8 	stmdaeq	r0, {r3, r4, r6, r7, r9, sl}
  20:	08770002 	ldmdaeq	r7!, {r1}^
	...
  2c:	0800056c 	stmdaeq	r0, {r2, r3, r5, r6, r8, sl}
  30:	0800056e 	stmdaeq	r0, {r1, r2, r3, r5, r6, r8, sl}
  34:	007d0002 	rsbseq	r0, sp, r2
  38:	0800056e 	stmdaeq	r0, {r1, r2, r3, r5, r6, r8, sl}
  3c:	08000570 	stmdaeq	r0, {r4, r5, r6, r8, sl}
  40:	087d0002 	ldmdaeq	sp!, {r1}^
  44:	08000570 	stmdaeq	r0, {r4, r5, r6, r8, sl}
  48:	08000614 	stmdaeq	r0, {r2, r4, r9, sl}
  4c:	08770002 	ldmdaeq	r7!, {r1}^
	...
  58:	08000548 	stmdaeq	r0, {r3, r6, r8, sl}
  5c:	0800054a 	stmdaeq	r0, {r1, r3, r6, r8, sl}
  60:	007d0002 	rsbseq	r0, sp, r2
  64:	0800054a 	stmdaeq	r0, {r1, r3, r6, r8, sl}
  68:	0800054c 	stmdaeq	r0, {r2, r3, r6, r8, sl}
  6c:	087d0002 	ldmdaeq	sp!, {r1}^
  70:	0800054c 	stmdaeq	r0, {r2, r3, r6, r8, sl}
  74:	0800056c 	stmdaeq	r0, {r2, r3, r5, r6, r8, sl}
  78:	08770002 	ldmdaeq	r7!, {r1}^
	...
  84:	08000524 	stmdaeq	r0, {r2, r5, r8, sl}
  88:	08000526 	stmdaeq	r0, {r1, r2, r5, r8, sl}
  8c:	007d0002 	rsbseq	r0, sp, r2
  90:	08000526 	stmdaeq	r0, {r1, r2, r5, r8, sl}
  94:	08000528 	stmdaeq	r0, {r3, r5, r8, sl}
  98:	087d0002 	ldmdaeq	sp!, {r1}^
  9c:	08000528 	stmdaeq	r0, {r3, r5, r8, sl}
  a0:	08000548 	stmdaeq	r0, {r3, r6, r8, sl}
  a4:	08770002 	ldmdaeq	r7!, {r1}^
	...
  b0:	08000500 	stmdaeq	r0, {r8, sl}
  b4:	08000502 	stmdaeq	r0, {r1, r8, sl}
  b8:	007d0002 	rsbseq	r0, sp, r2
  bc:	08000502 	stmdaeq	r0, {r1, r8, sl}
  c0:	08000504 	stmdaeq	r0, {r2, r8, sl}
  c4:	087d0002 	ldmdaeq	sp!, {r1}^
  c8:	08000504 	stmdaeq	r0, {r2, r8, sl}
  cc:	08000524 	stmdaeq	r0, {r2, r5, r8, sl}
  d0:	08770002 	ldmdaeq	r7!, {r1}^
	...
  dc:	080004dc 	stmdaeq	r0, {r2, r3, r4, r6, r7, sl}
  e0:	080004de 	stmdaeq	r0, {r1, r2, r3, r4, r6, r7, sl}
  e4:	007d0002 	rsbseq	r0, sp, r2
  e8:	080004de 	stmdaeq	r0, {r1, r2, r3, r4, r6, r7, sl}
  ec:	080004e0 	stmdaeq	r0, {r5, r6, r7, sl}
  f0:	087d0002 	ldmdaeq	sp!, {r1}^
  f4:	080004e0 	stmdaeq	r0, {r5, r6, r7, sl}
  f8:	08000500 	stmdaeq	r0, {r8, sl}
  fc:	08770002 	ldmdaeq	r7!, {r1}^
	...
 108:	080004b8 	stmdaeq	r0, {r3, r4, r5, r7, sl}
 10c:	080004ba 	stmdaeq	r0, {r1, r3, r4, r5, r7, sl}
 110:	007d0002 	rsbseq	r0, sp, r2
 114:	080004ba 	stmdaeq	r0, {r1, r3, r4, r5, r7, sl}
 118:	080004bc 	stmdaeq	r0, {r2, r3, r4, r5, r7, sl}
 11c:	087d0002 	ldmdaeq	sp!, {r1}^
 120:	080004bc 	stmdaeq	r0, {r2, r3, r4, r5, r7, sl}
 124:	080004dc 	stmdaeq	r0, {r2, r3, r4, r6, r7, sl}
 128:	08770002 	ldmdaeq	r7!, {r1}^
	...
 134:	08000308 	stmdaeq	r0, {r3, r8, r9}
 138:	0800030a 	stmdaeq	r0, {r1, r3, r8, r9}
 13c:	007d0002 	rsbseq	r0, sp, r2
 140:	0800030a 	stmdaeq	r0, {r1, r3, r8, r9}
 144:	0800030c 	stmdaeq	r0, {r2, r3, r8, r9}
 148:	087d0002 	ldmdaeq	sp!, {r1}^
 14c:	0800030c 	stmdaeq	r0, {r2, r3, r8, r9}
 150:	0800030e 	stmdaeq	r0, {r1, r2, r3, r8, r9}
 154:	187d0002 	ldmdane	sp!, {r1}^
 158:	0800030e 	stmdaeq	r0, {r1, r2, r3, r8, r9}
 15c:	08000498 	stmdaeq	r0, {r3, r4, r7, sl}
 160:	18770002 	ldmdane	r7!, {r1}^
 164:	08000498 	stmdaeq	r0, {r3, r4, r7, sl}
 168:	0800049a 	stmdaeq	r0, {r1, r3, r4, r7, sl}
 16c:	08770002 	ldmdaeq	r7!, {r1}^
 170:	0800049a 	stmdaeq	r0, {r1, r3, r4, r7, sl}
 174:	080004b8 	stmdaeq	r0, {r3, r4, r5, r7, sl}
 178:	087d0002 	ldmdaeq	sp!, {r1}^
	...
 184:	0800023c 	stmdaeq	r0, {r2, r3, r4, r5, r9}
 188:	0800023e 	stmdaeq	r0, {r1, r2, r3, r4, r5, r9}
 18c:	007d0002 	rsbseq	r0, sp, r2
 190:	0800023e 	stmdaeq	r0, {r1, r2, r3, r4, r5, r9}
 194:	08000240 	stmdaeq	r0, {r6, r9}
 198:	047d0002 	ldrbteq	r0, [sp], #-2
 19c:	08000240 	stmdaeq	r0, {r6, r9}
 1a0:	08000242 	stmdaeq	r0, {r1, r6, r9}
 1a4:	107d0002 	rsbsne	r0, sp, r2
 1a8:	08000242 	stmdaeq	r0, {r1, r6, r9}
 1ac:	080002fa 	stmdaeq	r0, {r1, r3, r4, r5, r6, r7, r9}
 1b0:	10770002 	rsbsne	r0, r7, r2
 1b4:	080002fa 	stmdaeq	r0, {r1, r3, r4, r5, r6, r7, r9}
 1b8:	080002fc 	stmdaeq	r0, {r2, r3, r4, r5, r6, r7, r9}
 1bc:	04770002 	ldrbteq	r0, [r7], #-2
 1c0:	080002fc 	stmdaeq	r0, {r2, r3, r4, r5, r6, r7, r9}
 1c4:	080002fe 	stmdaeq	r0, {r1, r2, r3, r4, r5, r6, r7, r9}
 1c8:	047d0002 	ldrbteq	r0, [sp], #-2
 1cc:	080002fe 	stmdaeq	r0, {r1, r2, r3, r4, r5, r6, r7, r9}
 1d0:	08000308 	stmdaeq	r0, {r3, r8, r9}
 1d4:	007d0002 	rsbseq	r0, sp, r2
	...
 1e0:	08000170 	stmdaeq	r0, {r4, r5, r6, r8}
 1e4:	08000172 	stmdaeq	r0, {r1, r4, r5, r6, r8}
 1e8:	007d0002 	rsbseq	r0, sp, r2
 1ec:	08000172 	stmdaeq	r0, {r1, r4, r5, r6, r8}
 1f0:	08000174 	stmdaeq	r0, {r2, r4, r5, r6, r8}
 1f4:	047d0002 	ldrbteq	r0, [sp], #-2
 1f8:	08000174 	stmdaeq	r0, {r2, r4, r5, r6, r8}
 1fc:	08000176 	stmdaeq	r0, {r1, r2, r4, r5, r6, r8}
 200:	107d0002 	rsbsne	r0, sp, r2
 204:	08000176 	stmdaeq	r0, {r1, r2, r4, r5, r6, r8}
 208:	0800022e 	stmdaeq	r0, {r1, r2, r3, r5, r9}
 20c:	10770002 	rsbsne	r0, r7, r2
 210:	0800022e 	stmdaeq	r0, {r1, r2, r3, r5, r9}
 214:	08000230 	stmdaeq	r0, {r4, r5, r9}
 218:	04770002 	ldrbteq	r0, [r7], #-2
 21c:	08000230 	stmdaeq	r0, {r4, r5, r9}
 220:	08000232 	stmdaeq	r0, {r1, r4, r5, r9}
 224:	047d0002 	ldrbteq	r0, [sp], #-2
 228:	08000232 	stmdaeq	r0, {r1, r4, r5, r9}
 22c:	0800023c 	stmdaeq	r0, {r2, r3, r4, r5, r9}
 230:	007d0002 	rsbseq	r0, sp, r2
	...
 244:	007d0002 	rsbseq	r0, sp, r2
	...
 250:	047d0002 	ldrbteq	r0, [sp], #-2
	...
 25c:	107d0002 	rsbsne	r0, sp, r2
	...
 268:	10770002 	rsbsne	r0, r7, r2
	...
 274:	04770002 	ldrbteq	r0, [r7], #-2
	...
 280:	047d0002 	ldrbteq	r0, [sp], #-2
	...
 28c:	007d0002 	rsbseq	r0, sp, r2
	...
 2a0:	007d0002 	rsbseq	r0, sp, r2
	...
 2ac:	047d0002 	ldrbteq	r0, [sp], #-2
	...
 2b8:	187d0002 	ldmdane	sp!, {r1}^
	...
 2c4:	18770002 	ldmdane	r7!, {r1}^
	...
 2d0:	04770002 	ldrbteq	r0, [r7], #-2
	...
 2dc:	047d0002 	ldrbteq	r0, [sp], #-2
	...
 2e8:	007d0002 	rsbseq	r0, sp, r2
	...
 2fc:	007d0002 	rsbseq	r0, sp, r2
	...
 308:	047d0002 	ldrbteq	r0, [sp], #-2
	...
 314:	107d0002 	rsbsne	r0, sp, r2
	...
 320:	10770002 	rsbsne	r0, r7, r2
	...
 32c:	04770002 	ldrbteq	r0, [r7], #-2
	...
 338:	047d0002 	ldrbteq	r0, [sp], #-2
	...
 344:	007d0002 	rsbseq	r0, sp, r2
	...
 358:	007d0002 	rsbseq	r0, sp, r2
	...
 364:	047d0002 	ldrbteq	r0, [sp], #-2
	...
 370:	107d0002 	rsbsne	r0, sp, r2
	...
 37c:	10770002 	rsbsne	r0, r7, r2
	...
 388:	04770002 	ldrbteq	r0, [r7], #-2
	...
 394:	047d0002 	ldrbteq	r0, [sp], #-2
	...
 3a0:	007d0002 	rsbseq	r0, sp, r2
	...
 3b4:	007d0002 	rsbseq	r0, sp, r2
	...
 3c0:	047d0002 	ldrbteq	r0, [sp], #-2
	...
 3cc:	107d0002 	rsbsne	r0, sp, r2
	...
 3d8:	10770002 	rsbsne	r0, r7, r2
	...
 3e4:	04770002 	ldrbteq	r0, [r7], #-2
	...
 3f0:	047d0002 	ldrbteq	r0, [sp], #-2
	...
 3fc:	007d0002 	rsbseq	r0, sp, r2
	...
 410:	007d0002 	rsbseq	r0, sp, r2
	...
 41c:	047d0002 	ldrbteq	r0, [sp], #-2
	...
 428:	107d0002 	rsbsne	r0, sp, r2
	...
 434:	10770002 	rsbsne	r0, r7, r2
	...
 440:	04770002 	ldrbteq	r0, [r7], #-2
	...
 44c:	047d0002 	ldrbteq	r0, [sp], #-2
	...
 458:	007d0002 	rsbseq	r0, sp, r2
	...
 46c:	007d0002 	rsbseq	r0, sp, r2
	...
 478:	047d0002 	ldrbteq	r0, [sp], #-2
	...
 484:	107d0002 	rsbsne	r0, sp, r2
	...
 490:	10770002 	rsbsne	r0, r7, r2
	...
 49c:	04770002 	ldrbteq	r0, [r7], #-2
	...
 4a8:	047d0002 	ldrbteq	r0, [sp], #-2
	...
 4b4:	007d0002 	rsbseq	r0, sp, r2
	...
 4c8:	007d0002 	rsbseq	r0, sp, r2
	...
 4d4:	047d0002 	ldrbteq	r0, [sp], #-2
	...
 4e0:	107d0002 	rsbsne	r0, sp, r2
	...
 4ec:	10770002 	rsbsne	r0, r7, r2
	...
 4f8:	04770002 	ldrbteq	r0, [r7], #-2
	...
 504:	047d0002 	ldrbteq	r0, [sp], #-2
	...
 510:	007d0002 	rsbseq	r0, sp, r2
	...
 51c:	08000708 	stmdaeq	r0, {r3, r8, r9, sl}
 520:	0800070a 	stmdaeq	r0, {r1, r3, r8, r9, sl}
 524:	007d0002 	rsbseq	r0, sp, r2
 528:	0800070a 	stmdaeq	r0, {r1, r3, r8, r9, sl}
 52c:	0800070c 	stmdaeq	r0, {r2, r3, r8, r9, sl}
 530:	0c7d0002 	ldcleq	0, cr0, [sp], #-8
 534:	0800070c 	stmdaeq	r0, {r2, r3, r8, r9, sl}
 538:	0800070e 	stmdaeq	r0, {r1, r2, r3, r8, r9, sl}
 53c:	207d0002 	rsbscs	r0, sp, r2
 540:	0800070e 	stmdaeq	r0, {r1, r2, r3, r8, r9, sl}
 544:	08000852 	stmdaeq	r0, {r1, r4, r6, fp}
 548:	20770002 	rsbscs	r0, r7, r2
 54c:	08000852 	stmdaeq	r0, {r1, r4, r6, fp}
 550:	08000854 	stmdaeq	r0, {r2, r4, r6, fp}
 554:	0c770002 	ldcleq	0, cr0, [r7], #-8
 558:	08000854 	stmdaeq	r0, {r2, r4, r6, fp}
 55c:	08000856 	stmdaeq	r0, {r1, r2, r4, r6, fp}
 560:	0c7d0002 	ldcleq	0, cr0, [sp], #-8
	...
 56c:	080006d8 	stmdaeq	r0, {r3, r4, r6, r7, r9, sl}
 570:	080006da 	stmdaeq	r0, {r1, r3, r4, r6, r7, r9, sl}
 574:	007d0002 	rsbseq	r0, sp, r2
 578:	080006da 	stmdaeq	r0, {r1, r3, r4, r6, r7, r9, sl}
 57c:	080006dc 	stmdaeq	r0, {r2, r3, r4, r6, r7, r9, sl}
 580:	047d0002 	ldrbteq	r0, [sp], #-2
 584:	080006dc 	stmdaeq	r0, {r2, r3, r4, r6, r7, r9, sl}
 588:	080006de 	stmdaeq	r0, {r1, r2, r3, r4, r6, r7, r9, sl}
 58c:	187d0002 	ldmdane	sp!, {r1}^
 590:	080006de 	stmdaeq	r0, {r1, r2, r3, r4, r6, r7, r9, sl}
 594:	08000702 	stmdaeq	r0, {r1, r8, r9, sl}
 598:	18770002 	ldmdane	r7!, {r1}^
 59c:	08000702 	stmdaeq	r0, {r1, r8, r9, sl}
 5a0:	08000704 	stmdaeq	r0, {r2, r8, r9, sl}
 5a4:	04770002 	ldrbteq	r0, [r7], #-2
 5a8:	08000704 	stmdaeq	r0, {r2, r8, r9, sl}
 5ac:	08000706 	stmdaeq	r0, {r1, r2, r8, r9, sl}
 5b0:	047d0002 	ldrbteq	r0, [sp], #-2
 5b4:	08000706 	stmdaeq	r0, {r1, r2, r8, r9, sl}
 5b8:	08000708 	stmdaeq	r0, {r3, r8, r9, sl}
 5bc:	007d0002 	rsbseq	r0, sp, r2
	...
 5c8:	080009f0 	stmdaeq	r0, {r4, r5, r6, r7, r8, fp}
 5cc:	080009f2 	stmdaeq	r0, {r1, r4, r5, r6, r7, r8, fp}
 5d0:	007d0002 	rsbseq	r0, sp, r2
 5d4:	080009f2 	stmdaeq	r0, {r1, r4, r5, r6, r7, r8, fp}
 5d8:	080009f4 	stmdaeq	r0, {r2, r4, r5, r6, r7, r8, fp}
 5dc:	087d0002 	ldmdaeq	sp!, {r1}^
 5e0:	080009f4 	stmdaeq	r0, {r2, r4, r5, r6, r7, r8, fp}
 5e4:	080009f6 	stmdaeq	r0, {r1, r2, r4, r5, r6, r7, r8, fp}
 5e8:	287d0002 	ldmdacs	sp!, {r1}^
 5ec:	080009f6 	stmdaeq	r0, {r1, r2, r4, r5, r6, r7, r8, fp}
 5f0:	08000a48 	stmdaeq	r0, {r3, r6, r9, fp}
 5f4:	28770002 	ldmdacs	r7!, {r1}^
	...
 600:	080009bc 	stmdaeq	r0, {r2, r3, r4, r5, r7, r8, fp}
 604:	080009be 	stmdaeq	r0, {r1, r2, r3, r4, r5, r7, r8, fp}
 608:	007d0002 	rsbseq	r0, sp, r2
 60c:	080009be 	stmdaeq	r0, {r1, r2, r3, r4, r5, r7, r8, fp}
 610:	080009c0 	stmdaeq	r0, {r6, r7, r8, fp}
 614:	047d0002 	ldrbteq	r0, [sp], #-2
 618:	080009c0 	stmdaeq	r0, {r6, r7, r8, fp}
 61c:	080009e8 	stmdaeq	r0, {r3, r5, r6, r7, r8, fp}
 620:	04770002 	ldrbteq	r0, [r7], #-2
 624:	080009e8 	stmdaeq	r0, {r3, r5, r6, r7, r8, fp}
 628:	080009ea 	stmdaeq	r0, {r1, r3, r5, r6, r7, r8, fp}
 62c:	047d0002 	ldrbteq	r0, [sp], #-2
 630:	080009ea 	stmdaeq	r0, {r1, r3, r5, r6, r7, r8, fp}
 634:	080009f0 	stmdaeq	r0, {r4, r5, r6, r7, r8, fp}
 638:	007d0002 	rsbseq	r0, sp, r2
	...
 644:	0800098c 	stmdaeq	r0, {r2, r3, r7, r8, fp}
 648:	0800098e 	stmdaeq	r0, {r1, r2, r3, r7, r8, fp}
 64c:	007d0002 	rsbseq	r0, sp, r2
 650:	0800098e 	stmdaeq	r0, {r1, r2, r3, r7, r8, fp}
 654:	08000990 	stmdaeq	r0, {r4, r7, r8, fp}
 658:	047d0002 	ldrbteq	r0, [sp], #-2
 65c:	08000990 	stmdaeq	r0, {r4, r7, r8, fp}
 660:	080009b2 	stmdaeq	r0, {r1, r4, r5, r7, r8, fp}
 664:	04770002 	ldrbteq	r0, [r7], #-2
 668:	080009b2 	stmdaeq	r0, {r1, r4, r5, r7, r8, fp}
 66c:	080009b4 	stmdaeq	r0, {r2, r4, r5, r7, r8, fp}
 670:	047d0002 	ldrbteq	r0, [sp], #-2
 674:	080009b4 	stmdaeq	r0, {r2, r4, r5, r7, r8, fp}
 678:	080009bc 	stmdaeq	r0, {r2, r3, r4, r5, r7, r8, fp}
 67c:	007d0002 	rsbseq	r0, sp, r2
	...
 688:	080008a8 	stmdaeq	r0, {r3, r5, r7, fp}
 68c:	080008aa 	stmdaeq	r0, {r1, r3, r5, r7, fp}
 690:	007d0002 	rsbseq	r0, sp, r2
 694:	080008aa 	stmdaeq	r0, {r1, r3, r5, r7, fp}
 698:	080008ac 	stmdaeq	r0, {r2, r3, r5, r7, fp}
 69c:	087d0002 	ldmdaeq	sp!, {r1}^
 6a0:	080008ac 	stmdaeq	r0, {r2, r3, r5, r7, fp}
 6a4:	0800098c 	stmdaeq	r0, {r2, r3, r7, r8, fp}
 6a8:	08770002 	ldmdaeq	r7!, {r1}^
	...
 6b4:	08000890 	stmdaeq	r0, {r4, r7, fp}
 6b8:	08000892 	stmdaeq	r0, {r1, r4, r7, fp}
 6bc:	007d0002 	rsbseq	r0, sp, r2
 6c0:	08000892 	stmdaeq	r0, {r1, r4, r7, fp}
 6c4:	08000894 	stmdaeq	r0, {r2, r4, r7, fp}
 6c8:	047d0002 	ldrbteq	r0, [sp], #-2
 6cc:	08000894 	stmdaeq	r0, {r2, r4, r7, fp}
 6d0:	080008a4 	stmdaeq	r0, {r2, r5, r7, fp}
 6d4:	04770002 	ldrbteq	r0, [r7], #-2
 6d8:	080008a4 	stmdaeq	r0, {r2, r5, r7, fp}
 6dc:	080008a6 	stmdaeq	r0, {r1, r2, r5, r7, fp}
 6e0:	047d0002 	ldrbteq	r0, [sp], #-2
 6e4:	080008a6 	stmdaeq	r0, {r1, r2, r5, r7, fp}
 6e8:	080008a8 	stmdaeq	r0, {r3, r5, r7, fp}
 6ec:	007d0002 	rsbseq	r0, sp, r2
	...
 6f8:	08000876 	stmdaeq	r0, {r1, r2, r4, r5, r6, fp}
 6fc:	08000878 	stmdaeq	r0, {r3, r4, r5, r6, fp}
 700:	007d0002 	rsbseq	r0, sp, r2
 704:	08000878 	stmdaeq	r0, {r3, r4, r5, r6, fp}
 708:	0800087a 	stmdaeq	r0, {r1, r3, r4, r5, r6, fp}
 70c:	047d0002 	ldrbteq	r0, [sp], #-2
 710:	0800087a 	stmdaeq	r0, {r1, r3, r4, r5, r6, fp}
 714:	0800087c 	stmdaeq	r0, {r2, r3, r4, r5, r6, fp}
 718:	187d0002 	ldmdane	sp!, {r1}^
 71c:	0800087c 	stmdaeq	r0, {r2, r3, r4, r5, r6, fp}
 720:	0800088a 	stmdaeq	r0, {r1, r3, r7, fp}
 724:	18770002 	ldmdane	r7!, {r1}^
 728:	0800088a 	stmdaeq	r0, {r1, r3, r7, fp}
 72c:	0800088c 	stmdaeq	r0, {r2, r3, r7, fp}
 730:	04770002 	ldrbteq	r0, [r7], #-2
 734:	0800088c 	stmdaeq	r0, {r2, r3, r7, fp}
 738:	0800088e 	stmdaeq	r0, {r1, r2, r3, r7, fp}
 73c:	047d0002 	ldrbteq	r0, [sp], #-2
 740:	0800088e 	stmdaeq	r0, {r1, r2, r3, r7, fp}
 744:	08000890 	stmdaeq	r0, {r4, r7, fp}
 748:	007d0002 	rsbseq	r0, sp, r2
	...
 754:	08000856 	stmdaeq	r0, {r1, r2, r4, r6, fp}
 758:	08000858 	stmdaeq	r0, {r3, r4, r6, fp}
 75c:	007d0002 	rsbseq	r0, sp, r2
 760:	08000858 	stmdaeq	r0, {r3, r4, r6, fp}
 764:	0800085a 	stmdaeq	r0, {r1, r3, r4, r6, fp}
 768:	047d0002 	ldrbteq	r0, [sp], #-2
 76c:	0800085a 	stmdaeq	r0, {r1, r3, r4, r6, fp}
 770:	0800085c 	stmdaeq	r0, {r2, r3, r4, r6, fp}
 774:	187d0002 	ldmdane	sp!, {r1}^
 778:	0800085c 	stmdaeq	r0, {r2, r3, r4, r6, fp}
 77c:	08000870 	stmdaeq	r0, {r4, r5, r6, fp}
 780:	18770002 	ldmdane	r7!, {r1}^
 784:	08000870 	stmdaeq	r0, {r4, r5, r6, fp}
 788:	08000872 	stmdaeq	r0, {r1, r4, r5, r6, fp}
 78c:	04770002 	ldrbteq	r0, [r7], #-2
 790:	08000872 	stmdaeq	r0, {r1, r4, r5, r6, fp}
 794:	08000874 	stmdaeq	r0, {r2, r4, r5, r6, fp}
 798:	047d0002 	ldrbteq	r0, [sp], #-2
 79c:	08000874 	stmdaeq	r0, {r2, r4, r5, r6, fp}
 7a0:	08000876 	stmdaeq	r0, {r1, r2, r4, r5, r6, fp}
 7a4:	007d0002 	rsbseq	r0, sp, r2
	...

Disassembly of section .debug_aranges:

00000000 <.debug_aranges>:
   0:	00000064 	andeq	r0, r0, r4, rrx
   4:	00000002 	andeq	r0, r0, r2
   8:	00040000 	andeq	r0, r4, r0
   c:	00000000 	andeq	r0, r0, r0
  10:	08000170 	stmdaeq	r0, {r4, r5, r6, r8}
  14:	000000cc 	andeq	r0, r0, ip, asr #1
  18:	0800023c 	stmdaeq	r0, {r2, r3, r4, r5, r9}
  1c:	000000cc 	andeq	r0, r0, ip, asr #1
  20:	08000308 	stmdaeq	r0, {r3, r8, r9}
  24:	000001b0 			; <UNDEFINED> instruction: 0x000001b0
  28:	080004b8 	stmdaeq	r0, {r3, r4, r5, r7, sl}
  2c:	00000024 	andeq	r0, r0, r4, lsr #32
  30:	080004dc 	stmdaeq	r0, {r2, r3, r4, r6, r7, sl}
  34:	00000024 	andeq	r0, r0, r4, lsr #32
  38:	08000500 	stmdaeq	r0, {r8, sl}
  3c:	00000024 	andeq	r0, r0, r4, lsr #32
  40:	08000524 	stmdaeq	r0, {r2, r5, r8, sl}
  44:	00000024 	andeq	r0, r0, r4, lsr #32
  48:	08000548 	stmdaeq	r0, {r3, r6, r8, sl}
  4c:	00000024 	andeq	r0, r0, r4, lsr #32
  50:	0800056c 	stmdaeq	r0, {r2, r3, r5, r6, r8, sl}
  54:	000000a8 	andeq	r0, r0, r8, lsr #1
  58:	08000614 	stmdaeq	r0, {r2, r4, r9, sl}
  5c:	000000c4 	andeq	r0, r0, r4, asr #1
	...
  68:	00000064 	andeq	r0, r0, r4, rrx
  6c:	058a0002 	streq	r0, [sl, #2]
  70:	00040000 	andeq	r0, r4, r0
  74:	00000000 	andeq	r0, r0, r0
  78:	080006d8 	stmdaeq	r0, {r3, r4, r6, r7, r9, sl}
  7c:	00000030 	andeq	r0, r0, r0, lsr r0
  80:	08000708 	stmdaeq	r0, {r3, r8, r9, sl}
  84:	0000014e 	andeq	r0, r0, lr, asr #2
  88:	00000000 	andeq	r0, r0, r0
  8c:	000000d4 	ldrdeq	r0, [r0], -r4
  90:	00000000 	andeq	r0, r0, r0
  94:	00000050 	andeq	r0, r0, r0, asr r0
  98:	00000000 	andeq	r0, r0, r0
  9c:	00000020 	andeq	r0, r0, r0, lsr #32
  a0:	00000000 	andeq	r0, r0, r0
  a4:	0000002c 	andeq	r0, r0, ip, lsr #32
  a8:	00000000 	andeq	r0, r0, r0
  ac:	00000018 	andeq	r0, r0, r8, lsl r0
  b0:	00000000 	andeq	r0, r0, r0
  b4:	0000002c 	andeq	r0, r0, ip, lsr #32
  b8:	00000000 	andeq	r0, r0, r0
  bc:	00000088 	andeq	r0, r0, r8, lsl #1
  c0:	00000000 	andeq	r0, r0, r0
  c4:	0000003e 	andeq	r0, r0, lr, lsr r0
	...
  d0:	0000004c 	andeq	r0, r0, ip, asr #32
  d4:	0b100002 	bleq	4000e4 <_Min_Stack_Size+0x3ffce4>
  d8:	00040000 	andeq	r0, r4, r0
  dc:	00000000 	andeq	r0, r0, r0
  e0:	08000856 	stmdaeq	r0, {r1, r2, r4, r6, fp}
  e4:	00000020 	andeq	r0, r0, r0, lsr #32
  e8:	08000876 	stmdaeq	r0, {r1, r2, r4, r5, r6, fp}
  ec:	0000001a 	andeq	r0, r0, sl, lsl r0
  f0:	08000890 	stmdaeq	r0, {r4, r7, fp}
  f4:	00000018 	andeq	r0, r0, r8, lsl r0
  f8:	080008a8 	stmdaeq	r0, {r3, r5, r7, fp}
  fc:	000000e4 	andeq	r0, r0, r4, ror #1
 100:	0800098c 	stmdaeq	r0, {r2, r3, r7, r8, fp}
 104:	00000030 	andeq	r0, r0, r0, lsr r0
 108:	080009bc 	stmdaeq	r0, {r2, r3, r4, r5, r7, r8, fp}
 10c:	00000034 	andeq	r0, r0, r4, lsr r0
 110:	080009f0 	stmdaeq	r0, {r4, r5, r6, r7, r8, fp}
 114:	00000058 	andeq	r0, r0, r8, asr r0
	...
 120:	00000024 	andeq	r0, r0, r4, lsr #32
 124:	10d80002 	sbcsne	r0, r8, r2
 128:	00040000 	andeq	r0, r4, r0
 12c:	00000000 	andeq	r0, r0, r0
 130:	08000a48 	stmdaeq	r0, {r3, r6, r9, fp}
 134:	00000050 	andeq	r0, r0, r0, asr r0
 138:	08000a98 	stmdaeq	r0, {r3, r4, r7, r9, fp}
 13c:	00000002 	andeq	r0, r0, r2
	...

Disassembly of section .debug_ranges:

00000000 <.debug_ranges>:
   0:	08000170 	stmdaeq	r0, {r4, r5, r6, r8}
   4:	0800023c 	stmdaeq	r0, {r2, r3, r4, r5, r9}
   8:	0800023c 	stmdaeq	r0, {r2, r3, r4, r5, r9}
   c:	08000308 	stmdaeq	r0, {r3, r8, r9}
  10:	08000308 	stmdaeq	r0, {r3, r8, r9}
  14:	080004b8 	stmdaeq	r0, {r3, r4, r5, r7, sl}
  18:	080004b8 	stmdaeq	r0, {r3, r4, r5, r7, sl}
  1c:	080004dc 	stmdaeq	r0, {r2, r3, r4, r6, r7, sl}
  20:	080004dc 	stmdaeq	r0, {r2, r3, r4, r6, r7, sl}
  24:	08000500 	stmdaeq	r0, {r8, sl}
  28:	08000500 	stmdaeq	r0, {r8, sl}
  2c:	08000524 	stmdaeq	r0, {r2, r5, r8, sl}
  30:	08000524 	stmdaeq	r0, {r2, r5, r8, sl}
  34:	08000548 	stmdaeq	r0, {r3, r6, r8, sl}
  38:	08000548 	stmdaeq	r0, {r3, r6, r8, sl}
  3c:	0800056c 	stmdaeq	r0, {r2, r3, r5, r6, r8, sl}
  40:	0800056c 	stmdaeq	r0, {r2, r3, r5, r6, r8, sl}
  44:	08000614 	stmdaeq	r0, {r2, r4, r9, sl}
  48:	08000614 	stmdaeq	r0, {r2, r4, r9, sl}
  4c:	080006d8 	stmdaeq	r0, {r3, r4, r6, r7, r9, sl}
	...
  58:	080006d8 	stmdaeq	r0, {r3, r4, r6, r7, r9, sl}
  5c:	08000708 	stmdaeq	r0, {r3, r8, r9, sl}
  60:	08000708 	stmdaeq	r0, {r3, r8, r9, sl}
  64:	08000856 	stmdaeq	r0, {r1, r2, r4, r6, fp}
  68:	00000001 	andeq	r0, r0, r1
  6c:	00000001 	andeq	r0, r0, r1
  70:	00000001 	andeq	r0, r0, r1
  74:	00000001 	andeq	r0, r0, r1
  78:	00000001 	andeq	r0, r0, r1
  7c:	00000001 	andeq	r0, r0, r1
  80:	00000001 	andeq	r0, r0, r1
  84:	00000001 	andeq	r0, r0, r1
  88:	00000001 	andeq	r0, r0, r1
  8c:	00000001 	andeq	r0, r0, r1
  90:	00000001 	andeq	r0, r0, r1
  94:	00000001 	andeq	r0, r0, r1
  98:	00000001 	andeq	r0, r0, r1
  9c:	00000001 	andeq	r0, r0, r1
  a0:	00000001 	andeq	r0, r0, r1
  a4:	00000001 	andeq	r0, r0, r1
	...
  b0:	08000856 	stmdaeq	r0, {r1, r2, r4, r6, fp}
  b4:	08000876 	stmdaeq	r0, {r1, r2, r4, r5, r6, fp}
  b8:	08000876 	stmdaeq	r0, {r1, r2, r4, r5, r6, fp}
  bc:	08000890 	stmdaeq	r0, {r4, r7, fp}
  c0:	08000890 	stmdaeq	r0, {r4, r7, fp}
  c4:	080008a8 	stmdaeq	r0, {r3, r5, r7, fp}
  c8:	080008a8 	stmdaeq	r0, {r3, r5, r7, fp}
  cc:	0800098c 	stmdaeq	r0, {r2, r3, r7, r8, fp}
  d0:	0800098c 	stmdaeq	r0, {r2, r3, r7, r8, fp}
  d4:	080009bc 	stmdaeq	r0, {r2, r3, r4, r5, r7, r8, fp}
  d8:	080009bc 	stmdaeq	r0, {r2, r3, r4, r5, r7, r8, fp}
  dc:	080009f0 	stmdaeq	r0, {r4, r5, r6, r7, r8, fp}
  e0:	080009f0 	stmdaeq	r0, {r4, r5, r6, r7, r8, fp}
  e4:	08000a48 	stmdaeq	r0, {r3, r6, r9, fp}
	...
  f0:	ffffffff 			; <UNDEFINED> instruction: 0xffffffff
  f4:	00000000 	andeq	r0, r0, r0
  f8:	08000a48 	stmdaeq	r0, {r3, r6, r9, fp}
  fc:	08000a98 	stmdaeq	r0, {r3, r4, r7, r9, fp}
 100:	08000a98 	stmdaeq	r0, {r3, r4, r7, r9, fp}
 104:	08000a9a 	stmdaeq	r0, {r1, r3, r4, r7, r9, fp}
	...

Disassembly of section .debug_macro:

00000000 <.debug_macro>:
   0:	00020004 	andeq	r0, r2, r4
   4:	07000000 	streq	r0, [r0, -r0]
   8:	00000000 	andeq	r0, r0, r0
   c:	03010003 	movweq	r0, #4099	; 0x1003
  10:	09050508 	stmdbeq	r5, {r3, r8, sl}
  14:	00000dc7 	andeq	r0, r0, r7, asr #27
  18:	07020e03 	streq	r0, [r2, -r3, lsl #28]
  1c:	00000000 	andeq	r0, r0, r0
  20:	040f0304 	streq	r0, [pc], #-772	; 28 <_Min_Heap_Size-0x1d8>
  24:	08fd0205 	ldmeq	sp!, {r0, r2, r9}^
  28:	06030000 	streq	r0, [r3], -r0
  2c:	e0090503 	and	r0, r9, r3, lsl #10
  30:	03000019 	movweq	r0, #25
  34:	0304020d 	movweq	r0, #16909	; 0x420d
  38:	0903060e 	stmdbeq	r3, {r1, r2, r3, r9, sl}
  3c:	db0a0507 	blle	281460 <_Min_Stack_Size+0x281060>
  40:	03000017 	movweq	r0, #23
  44:	0605080c 	streq	r0, [r5], -ip, lsl #16
  48:	000035dc 	ldrdeq	r3, [r0], -ip
  4c:	05090803 	streq	r0, [r9, #-2051]	; 0xfffff7fd
  50:	0015aa16 	andseq	sl, r5, r6, lsl sl
  54:	0a1c0300 	beq	700c5c <_Min_Stack_Size+0x70085c>
  58:	00000007 	andeq	r0, r0, r7
  5c:	00070400 	andeq	r0, r7, r0, lsl #8
  60:	04000000 	streq	r0, [r0], #-0
  64:	00000007 	andeq	r0, r0, r7
  68:	0d030400 	cfstrseq	mvf0, [r3, #-0]
  6c:	0000070b 	andeq	r0, r0, fp, lsl #14
  70:	03040000 	movweq	r0, #16384	; 0x4000
  74:	00070c0e 	andeq	r0, r7, lr, lsl #24
  78:	04000000 	streq	r0, [r0], #-0
  7c:	00000007 	andeq	r0, r0, r7
  80:	0d050400 	cfstrseq	mvf0, [r5, #-0]
  84:	000017d2 	ldrdeq	r1, [r0], -r2
  88:	00000704 	andeq	r0, r0, r4, lsl #14
  8c:	04040000 	streq	r0, [r4], #-0
  90:	00009807 	andeq	r9, r0, r7, lsl #16
  94:	00040400 	andeq	r0, r4, r0, lsl #8
  98:	05000004 	streq	r0, [r0, #-4]
  9c:	0050802e 	subseq	r8, r0, lr, lsr #32
  a0:	7b320500 	blvc	c814a8 <_Min_Stack_Size+0xc810a8>
  a4:	0500001c 	streq	r0, [r0, #-28]	; 0xffffffe4
  a8:	002e6433 	eoreq	r6, lr, r3, lsr r4
  ac:	cd340500 	cfldr32gt	mvfx0, [r4, #-0]
  b0:	05000040 	streq	r0, [r0, #-64]	; 0xffffffc0
  b4:	0051f835 	subseq	pc, r1, r5, lsr r8	; <UNPREDICTABLE>
  b8:	d8360500 	ldmdale	r6!, {r8, sl}
  bc:	0500000c 	streq	r0, [r0, #-12]
  c0:	001d2637 	andseq	r2, sp, r7, lsr r6
  c4:	54380500 	ldrtpl	r0, [r8], #-1280	; 0xfffffb00
  c8:	0500002f 	streq	r0, [r0, #-47]	; 0xffffffd1
  cc:	0041be39 	subeq	fp, r1, r9, lsr lr
  d0:	bf3a0500 	svclt	0x003a0500
  d4:	05000052 	streq	r0, [r0, #-82]	; 0xffffffae
  d8:	0039253b 	eorseq	r2, r9, fp, lsr r5
  dc:	1b3c0500 	blne	f014e4 <_Min_Stack_Size+0xf010e4>
  e0:	05000007 	streq	r0, [r0, #-7]
  e4:	0032793d 	eorseq	r7, r2, sp, lsr r9
  e8:	aa3e0500 	bge	f814f0 <_Min_Stack_Size+0xf810f0>
  ec:	05000007 	streq	r0, [r0, #-7]
  f0:	00336c3f 	eorseq	r6, r3, pc, lsr ip
  f4:	e4400500 	strb	r0, [r0], #-1280	; 0xfffffb00
  f8:	05000008 	streq	r0, [r0, #-8]
  fc:	0034af41 	eorseq	sl, r4, r1, asr #30
 100:	da440500 	ble	1101508 <_Min_Stack_Size+0x1101108>
 104:	05000044 	streq	r0, [r0, #-68]	; 0xffffffbc
 108:	00494345 	subeq	r4, r9, r5, asr #6
 10c:	25460500 	strbcs	r0, [r6, #-1280]	; 0xfffffb00
 110:	0500004d 	streq	r0, [r0, #-77]	; 0xffffffb3
 114:	00510647 	subseq	r0, r1, r7, asr #12
 118:	91480500 	cmpls	r8, r0, lsl #10
 11c:	0500000b 	streq	r0, [r0, #-11]
 120:	0047cf49 	subeq	ip, r7, r9, asr #30
 124:	244a0500 	strbcs	r0, [sl], #-1280	; 0xfffffb00
 128:	05000023 	streq	r0, [r0, #-35]	; 0xffffffdd
 12c:	0007704b 	andeq	r7, r7, fp, asr #32
 130:	064c0500 	strbeq	r0, [ip], -r0, lsl #10
 134:	05000040 	streq	r0, [r0, #-64]	; 0xffffffc0
 138:	001d964d 	andseq	r9, sp, sp, asr #12
 13c:	b74e0500 	strblt	r0, [lr, -r0, lsl #10]
 140:	0500000a 	streq	r0, [r0, #-10]
 144:	0042b14f 	subeq	fp, r2, pc, asr #2
 148:	a3500500 	cmpge	r0, #0, 10
 14c:	05000021 	streq	r0, [r0, #-33]	; 0xffffffdf
 150:	0055c651 	subseq	ip, r5, r1, asr r6
 154:	d4520500 	ldrble	r0, [r2], #-1280	; 0xfffffb00
 158:	05000038 	streq	r0, [r0, #-56]	; 0xffffffc8
 15c:	001ca453 	andseq	sl, ip, r3, asr r4
 160:	dd550500 	cfldr64le	mvdx0, [r5, #-0]
 164:	05000049 	streq	r0, [r0, #-73]	; 0xffffffb7
 168:	0021e056 	eoreq	lr, r1, r6, asr r0
 16c:	f8570500 			; <UNDEFINED> instruction: 0xf8570500
 170:	05000052 	streq	r0, [r0, #-82]	; 0xffffffae
 174:	00124058 	andseq	r4, r2, r8, asr r0
 178:	8b590500 	blhi	1641580 <_Min_Stack_Size+0x1641180>
 17c:	0500003a 	streq	r0, [r0, #-58]	; 0xffffffc6
 180:	0033425a 	eorseq	r4, r3, sl, asr r2
 184:	b65b0500 	ldrblt	r0, [fp], -r0, lsl #10
 188:	0500001f 	streq	r0, [r0, #-31]	; 0xffffffe1
 18c:	0032105c 	eorseq	r1, r2, ip, asr r0
 190:	7e5d0500 	cdpvc	5, 5, cr0, cr13, cr0, {0}
 194:	05000043 	streq	r0, [r0, #-67]	; 0xffffffbd
 198:	0018a15e 	andseq	sl, r8, lr, asr r1
 19c:	ff5f0500 			; <UNDEFINED> instruction: 0xff5f0500
 1a0:	05000023 	streq	r0, [r0, #-35]	; 0xffffffdd
 1a4:	0041d460 	subeq	sp, r1, r0, ror #8
 1a8:	4c610500 	cfstr64mi	mvdx0, [r1], #-0
 1ac:	05000007 	streq	r0, [r0, #-7]
 1b0:	00155e62 	andseq	r5, r5, r2, ror #28
 1b4:	ab630500 	blge	18c15bc <_Min_Stack_Size+0x18c11bc>
 1b8:	05000047 	streq	r0, [r0, #-71]	; 0xffffffb9
 1bc:	0015bb64 	andseq	fp, r5, r4, ror #22
 1c0:	43660500 	cmnmi	r6, #0, 10
 1c4:	05000041 	streq	r0, [r0, #-65]	; 0xffffffbf
 1c8:	0054e767 	subseq	lr, r4, r7, ror #14
 1cc:	c2680500 	rsbgt	r0, r8, #0, 10
 1d0:	05000026 	streq	r0, [r0, #-38]	; 0xffffffda
 1d4:	0038aa69 	eorseq	sl, r8, r9, ror #20
 1d8:	4f6a0500 	svcmi	0x006a0500
 1dc:	0500000f 	streq	r0, [r0, #-15]
 1e0:	0021496b 	eoreq	r4, r1, fp, ror #18
 1e4:	ed6c0500 	cfstr64	mvdx0, [ip, #-0]
 1e8:	0500002f 	streq	r0, [r0, #-47]	; 0xffffffd1
 1ec:	0006d66d 	andeq	sp, r6, sp, ror #12
 1f0:	2c6e0500 	cfstr64cs	mvdx0, [lr], #-0
 1f4:	05000017 	streq	r0, [r0, #-23]	; 0xffffffe9
 1f8:	00279e6f 	eoreq	r9, r7, pc, ror #28
 1fc:	f3700500 	vrshl.u64	d16, d0, d0
 200:	05000022 	streq	r0, [r0, #-34]	; 0xffffffde
 204:	0037e771 	eorseq	lr, r7, r1, ror r7
 208:	33720500 	cmncc	r2, #0, 10
 20c:	0500003a 	streq	r0, [r0, #-58]	; 0xffffffc6
 210:	0046cd73 	subeq	ip, r6, r3, ror sp
 214:	be740500 	cdplt	5, 7, cr0, cr4, cr0, {0}
 218:	05000024 	streq	r0, [r0, #-36]	; 0xffffffdc
 21c:	00555b75 	subseq	r5, r5, r5, ror fp
 220:	35790500 	ldrbcc	r0, [r9, #-1280]!	; 0xfffffb00
 224:	05000010 	streq	r0, [r0, #-16]
 228:	003cf67a 	eorseq	pc, ip, sl, ror r6	; <UNPREDICTABLE>
 22c:	8a7b0500 	bhi	1ec1634 <_Min_Stack_Size+0x1ec1234>
 230:	05000006 	streq	r0, [r0, #-6]
 234:	001e5e7c 	andseq	r5, lr, ip, ror lr
 238:	01810500 	orreq	r0, r1, r0, lsl #10
 23c:	0000494e 	andeq	r4, r0, lr, asr #18
 240:	b4018205 	strlt	r8, [r1], #-517	; 0xfffffdfb
 244:	05000053 	streq	r0, [r0, #-83]	; 0xffffffad
 248:	39640183 	stmdbcc	r4!, {r0, r1, r7, r8}^
 24c:	84050000 	strhi	r0, [r5], #-0
 250:	003e6701 	eorseq	r6, lr, r1, lsl #14
 254:	01890500 	orreq	r0, r9, r0, lsl #10
 258:	00003192 	muleq	r0, r2, r1
 25c:	57018a05 	strpl	r8, [r1, -r5, lsl #20]
 260:	0500003a 	streq	r0, [r0, #-58]	; 0xffffffc6
 264:	4a50018b 	bmi	1400898 <_Min_Stack_Size+0x1400498>
 268:	8c050000 	stchi	0, cr0, [r5], {-0}
 26c:	001de401 	andseq	lr, sp, r1, lsl #8
 270:	01910500 	orrseq	r0, r1, r0, lsl #10
 274:	000048ea 	andeq	r4, r0, sl, ror #17
 278:	64019205 	strvs	r9, [r1], #-517	; 0xfffffdfb
 27c:	05000037 	streq	r0, [r0, #-55]	; 0xffffffc9
 280:	10cf0193 	smullne	r0, pc, r3, r1	; <UNPREDICTABLE>
 284:	94050000 	strls	r0, [r5], #-0
 288:	00026501 	andeq	r6, r2, r1, lsl #10
 28c:	01990500 	orrseq	r0, r9, r0, lsl #10
 290:	0000292d 	andeq	r2, r0, sp, lsr #18
 294:	e4019a05 	str	r9, [r1], #-2565	; 0xfffff5fb
 298:	05000040 	streq	r0, [r0, #-64]	; 0xffffffc0
 29c:	49a9019b 	stmibmi	r9!, {r0, r1, r3, r4, r7, r8}
 2a0:	9c050000 	stcls	0, cr0, [r5], {-0}
 2a4:	0036ab01 	eorseq	sl, r6, r1, lsl #22
 2a8:	01a10500 			; <UNDEFINED> instruction: 0x01a10500
 2ac:	00003876 	andeq	r3, r0, r6, ror r8
 2b0:	f101a205 			; <UNDEFINED> instruction: 0xf101a205
 2b4:	05000038 	streq	r0, [r0, #-56]	; 0xffffffc8
 2b8:	2a0b01a3 	bcs	2c094c <_Min_Stack_Size+0x2c054c>
 2bc:	a4050000 	strge	r0, [r5], #-0
 2c0:	001c0601 	andseq	r0, ip, r1, lsl #12
 2c4:	01a90500 			; <UNDEFINED> instruction: 0x01a90500
 2c8:	0000466b 	andeq	r4, r0, fp, ror #12
 2cc:	4e01aa05 	vmlami.f32	s20, s2, s10
 2d0:	0500001a 	streq	r0, [r0, #-26]	; 0xffffffe6
 2d4:	0d3d01ab 	ldfeqs	f0, [sp, #-684]!	; 0xfffffd54
 2d8:	ac050000 	stcge	0, cr0, [r5], {-0}
 2dc:	00563c01 	subseq	r3, r6, r1, lsl #24
 2e0:	01b10500 			; <UNDEFINED> instruction: 0x01b10500
 2e4:	0000120c 	andeq	r1, r0, ip, lsl #4
 2e8:	e801b205 	stmda	r1, {r0, r2, r9, ip, sp, pc}
 2ec:	05000053 	streq	r0, [r0, #-83]	; 0xffffffad
 2f0:	3f3301b3 	svccc	0x003301b3
 2f4:	b4050000 	strlt	r0, [r5], #-0
 2f8:	001b6701 	andseq	r6, fp, r1, lsl #14
 2fc:	01b90500 			; <UNDEFINED> instruction: 0x01b90500
 300:	000045cc 	andeq	r4, r0, ip, asr #11
 304:	7701ba05 	strvc	fp, [r1, -r5, lsl #20]
 308:	05000036 	streq	r0, [r0, #-54]	; 0xffffffca
 30c:	27e601bb 			; <UNDEFINED> instruction: 0x27e601bb
 310:	bc050000 	stclt	0, cr0, [r5], {-0}
 314:	00559201 	subseq	r9, r5, r1, lsl #4
 318:	01c10500 	biceq	r0, r1, r0, lsl #10
 31c:	00004403 	andeq	r4, r0, r3, lsl #8
 320:	4c01c205 	sfmmi	f4, 1, [r1], {5}
 324:	05000018 	streq	r0, [r0, #-24]	; 0xffffffe8
 328:	006301c3 	rsbeq	r0, r3, r3, asr #3
 32c:	c4050000 	strgt	r0, [r5], #-0
 330:	00082701 	andeq	r2, r8, r1, lsl #14
 334:	01c90500 	biceq	r0, r9, r0, lsl #10
 338:	00001069 	andeq	r1, r0, r9, rrx
 33c:	0401ca05 	streq	ip, [r1], #-2565	; 0xfffff5fb
 340:	0500004f 	streq	r0, [r0, #-79]	; 0xffffffb1
 344:	3bb101cb 	blcc	fec40a78 <_estack+0xdec3e278>
 348:	cc050000 	stcgt	0, cr0, [r5], {-0}
 34c:	002caa01 	eoreq	sl, ip, r1, lsl #20
 350:	01d10500 	bicseq	r0, r1, r0, lsl #10
 354:	00002f5c 	andeq	r2, r0, ip, asr pc
 358:	ac01d205 	sfmge	f5, 1, [r1], {5}
 35c:	0500003e 	streq	r0, [r0, #-62]	; 0xffffffc2
 360:	270101d3 			; <UNDEFINED> instruction: 0x270101d3
 364:	d4050000 	strle	r0, [r5], #-0
 368:	00135e01 	andseq	r5, r3, r1, lsl #28
 36c:	01d90500 	bicseq	r0, r9, r0, lsl #10
 370:	0000541c 	andeq	r5, r0, ip, lsl r4
 374:	cf01da05 	svcgt	0x0001da05
 378:	0500000e 	streq	r0, [r0, #-14]
 37c:	2ce301db 	stfcse	f0, [r3], #876	; 0x36c
 380:	dc050000 	stcle	0, cr0, [r5], {-0}
 384:	0033a401 	eorseq	sl, r3, r1, lsl #8
 388:	01e10500 	mvneq	r0, r0, lsl #10
 38c:	0000118d 	andeq	r1, r0, sp, lsl #3
 390:	4b01e205 	blmi	78bac <_Min_Stack_Size+0x787ac>
 394:	05000051 	streq	r0, [r0, #-81]	; 0xffffffaf
 398:	3cbd01e3 	ldfccs	f0, [sp], #908	; 0x38c
 39c:	e4050000 	str	r0, [r5], #-0
 3a0:	0054ae01 	subseq	sl, r4, r1, lsl #28
 3a4:	01e90500 	mvneq	r0, r0, lsl #10
 3a8:	0000472d 	andeq	r4, r0, sp, lsr #14
 3ac:	8f01ea05 	svchi	0x0001ea05
 3b0:	0500003f 	streq	r0, [r0, #-63]	; 0xffffffc1
 3b4:	281a01eb 	ldmdacs	sl, {r0, r1, r3, r5, r6, r7, r8}
 3b8:	ec050000 	stc	0, cr0, [r5], {-0}
 3bc:	00361801 	eorseq	r1, r6, r1, lsl #16
 3c0:	01f10500 	mvnseq	r0, r0, lsl #10
 3c4:	00002376 	andeq	r2, r0, r6, ror r3
 3c8:	3801f205 	stmdacc	r1, {r0, r2, r9, ip, sp, lr, pc}
 3cc:	05000048 	streq	r0, [r0, #-72]	; 0xffffffb8
 3d0:	431601f3 	tstmi	r6, #-1073741764	; 0xc000003c
 3d4:	f4050000 	vst4.8	{d0-d3}, [r5], r0
 3d8:	003acd01 	eorseq	ip, sl, r1, lsl #26
 3dc:	00040000 	andeq	r0, r4, r0
 3e0:	0007cd02 	andeq	ip, r7, r2, lsl #26
 3e4:	00000700 	andeq	r0, r0, r0, lsl #14
 3e8:	00030000 	andeq	r0, r3, r0
 3ec:	04090301 	streq	r0, [r9], #-769	; 0xfffffcff
 3f0:	08fd0205 	ldmeq	sp!, {r0, r2, r9}^
 3f4:	06030000 	streq	r0, [r3], -r0
 3f8:	e0090503 	and	r0, r9, r3, lsl #10
 3fc:	03000019 	movweq	r0, #25
 400:	0007020d 	andeq	r0, r7, sp, lsl #4
 404:	04000000 	streq	r0, [r0], #-0
 408:	03050e03 	movweq	r0, #24067	; 0x5e03
 40c:	0a050609 	beq	141c38 <_Min_Stack_Size+0x141838>
 410:	000017db 	ldrdeq	r1, [r0], -fp
 414:	05070c03 	streq	r0, [r7, #-3075]	; 0xfffff3fd
 418:	0035dc06 	eorseq	sp, r5, r6, lsl #24
 41c:	08080300 	stmdaeq	r8, {r8, r9}
 420:	15aa1605 	strne	r1, [sl, #1541]!	; 0x605
 424:	1c030000 	stcne	0, cr0, [r3], {-0}
 428:	00000709 	andeq	r0, r0, r9, lsl #14
 42c:	07040000 	streq	r0, [r4, -r0]
 430:	00000000 	andeq	r0, r0, r0
 434:	00000704 	andeq	r0, r0, r4, lsl #14
 438:	03040000 	movweq	r0, #16384	; 0x4000
 43c:	00070a0d 	andeq	r0, r7, sp, lsl #20
 440:	04000000 	streq	r0, [r0], #-0
 444:	070b0e03 	streq	r0, [fp, -r3, lsl #28]
 448:	00000000 	andeq	r0, r0, r0
 44c:	00000704 	andeq	r0, r0, r4, lsl #14
 450:	05040000 	streq	r0, [r4, #-0]
 454:	0017d20d 	andseq	sp, r7, sp, lsl #4
 458:	00070400 	andeq	r0, r7, r0, lsl #8
 45c:	04000000 	streq	r0, [r0], #-0
 460:	04000404 	streq	r0, [r0], #-1028	; 0xfffffbfc
 464:	0ed00200 	cdpeq	2, 13, cr0, cr0, cr0, {0}
 468:	00070000 	andeq	r0, r7, r0
 46c:	03000000 	movweq	r0, #0
 470:	13030100 	movwne	r0, #12544	; 0x3100
 474:	00000702 	andeq	r0, r0, r2, lsl #14
 478:	03040000 	movweq	r0, #16384	; 0x4000
 47c:	02050614 	andeq	r0, r5, #20, 12	; 0x1400000
 480:	000008fd 	strdeq	r0, [r0], -sp
 484:	05050603 	streq	r0, [r5, #-1539]	; 0xfffff9fd
 488:	0019e009 	andseq	lr, r9, r9
 48c:	080e0300 	stmdaeq	lr, {r8, r9}
 490:	05090903 	streq	r0, [r9, #-2307]	; 0xfffff6fd
 494:	0017db0a 	andseq	sp, r7, sl, lsl #22
 498:	030c0300 	movweq	r0, #49920	; 0xc300
 49c:	35dc0605 	ldrbcc	r0, [ip, #1541]	; 0x605
 4a0:	08030000 	stmdaeq	r3, {}	; <UNPREDICTABLE>
 4a4:	aa16050a 	bge	5818d4 <_Min_Stack_Size+0x5814d4>
 4a8:	03000015 	movweq	r0, #21
 4ac:	00070b1c 	andeq	r0, r7, ip, lsl fp
 4b0:	04000000 	streq	r0, [r0], #-0
 4b4:	00000007 	andeq	r0, r0, r7
 4b8:	00070400 	andeq	r0, r7, r0, lsl #8
 4bc:	04000000 	streq	r0, [r0], #-0
 4c0:	070c0d03 	streq	r0, [ip, -r3, lsl #26]
 4c4:	00000000 	andeq	r0, r0, r0
 4c8:	040e0304 	streq	r0, [lr], #-772	; 0xfffffcfc
 4cc:	00000007 	andeq	r0, r0, r7
 4d0:	00070400 	andeq	r0, r7, r0, lsl #8
 4d4:	04000000 	streq	r0, [r0], #-0
 4d8:	17d20d05 	ldrbne	r0, [r2, r5, lsl #26]
 4dc:	07040000 	streq	r0, [r4, -r0]
 4e0:	00000000 	andeq	r0, r0, r0
 4e4:	15030404 	strne	r0, [r3, #-1028]	; 0xfffffbfc
 4e8:	5709050d 	strpl	r0, [r9, -sp, lsl #10]
 4ec:	0300005d 	movweq	r0, #93	; 0x5d
 4f0:	07040511 	smladeq	r4, r1, r5, r0
 4f4:	00000000 	andeq	r0, r0, r0
 4f8:	0e160304 	cdpeq	3, 1, cr0, cr6, cr4, {0}
 4fc:	00053307 	andeq	r3, r5, r7, lsl #6
 500:	17030400 	strne	r0, [r3, -r0, lsl #8]
 504:	c7090507 	strgt	r0, [r9, -r7, lsl #10]
 508:	0300000d 	movweq	r0, #13
 50c:	0304020e 	movweq	r0, #16910	; 0x420e
 510:	0704060f 	streq	r0, [r4, -pc, lsl #12]
 514:	00000098 	muleq	r0, r8, r0
 518:	4b270504 	blmi	9c1930 <_Min_Stack_Size+0x9c1530>
 51c:	05000059 	streq	r0, [r0, #-89]	; 0xffffffa7
 520:	005c4834 	subseq	r4, ip, r4, lsr r8
 524:	96420500 	strbls	r0, [r2], -r0, lsl #10
 528:	0500005b 	streq	r0, [r0, #-91]	; 0xffffffa5
 52c:	005a7243 	subseq	r7, sl, r3, asr #4
 530:	04000400 	streq	r0, [r0], #-1024	; 0xfffffc00
 534:	09050000 	stmdbeq	r5, {}	; <UNPREDICTABLE>
 538:	000057f0 	strdeq	r5, [r0], -r0
 53c:	5bff0f05 	blpl	fffc4158 <_estack+0xdffc1958>
 540:	10050000 	andne	r0, r5, r0
 544:	00005aa4 	andeq	r5, r0, r4, lsr #21
 548:	58201105 	stmdapl	r0!, {r0, r2, r8, ip}
 54c:	12050000 	andne	r0, r5, #0
 550:	00005a60 	andeq	r5, r0, r0, ror #20
 554:	5bf61305 	blpl	ffd85170 <_estack+0xdfd82970>
 558:	14050000 	strne	r0, [r5], #-0
 55c:	00005aac 	andeq	r5, r0, ip, lsr #21
 560:	5aca1505 	bpl	ff28597c <_estack+0xdf28317c>
 564:	16050000 	strne	r0, [r5], -r0
 568:	00005868 	andeq	r5, r0, r8, ror #16
 56c:	58f41705 	ldmpl	r4!, {r0, r2, r8, r9, sl, ip}^
 570:	18050000 	stmdane	r5, {}	; <UNPREDICTABLE>
 574:	00005b20 	andeq	r5, r0, r0, lsr #22
 578:	5b511905 	blpl	1446994 <_Min_Stack_Size+0x1446594>
 57c:	1a050000 	bne	140584 <_Min_Stack_Size+0x140184>
 580:	00005bcf 	andeq	r5, r0, pc, asr #23
	...

Disassembly of section .debug_line:

00000000 <.debug_line>:
       0:	000007c9 	andeq	r0, r0, r9, asr #15
       4:	04710003 	ldrbteq	r0, [r1], #-3
       8:	01020000 	mrseq	r0, (UNDEF: 2)
       c:	000d0efb 	strdeq	r0, [sp], -fp
      10:	01010101 	tsteq	r1, r1, lsl #2
      14:	01000000 	mrseq	r0, (UNDEF: 0)
      18:	2e010000 	cdpcs	0, 0, cr0, cr1, cr0, {0}
      1c:	434d2f2e 	movtmi	r2, #57134	; 0xdf2e
      20:	43004c41 	movwmi	r4, #3137	; 0xc41
      24:	73552f3a 	cmpvc	r5, #58, 30	; 0xe8
      28:	2f737265 	svccs	0x00737265
      2c:	6f64656d 	svcvs	0x0064656d
      30:	65442f6f 	strbvs	r2, [r4, #-3951]	; 0xfffff091
      34:	6f746b73 	svcvs	0x00746b73
      38:	6f572f70 	svcvs	0x00572f70
      3c:	70536b72 	subsvc	r6, r3, r2, ror fp
      40:	2f656361 	svccs	0x00656361
      44:	7373654c 	cmnvc	r3, #76, 10	; 0x13000000
      48:	34206e6f 	strtcc	r6, [r0], #-3695	; 0xfffff191
      4c:	5458452f 	ldrbpl	r4, [r8], #-1327	; 0xfffffad1
      50:	72445f49 	subvc	r5, r4, #292	; 0x124
      54:	72657669 	rsbvc	r7, r5, #110100480	; 0x6900000
      58:	41434d2f 	cmpmi	r3, pc, lsr #26
      5c:	6e692f4c 	cdpvs	15, 6, cr2, cr9, cr12, {2}
      60:	3a430063 	bcc	10c01f4 <_Min_Stack_Size+0x10bfdf4>
      64:	5c54535c 	mrrcpl	3, 5, r5, r4, cr12
      68:	334d5453 	movtcc	r5, #54355	; 0xd453
      6c:	62754332 	rsbsvs	r4, r5, #-939524096	; 0xc8000000
      70:	45444965 	strbmi	r4, [r4, #-2405]	; 0xfffff69b
      74:	312e315f 			; <UNDEFINED> instruction: 0x312e315f
      78:	5c322e33 	ldcpl	14, cr2, [r2], #-204	; 0xffffff34
      7c:	334d5453 	movtcc	r5, #54355	; 0xd453
      80:	62754332 	rsbsvs	r4, r5, #-939524096	; 0xc8000000
      84:	45444965 	strbmi	r4, [r4, #-2405]	; 0xfffff69b
      88:	756c705c 	strbvc	r7, [ip, #-92]!	; 0xffffffa4
      8c:	736e6967 	cmnvc	lr, #1687552	; 0x19c000
      90:	6d6f635c 	stclvs	3, cr6, [pc, #-368]!	; ffffff28 <_estack+0xdfffd728>
      94:	2e74732e 	cdpcs	3, 7, cr7, cr4, cr14, {1}
      98:	336d7473 	cmncc	sp, #1929379840	; 0x73000000
      9c:	62756332 	rsbsvs	r6, r5, #-939524096	; 0xc8000000
      a0:	64692e65 	strbtvs	r2, [r9], #-3685	; 0xfffff19b
      a4:	636d2e65 	cmnvs	sp, #1616	; 0x650
      a8:	78652e75 	stmdavc	r5!, {r0, r2, r4, r5, r6, r9, sl, fp, sp}^
      ac:	6e726574 	mrcvs	5, 3, r6, cr2, cr4, {3}
      b0:	6f746c61 	svcvs	0x00746c61
      b4:	2e736c6f 	cdpcs	12, 7, cr6, cr3, cr15, {3}
      b8:	2d756e67 	ldclcs	14, cr6, [r5, #-412]!	; 0xfffffe64
      bc:	6c6f6f74 	stclvs	15, cr6, [pc], #-464	; fffffef4 <_estack+0xdfffd6f4>
      c0:	6f662d73 	svcvs	0x00662d73
      c4:	74732d72 	ldrbtvc	r2, [r3], #-3442	; 0xfffff28e
      c8:	2e32336d 	cdpcs	3, 3, cr3, cr2, cr13, {3}
      cc:	332e3131 			; <UNDEFINED> instruction: 0x332e3131
      d0:	6c65722e 	sfmvs	f7, 2, [r5], #-184	; 0xffffff48
      d4:	69772e31 	ldmdbvs	r7!, {r0, r4, r5, r9, sl, fp, sp}^
      d8:	5f32336e 	svcpl	0x0032336e
      dc:	2e312e31 	mrccs	14, 1, r2, cr1, cr1, {1}
      e0:	30322e31 	eorscc	r2, r2, r1, lsr lr
      e4:	39303332 	ldmdbcc	r0!, {r1, r4, r5, r8, r9, ip, sp}
      e8:	36313331 			; <UNDEFINED> instruction: 0x36313331
      ec:	745c3632 	ldrbvc	r3, [ip], #-1586	; 0xfffff9ce
      f0:	736c6f6f 	cmnvc	ip, #444	; 0x1bc
      f4:	6e69625c 	mcrvs	2, 3, r6, cr9, cr12, {2}
      f8:	2f2e2e2f 	svccs	0x002e2e2f
      fc:	2f62696c 	svccs	0x0062696c
     100:	2f636367 	svccs	0x00636367
     104:	2d6d7261 	sfmcs	f7, 2, [sp, #-388]!	; 0xfffffe7c
     108:	656e6f6e 	strbvs	r6, [lr, #-3950]!	; 0xfffff092
     10c:	6261652d 	rsbvs	r6, r1, #188743680	; 0xb400000
     110:	31312f69 	teqcc	r1, r9, ror #30
     114:	312e332e 			; <UNDEFINED> instruction: 0x312e332e
     118:	636e692f 	cmnvs	lr, #770048	; 0xbc000
     11c:	6564756c 	strbvs	r7, [r4, #-1388]!	; 0xfffffa94
     120:	5c3a4300 	ldcpl	3, cr4, [sl], #-0
     124:	535c5453 	cmppl	ip, #1392508928	; 0x53000000
     128:	32334d54 	eorscc	r4, r3, #84, 26	; 0x1500
     12c:	65627543 	strbvs	r7, [r2, #-1347]!	; 0xfffffabd
     130:	5f454449 	svcpl	0x00454449
     134:	33312e31 	teqcc	r1, #784	; 0x310
     138:	535c322e 	cmppl	ip, #-536870910	; 0xe0000002
     13c:	32334d54 	eorscc	r4, r3, #84, 26	; 0x1500
     140:	65627543 	strbvs	r7, [r2, #-1347]!	; 0xfffffabd
     144:	5c454449 	cfstrdpl	mvd4, [r5], {73}	; 0x49
     148:	67756c70 			; <UNDEFINED> instruction: 0x67756c70
     14c:	5c736e69 	ldclpl	14, cr6, [r3], #-420	; 0xfffffe5c
     150:	2e6d6f63 	cdpcs	15, 6, cr6, cr13, cr3, {3}
     154:	732e7473 			; <UNDEFINED> instruction: 0x732e7473
     158:	32336d74 	eorscc	r6, r3, #116, 26	; 0x1d00
     15c:	65627563 	strbvs	r7, [r2, #-1379]!	; 0xfffffa9d
     160:	6564692e 	strbvs	r6, [r4, #-2350]!	; 0xfffff6d2
     164:	75636d2e 	strbvc	r6, [r3, #-3374]!	; 0xfffff2d2
     168:	7478652e 	ldrbtvc	r6, [r8], #-1326	; 0xfffffad2
     16c:	616e7265 	cmnvs	lr, r5, ror #4
     170:	6f6f746c 	svcvs	0x006f746c
     174:	672e736c 	strvs	r7, [lr, -ip, ror #6]!
     178:	742d756e 	strtvc	r7, [sp], #-1390	; 0xfffffa92
     17c:	736c6f6f 	cmnvc	ip, #444	; 0x1bc
     180:	726f662d 	rsbvc	r6, pc, #47185920	; 0x2d00000
     184:	6d74732d 	ldclvs	3, cr7, [r4, #-180]!	; 0xffffff4c
     188:	312e3233 			; <UNDEFINED> instruction: 0x312e3233
     18c:	2e332e31 	mrccs	14, 1, r2, cr3, cr1, {1}
     190:	316c6572 	smccc	50770	; 0xc652
     194:	6e69772e 	cdpvs	7, 6, cr7, cr9, cr14, {1}
     198:	315f3233 	cmpcc	pc, r3, lsr r2	; <UNPREDICTABLE>
     19c:	312e312e 			; <UNDEFINED> instruction: 0x312e312e
     1a0:	3230322e 	eorscc	r3, r0, #-536870910	; 0xe0000002
     1a4:	31393033 	teqcc	r9, r3, lsr r0
     1a8:	32363133 	eorscc	r3, r6, #-1073741812	; 0xc000000c
     1ac:	6f745c36 	svcvs	0x00745c36
     1b0:	5c736c6f 	ldclpl	12, cr6, [r3], #-444	; 0xfffffe44
     1b4:	2f6e6962 	svccs	0x006e6962
     1b8:	6c2f2e2e 	stcvs	14, cr2, [pc], #-184	; 108 <_Min_Heap_Size-0xf8>
     1bc:	672f6269 	strvs	r6, [pc, -r9, ror #4]!
     1c0:	612f6363 			; <UNDEFINED> instruction: 0x612f6363
     1c4:	6e2d6d72 	mcrvs	13, 1, r6, cr13, cr2, {3}
     1c8:	2d656e6f 	stclcs	14, cr6, [r5, #-444]!	; 0xfffffe44
     1cc:	69626165 	stmdbvs	r2!, {r0, r2, r5, r6, r8, sp, lr}^
     1d0:	2e31312f 	rsfcssp	f3, f1, #10.0
     1d4:	2f312e33 	svccs	0x00312e33
     1d8:	2e2f2e2e 	cdpcs	14, 2, cr2, cr15, cr14, {1}
     1dc:	2e2e2f2e 	cdpcs	15, 2, cr2, cr14, cr14, {1}
     1e0:	2f2e2e2f 	svccs	0x002e2e2f
     1e4:	2d6d7261 	sfmcs	f7, 2, [sp, #-388]!	; 0xfffffe7c
     1e8:	656e6f6e 	strbvs	r6, [lr, #-3950]!	; 0xfffff092
     1ec:	6261652d 	rsbvs	r6, r1, #188743680	; 0xb400000
     1f0:	6e692f69 	cdpvs	15, 6, cr2, cr9, cr9, {3}
     1f4:	64756c63 	ldrbtvs	r6, [r5], #-3171	; 0xfffff39d
     1f8:	3a430065 	bcc	10c0394 <_Min_Stack_Size+0x10bff94>
     1fc:	5c54535c 	mrrcpl	3, 5, r5, r4, cr12
     200:	334d5453 	movtcc	r5, #54355	; 0xd453
     204:	62754332 	rsbsvs	r4, r5, #-939524096	; 0xc8000000
     208:	45444965 	strbmi	r4, [r4, #-2405]	; 0xfffff69b
     20c:	312e315f 			; <UNDEFINED> instruction: 0x312e315f
     210:	5c322e33 	ldcpl	14, cr2, [r2], #-204	; 0xffffff34
     214:	334d5453 	movtcc	r5, #54355	; 0xd453
     218:	62754332 	rsbsvs	r4, r5, #-939524096	; 0xc8000000
     21c:	45444965 	strbmi	r4, [r4, #-2405]	; 0xfffff69b
     220:	756c705c 	strbvc	r7, [ip, #-92]!	; 0xffffffa4
     224:	736e6967 	cmnvc	lr, #1687552	; 0x19c000
     228:	6d6f635c 	stclvs	3, cr6, [pc, #-368]!	; c0 <_Min_Heap_Size-0x140>
     22c:	2e74732e 	cdpcs	3, 7, cr7, cr4, cr14, {1}
     230:	336d7473 	cmncc	sp, #1929379840	; 0x73000000
     234:	62756332 	rsbsvs	r6, r5, #-939524096	; 0xc8000000
     238:	64692e65 	strbtvs	r2, [r9], #-3685	; 0xfffff19b
     23c:	636d2e65 	cmnvs	sp, #1616	; 0x650
     240:	78652e75 	stmdavc	r5!, {r0, r2, r4, r5, r6, r9, sl, fp, sp}^
     244:	6e726574 	mrcvs	5, 3, r6, cr2, cr4, {3}
     248:	6f746c61 	svcvs	0x00746c61
     24c:	2e736c6f 	cdpcs	12, 7, cr6, cr3, cr15, {3}
     250:	2d756e67 	ldclcs	14, cr6, [r5, #-412]!	; 0xfffffe64
     254:	6c6f6f74 	stclvs	15, cr6, [pc], #-464	; 8c <_Min_Heap_Size-0x174>
     258:	6f662d73 	svcvs	0x00662d73
     25c:	74732d72 	ldrbtvc	r2, [r3], #-3442	; 0xfffff28e
     260:	2e32336d 	cdpcs	3, 3, cr3, cr2, cr13, {3}
     264:	332e3131 			; <UNDEFINED> instruction: 0x332e3131
     268:	6c65722e 	sfmvs	f7, 2, [r5], #-184	; 0xffffff48
     26c:	69772e31 	ldmdbvs	r7!, {r0, r4, r5, r9, sl, fp, sp}^
     270:	5f32336e 	svcpl	0x0032336e
     274:	2e312e31 	mrccs	14, 1, r2, cr1, cr1, {1}
     278:	30322e31 	eorscc	r2, r2, r1, lsr lr
     27c:	39303332 	ldmdbcc	r0!, {r1, r4, r5, r8, r9, ip, sp}
     280:	36313331 			; <UNDEFINED> instruction: 0x36313331
     284:	745c3632 	ldrbvc	r3, [ip], #-1586	; 0xfffff9ce
     288:	736c6f6f 	cmnvc	ip, #444	; 0x1bc
     28c:	6e69625c 	mcrvs	2, 3, r6, cr9, cr12, {2}
     290:	2f2e2e2f 	svccs	0x002e2e2f
     294:	2f62696c 	svccs	0x0062696c
     298:	2f636367 	svccs	0x00636367
     29c:	2d6d7261 	sfmcs	f7, 2, [sp, #-388]!	; 0xfffffe7c
     2a0:	656e6f6e 	strbvs	r6, [lr, #-3950]!	; 0xfffff092
     2a4:	6261652d 	rsbvs	r6, r1, #188743680	; 0xb400000
     2a8:	31312f69 	teqcc	r1, r9, ror #30
     2ac:	312e332e 			; <UNDEFINED> instruction: 0x312e332e
     2b0:	2f2e2e2f 	svccs	0x002e2e2f
     2b4:	2e2f2e2e 	cdpcs	14, 2, cr2, cr15, cr14, {1}
     2b8:	2e2e2f2e 	cdpcs	15, 2, cr2, cr14, cr14, {1}
     2bc:	6d72612f 	ldfvse	f6, [r2, #-188]!	; 0xffffff44
     2c0:	6e6f6e2d 	cdpvs	14, 6, cr6, cr15, cr13, {1}
     2c4:	61652d65 	cmnvs	r5, r5, ror #26
     2c8:	692f6962 	stmdbvs	pc!, {r1, r5, r6, r8, fp, sp, lr}	; <UNPREDICTABLE>
     2cc:	756c636e 	strbvc	r6, [ip, #-878]!	; 0xfffffc92
     2d0:	6d2f6564 	cfstr32vs	mvfx6, [pc, #-400]!	; 148 <_Min_Heap_Size-0xb8>
     2d4:	69686361 	stmdbvs	r8!, {r0, r5, r6, r8, r9, sp, lr}^
     2d8:	4300656e 	movwmi	r6, #1390	; 0x56e
     2dc:	54535c3a 	ldrbpl	r5, [r3], #-3130	; 0xfffff3c6
     2e0:	4d54535c 	ldclmi	3, cr5, [r4, #-368]	; 0xfffffe90
     2e4:	75433233 	strbvc	r3, [r3, #-563]	; 0xfffffdcd
     2e8:	44496562 	strbmi	r6, [r9], #-1378	; 0xfffffa9e
     2ec:	2e315f45 	cdpcs	15, 3, cr5, cr1, cr5, {2}
     2f0:	322e3331 	eorcc	r3, lr, #-1006632960	; 0xc4000000
     2f4:	4d54535c 	ldclmi	3, cr5, [r4, #-368]	; 0xfffffe90
     2f8:	75433233 	strbvc	r3, [r3, #-563]	; 0xfffffdcd
     2fc:	44496562 	strbmi	r6, [r9], #-1378	; 0xfffffa9e
     300:	6c705c45 	ldclvs	12, cr5, [r0], #-276	; 0xfffffeec
     304:	6e696775 	mcrvs	7, 3, r6, cr9, cr5, {3}
     308:	6f635c73 	svcvs	0x00635c73
     30c:	74732e6d 	ldrbtvc	r2, [r3], #-3693	; 0xfffff193
     310:	6d74732e 	ldclvs	3, cr7, [r4, #-184]!	; 0xffffff48
     314:	75633233 	strbvc	r3, [r3, #-563]!	; 0xfffffdcd
     318:	692e6562 	stmdbvs	lr!, {r1, r5, r6, r8, sl, sp, lr}
     31c:	6d2e6564 	cfstr32vs	mvfx6, [lr, #-400]!	; 0xfffffe70
     320:	652e7563 	strvs	r7, [lr, #-1379]!	; 0xfffffa9d
     324:	72657478 	rsbvc	r7, r5, #120, 8	; 0x78000000
     328:	746c616e 	strbtvc	r6, [ip], #-366	; 0xfffffe92
     32c:	736c6f6f 	cmnvc	ip, #444	; 0x1bc
     330:	756e672e 	strbvc	r6, [lr, #-1838]!	; 0xfffff8d2
     334:	6f6f742d 	svcvs	0x006f742d
     338:	662d736c 	strtvs	r7, [sp], -ip, ror #6
     33c:	732d726f 			; <UNDEFINED> instruction: 0x732d726f
     340:	32336d74 	eorscc	r6, r3, #116, 26	; 0x1d00
     344:	2e31312e 	rsfcssp	f3, f1, #0.5
     348:	65722e33 	ldrbvs	r2, [r2, #-3635]!	; 0xfffff1cd
     34c:	772e316c 	strvc	r3, [lr, -ip, ror #2]!
     350:	32336e69 	eorscc	r6, r3, #1680	; 0x690
     354:	312e315f 			; <UNDEFINED> instruction: 0x312e315f
     358:	322e312e 	eorcc	r3, lr, #-2147483637	; 0x8000000b
     35c:	30333230 	eorscc	r3, r3, r0, lsr r2
     360:	31333139 	teqcc	r3, r9, lsr r1
     364:	5c363236 	lfmpl	f3, 4, [r6], #-216	; 0xffffff28
     368:	6c6f6f74 	stclvs	15, cr6, [pc], #-464	; 1a0 <_Min_Heap_Size-0x60>
     36c:	69625c73 	stmdbvs	r2!, {r0, r1, r4, r5, r6, sl, fp, ip, lr}^
     370:	2e2e2f6e 	cdpcs	15, 2, cr2, cr14, cr14, {3}
     374:	62696c2f 	rsbvs	r6, r9, #12032	; 0x2f00
     378:	6363672f 	cmnvs	r3, #12320768	; 0xbc0000
     37c:	6d72612f 	ldfvse	f6, [r2, #-188]!	; 0xffffff44
     380:	6e6f6e2d 	cdpvs	14, 6, cr6, cr15, cr13, {1}
     384:	61652d65 	cmnvs	r5, r5, ror #26
     388:	312f6962 			; <UNDEFINED> instruction: 0x312f6962
     38c:	2e332e31 	mrccs	14, 1, r2, cr3, cr1, {1}
     390:	2e2e2f31 	mcrcs	15, 1, r2, cr14, cr1, {1}
     394:	2f2e2e2f 	svccs	0x002e2e2f
     398:	2e2f2e2e 	cdpcs	14, 2, cr2, cr15, cr14, {1}
     39c:	72612f2e 	rsbvc	r2, r1, #46, 30	; 0xb8
     3a0:	6f6e2d6d 	svcvs	0x006e2d6d
     3a4:	652d656e 	strvs	r6, [sp, #-1390]!	; 0xfffffa92
     3a8:	2f696261 	svccs	0x00696261
     3ac:	6c636e69 	stclvs	14, cr6, [r3], #-420	; 0xfffffe5c
     3b0:	2f656475 	svccs	0x00656475
     3b4:	00737973 	rsbseq	r7, r3, r3, ror r9
     3b8:	54584500 	ldrbpl	r4, [r8], #-1280	; 0xfffffb00
     3bc:	72445f49 	subvc	r5, r4, #292	; 0x124
     3c0:	72657669 	rsbvc	r7, r5, #110100480	; 0x6900000
     3c4:	0100632e 	tsteq	r0, lr, lsr #6
     3c8:	6c500000 	mravs	r0, r0, acc0
     3cc:	6f667461 	svcvs	0x00667461
     3d0:	545f6d72 	ldrbpl	r6, [pc], #-3442	; 3d8 <_Min_Heap_Size+0x1d8>
     3d4:	73657079 	cmnvc	r5, #121	; 0x79
     3d8:	0200682e 	andeq	r6, r0, #3014656	; 0x2e0000
     3dc:	54530000 	ldrbpl	r0, [r3], #-0
     3e0:	4632334d 	ldrtmi	r3, [r2], -sp, asr #6
     3e4:	78333031 	ldmdavc	r3!, {r0, r4, r5, ip, sp}
     3e8:	00682e36 	rsbeq	r2, r8, r6, lsr lr
     3ec:	47000002 	strmi	r0, [r0, -r2]
     3f0:	5f4f4950 	svcpl	0x004f4950
     3f4:	76697244 	strbtvc	r7, [r9], -r4, asr #4
     3f8:	682e7265 	stmdavs	lr!, {r0, r2, r5, r6, r9, ip, sp, lr}
     3fc:	00000200 	andeq	r0, r0, r0, lsl #4
     400:	49545845 	ldmdbmi	r4, {r0, r2, r6, fp, ip, lr}^
     404:	6972445f 	ldmdbvs	r2!, {r0, r1, r2, r3, r4, r6, sl, lr}^
     408:	2e726576 	mrccs	5, 3, r6, cr2, cr6, {3}
     40c:	00020068 	andeq	r0, r2, r8, rrx
     410:	64747300 	ldrbtvs	r7, [r4], #-768	; 0xfffffd00
     414:	2e746e69 	cdpcs	14, 7, cr6, cr4, cr9, {3}
     418:	00030068 	andeq	r0, r3, r8, rrx
     41c:	64747300 	ldrbtvs	r7, [r4], #-768	; 0xfffffd00
     420:	2e746e69 	cdpcs	14, 7, cr6, cr4, cr9, {3}
     424:	00040068 	andeq	r0, r4, r8, rrx
     428:	65645f00 	strbvs	r5, [r4, #-3840]!	; 0xfffff100
     42c:	6c756166 	ldfvse	f6, [r5], #-408	; 0xfffffe68
     430:	79745f74 	ldmdbvc	r4!, {r2, r4, r5, r6, r8, r9, sl, fp, ip, lr}^
     434:	2e736570 	mrccs	5, 3, r6, cr3, cr0, {3}
     438:	00050068 	andeq	r0, r5, r8, rrx
     43c:	61656600 	cmnvs	r5, r0, lsl #12
     440:	65727574 	ldrbvs	r7, [r2, #-1396]!	; 0xfffffa8c
     444:	00682e73 	rsbeq	r2, r8, r3, ror lr
     448:	5f000006 	svcpl	0x00000006
     44c:	6c77656e 	cfldr64vs	mvdx6, [r7], #-440	; 0xfffffe48
     450:	765f6269 	ldrbvc	r6, [pc], -r9, ror #4
     454:	69737265 	ldmdbvs	r3!, {r0, r2, r5, r6, r9, ip, sp, lr}^
     458:	682e6e6f 	stmdavs	lr!, {r0, r1, r2, r3, r5, r6, r9, sl, fp, sp, lr}
     45c:	00000400 	andeq	r0, r0, r0, lsl #8
     460:	746e695f 	strbtvc	r6, [lr], #-2399	; 0xfffff6a1
     464:	2e707573 	mrccs	5, 3, r7, cr0, cr3, {3}
     468:	00060068 	andeq	r0, r6, r8, rrx
     46c:	74735f00 	ldrbtvc	r5, [r3], #-3840	; 0xfffff100
     470:	746e6964 	strbtvc	r6, [lr], #-2404	; 0xfffff69c
     474:	0600682e 	streq	r6, [r0], -lr, lsr #16
     478:	05000000 	streq	r0, [r0, #-0]
     47c:	0205001f 	andeq	r0, r5, #31
     480:	08000170 	stmdaeq	r0, {r4, r5, r6, r8}
     484:	05010a03 	streq	r0, [r1, #-2563]	; 0xfffff5fd
     488:	03055902 	movweq	r5, #22786	; 0x5902
     48c:	67142702 	ldrvs	r2, [r4, -r2, lsl #14]
     490:	67226722 	strvs	r6, [r2, -r2, lsr #14]!
     494:	67226722 	strvs	r6, [r2, -r2, lsr #14]!
     498:	05276726 	streq	r6, [r7, #-1830]!	; 0xfffff8da
     49c:	02236701 	eoreq	r6, r3, #262144	; 0x40000
     4a0:	01010009 	tsteq	r1, r9
     4a4:	05002005 	streq	r2, [r0, #-5]
     4a8:	00023c02 	andeq	r3, r2, r2, lsl #24
     4ac:	012d0308 			; <UNDEFINED> instruction: 0x012d0308
     4b0:	05590205 	ldrbeq	r0, [r9, #-517]	; 0xfffffdfb
     4b4:	14270203 	strtne	r0, [r7], #-515	; 0xfffffdfd
     4b8:	22672267 	rsbcs	r2, r7, #1879048198	; 0x70000006
     4bc:	22672267 	rsbcs	r2, r7, #1879048198	; 0x70000006
     4c0:	27672667 	strbcs	r2, [r7, -r7, ror #12]!
     4c4:	23670105 	cmncs	r7, #1073741825	; 0x40000001
     4c8:	01000902 	tsteq	r0, r2, lsl #18
     4cc:	002a0501 	eoreq	r0, sl, r1, lsl #10
     4d0:	03080205 	movweq	r0, #33285	; 0x8205
     4d4:	d0030800 	andle	r0, r3, r0, lsl #16
     4d8:	29050100 	stmdbcs	r5, {r8}
     4dc:	2e0c054b 	cfsh32cs	mvfx0, mvfx12, #43
     4e0:	053d2b05 	ldreq	r2, [sp, #-2821]!	; 0xfffff4fb
     4e4:	0e052e0c 	cdpeq	14, 0, cr2, cr5, cr12, {0}
     4e8:	2e210569 	cfsh64cs	mvdx0, mvdx1, #57
     4ec:	052e0e05 	streq	r0, [lr, #-3589]!	; 0xfffff1fb
     4f0:	1d053d03 	stcne	13, cr3, [r5, #-12]
     4f4:	58250584 	stmdapl	r5!, {r2, r7, r8, sl}
     4f8:	054a1f05 	strbeq	r1, [sl, #-3845]	; 0xfffff0fb
     4fc:	05672e1d 	strbeq	r2, [r7, #-3613]!	; 0xfffff1e3
     500:	02005820 	andeq	r5, r0, #32, 16	; 0x200000
     504:	58060104 	stmdapl	r6, {r2, r8}
     508:	03040200 	movweq	r0, #16896	; 0x4200
     50c:	04020058 	streq	r0, [r2], #-88	; 0xffffffa8
     510:	02005805 	andeq	r5, r0, #327680	; 0x50000
     514:	00580704 	subseq	r0, r8, r4, lsl #14
     518:	2e080402 	cdpcs	4, 0, cr0, cr8, cr2, {0}
     51c:	06040200 	streq	r0, [r4], -r0, lsl #4
     520:	0402002e 	streq	r0, [r2], #-46	; 0xffffffd2
     524:	02002e04 	andeq	r2, r0, #4, 28	; 0x40
     528:	052e0204 	streq	r0, [lr, #-516]!	; 0xfffffdfc
     52c:	04020042 	streq	r0, [r2], #-66	; 0xffffffbe
     530:	05200610 	streq	r0, [r0, #-1552]!	; 0xfffff9f0
     534:	0402001d 	streq	r0, [r2], #-29	; 0xffffffe3
     538:	0a053c10 	beq	14f580 <_Min_Stack_Size+0x14f180>
     53c:	10040200 	andne	r0, r4, r0, lsl #4
     540:	00050568 	andeq	r0, r5, r8, ror #10
     544:	2e100402 	cfmulscs	mvf0, mvf0, mvf2
     548:	052f1305 	streq	r1, [pc, #-773]!	; 24b <_Min_Heap_Size+0x4b>
     54c:	17052e27 	strne	r2, [r5, -r7, lsr #28]
     550:	3c13053c 	cfldr32cc	mvfx0, [r3], {60}	; 0x3c
     554:	054b1005 	strbeq	r1, [fp, #-5]
     558:	13052e0b 	movwne	r2, #24075	; 0x5e0b
     55c:	2e27052f 	cfsh64cs	mvdx0, mvdx7, #31
     560:	053c1705 	ldreq	r1, [ip, #-1797]!	; 0xfffff8fb
     564:	10053c13 	andne	r3, r5, r3, lsl ip
     568:	2e0b054c 	cfsh32cs	mvfx0, mvfx11, #44
     56c:	052f1305 	streq	r1, [pc, #-773]!	; 26f <_Min_Heap_Size+0x6f>
     570:	17052e27 	strne	r2, [r5, -r7, lsr #28]
     574:	3c13053c 	cfldr32cc	mvfx0, [r3], {60}	; 0x3c
     578:	2e27053d 	mcrcs	5, 1, r0, cr7, cr13, {1}
     57c:	053c1705 	ldreq	r1, [ip, #-1797]!	; 0xfffff8fb
     580:	20053c13 	andcs	r3, r5, r3, lsl ip
     584:	3c2f0541 	cfstr32cc	mvfx0, [pc], #-260	; 488 <_Min_Stack_Size+0x88>
     588:	052e2a05 	streq	r2, [lr, #-2565]!	; 0xfffff5fb
     58c:	05053e0a 	streq	r3, [r5, #-3594]	; 0xfffff1f6
     590:	2f10052e 	svccs	0x0010052e
     594:	052e2405 	streq	r2, [lr, #-1029]!	; 0xfffffbfb
     598:	10053c14 	andne	r3, r5, r4, lsl ip
     59c:	3d1d053c 	cfldr32cc	mvfx0, [sp, #-240]	; 0xffffff10
     5a0:	052e0305 	streq	r0, [lr, #-773]!	; 0xfffffcfb
     5a4:	11055102 	tstne	r5, r2, lsl #2
     5a8:	2e26051c 	mcrcs	5, 1, r0, cr6, cr12, {0}
     5ac:	053c1605 	ldreq	r1, [ip, #-1541]!	; 0xfffff9fb
     5b0:	11052e13 	tstne	r5, r3, lsl lr
     5b4:	3d1f052e 	cfldr32cc	mvfx0, [pc, #-184]	; 504 <_Min_Stack_Size+0x104>
     5b8:	052e0405 	streq	r0, [lr, #-1029]!	; 0xfffffbfb
     5bc:	12024d02 	andne	r4, r2, #2, 26	; 0x80
     5c0:	05010100 	streq	r0, [r1, #-256]	; 0xffffff00
     5c4:	02050019 	andeq	r0, r5, #25
     5c8:	080004b8 	stmdaeq	r0, {r3, r4, r5, r7, sl}
     5cc:	0100f303 	tsteq	r0, r3, lsl #6	; <UNPREDICTABLE>
     5d0:	052f1105 	streq	r1, [pc, #-261]!	; 4d3 <_Min_Stack_Size+0xd3>
     5d4:	0f052e03 	svceq	0x00052e03
     5d8:	67020521 	strvs	r0, [r2, -r1, lsr #10]
     5dc:	01000702 	tsteq	r0, r2, lsl #14
     5e0:	00190501 	andseq	r0, r9, r1, lsl #10
     5e4:	04dc0205 	ldrbeq	r0, [ip], #517	; 0x205
     5e8:	f7030800 			; <UNDEFINED> instruction: 0xf7030800
     5ec:	11050100 	mrsne	r0, (UNDEF: 21)
     5f0:	2e03052f 	cfsh32cs	mvfx0, mvfx3, #31
     5f4:	05210f05 	streq	r0, [r1, #-3845]!	; 0xfffff0fb
     5f8:	07026802 	streq	r6, [r2, -r2, lsl #16]
     5fc:	05010100 	streq	r0, [r1, #-256]	; 0xffffff00
     600:	02050019 	andeq	r0, r5, #25
     604:	08000500 	stmdaeq	r0, {r8, sl}
     608:	0100fc03 	tsteq	r0, r3, lsl #24	; <UNPREDICTABLE>
     60c:	052f1105 	streq	r1, [pc, #-261]!	; 50f <_Min_Stack_Size+0x10f>
     610:	0f052e03 	svceq	0x00052e03
     614:	68020521 	stmdavs	r2, {r0, r5, r8, sl}
     618:	01000702 	tsteq	r0, r2, lsl #14
     61c:	00190501 	andseq	r0, r9, r1, lsl #10
     620:	05240205 	streq	r0, [r4, #-517]!	; 0xfffffdfb
     624:	81030800 	tsthi	r3, r0, lsl #16
     628:	11050101 	tstne	r5, r1, lsl #2
     62c:	2e03052f 	cfsh32cs	mvfx0, mvfx3, #31
     630:	05210f05 	streq	r0, [r1, #-3845]!	; 0xfffff0fb
     634:	07026802 	streq	r6, [r2, -r2, lsl #16]
     638:	05010100 	streq	r0, [r1, #-256]	; 0xffffff00
     63c:	02050019 	andeq	r0, r5, #25
     640:	08000548 	stmdaeq	r0, {r3, r6, r8, sl}
     644:	01018603 	tsteq	r1, r3, lsl #12
     648:	052f1105 	streq	r1, [pc, #-261]!	; 54b <_Min_Stack_Size+0x14b>
     64c:	0f052e03 	svceq	0x00052e03
     650:	68020521 	stmdavs	r2, {r0, r5, r8, sl}
     654:	01000702 	tsteq	r0, r2, lsl #14
     658:	001b0501 	andseq	r0, fp, r1, lsl #10
     65c:	056c0205 	strbeq	r0, [ip, #-517]!	; 0xfffffdfb
     660:	8b030800 	blhi	c2668 <_Min_Stack_Size+0xc2268>
     664:	0e050101 	adfeqs	f0, f5, f1
     668:	2e13052f 	cfmul64cs	mvdx0, mvdx3, mvdx15
     66c:	052e0505 	streq	r0, [lr, #-1285]!	; 0xfffffafb
     670:	04020028 	streq	r0, [r2], #-40	; 0xffffffd8
     674:	42052e01 	andmi	r2, r5, #1, 28
     678:	01040200 	mrseq	r0, R12_usr
     67c:	00340566 	eorseq	r0, r4, r6, ror #10
     680:	2e010402 	cdpcs	4, 0, cr0, cr1, cr2, {0}
     684:	05210e05 	streq	r0, [r1, #-3589]!	; 0xfffff1fb
     688:	05052e13 	streq	r2, [r5, #-3603]	; 0xfffff1ed
     68c:	0028052e 	eoreq	r0, r8, lr, lsr #10
     690:	2e010402 	cdpcs	4, 0, cr0, cr1, cr2, {0}
     694:	02004205 	andeq	r4, r0, #1342177280	; 0x50000000
     698:	05660104 	strbeq	r0, [r6, #-260]!	; 0xfffffefc
     69c:	04020034 	streq	r0, [r2], #-52	; 0xffffffcc
     6a0:	0e052e01 	cdpeq	14, 0, cr2, cr5, cr1, {0}
     6a4:	2e130521 	cfmul64cs	mvdx0, mvdx3, mvdx1
     6a8:	052e0505 	streq	r0, [lr, #-1285]!	; 0xfffffafb
     6ac:	04020028 	streq	r0, [r2], #-40	; 0xffffffd8
     6b0:	42052e01 	andmi	r2, r5, #1, 28
     6b4:	01040200 	mrseq	r0, R12_usr
     6b8:	00340566 	eorseq	r0, r4, r6, ror #10
     6bc:	2e010402 	cdpcs	4, 0, cr0, cr1, cr2, {0}
     6c0:	05210e05 	streq	r0, [r1, #-3589]!	; 0xfffff1fb
     6c4:	05052e13 	streq	r2, [r5, #-3603]	; 0xfffff1ed
     6c8:	0028052e 	eoreq	r0, r8, lr, lsr #10
     6cc:	2e010402 	cdpcs	4, 0, cr0, cr1, cr2, {0}
     6d0:	02004205 	andeq	r4, r0, #1342177280	; 0x50000000
     6d4:	05660104 	strbeq	r0, [r6, #-260]!	; 0xfffffefc
     6d8:	04020034 	streq	r0, [r2], #-52	; 0xffffffcc
     6dc:	0e052e01 	cdpeq	14, 0, cr2, cr5, cr1, {0}
     6e0:	2e130521 	cfmul64cs	mvdx0, mvdx3, mvdx1
     6e4:	052e0505 	streq	r0, [lr, #-1285]!	; 0xfffffafb
     6e8:	04020028 	streq	r0, [r2], #-40	; 0xffffffd8
     6ec:	42052e01 	andmi	r2, r5, #1, 28
     6f0:	01040200 	mrseq	r0, R12_usr
     6f4:	00340566 	eorseq	r0, r4, r6, ror #10
     6f8:	2e010402 	cdpcs	4, 0, cr0, cr1, cr2, {0}
     6fc:	02210205 	eoreq	r0, r1, #1342177280	; 0x50000000
     700:	01010007 	tsteq	r1, r7
     704:	05001d05 	streq	r1, [r0, #-3333]	; 0xfffff2fb
     708:	00061402 	andeq	r1, r6, r2, lsl #8
     70c:	01920308 	orrseq	r0, r2, r8, lsl #6
     710:	2f0e0501 	svccs	0x000e0501
     714:	052e1305 	streq	r1, [lr, #-773]!	; 0xfffffcfb
     718:	29052e05 	stmdbcs	r5, {r0, r2, r9, sl, fp, sp}
     71c:	01040200 	mrseq	r0, R12_usr
     720:	0044052e 	subeq	r0, r4, lr, lsr #10
     724:	66010402 	strvs	r0, [r1], -r2, lsl #8
     728:	02003605 	andeq	r3, r0, #5242880	; 0x500000
     72c:	052e0104 	streq	r0, [lr, #-260]!	; 0xfffffefc
     730:	1305210e 	movwne	r2, #20750	; 0x510e
     734:	2e05052e 	cfsh32cs	mvfx0, mvfx5, #30
     738:	02002905 	andeq	r2, r0, #81920	; 0x14000
     73c:	052e0104 	streq	r0, [lr, #-260]!	; 0xfffffefc
     740:	04020044 	streq	r0, [r2], #-68	; 0xffffffbc
     744:	36056601 	strcc	r6, [r5], -r1, lsl #12
     748:	01040200 	mrseq	r0, R12_usr
     74c:	210e052e 	tstcs	lr, lr, lsr #10
     750:	052e1305 	streq	r1, [lr, #-773]!	; 0xfffffcfb
     754:	29052e05 	stmdbcs	r5, {r0, r2, r9, sl, fp, sp}
     758:	01040200 	mrseq	r0, R12_usr
     75c:	0044052e 	subeq	r0, r4, lr, lsr #10
     760:	66010402 	strvs	r0, [r1], -r2, lsl #8
     764:	02003605 	andeq	r3, r0, #5242880	; 0x500000
     768:	052e0104 	streq	r0, [lr, #-260]!	; 0xfffffefc
     76c:	1305210e 	movwne	r2, #20750	; 0x510e
     770:	2e05052e 	cfsh32cs	mvfx0, mvfx5, #30
     774:	02002905 	andeq	r2, r0, #81920	; 0x14000
     778:	052e0104 	streq	r0, [lr, #-260]!	; 0xfffffefc
     77c:	04020044 	streq	r0, [r2], #-68	; 0xffffffbc
     780:	36056601 	strcc	r6, [r5], -r1, lsl #12
     784:	01040200 	mrseq	r0, R12_usr
     788:	210e052e 	tstcs	lr, lr, lsr #10
     78c:	052e1305 	streq	r1, [lr, #-773]!	; 0xfffffcfb
     790:	29052e05 	stmdbcs	r5, {r0, r2, r9, sl, fp, sp}
     794:	01040200 	mrseq	r0, R12_usr
     798:	0044052e 	subeq	r0, r4, lr, lsr #10
     79c:	66010402 	strvs	r0, [r1], -r2, lsl #8
     7a0:	02003605 	andeq	r3, r0, #5242880	; 0x500000
     7a4:	052e0104 	streq	r0, [lr, #-260]!	; 0xfffffefc
     7a8:	1305210e 	movwne	r2, #20750	; 0x510e
     7ac:	2e05052e 	cfsh32cs	mvfx0, mvfx5, #30
     7b0:	02002905 	andeq	r2, r0, #81920	; 0x14000
     7b4:	052e0104 	streq	r0, [lr, #-260]!	; 0xfffffefc
     7b8:	04020044 	streq	r0, [r2], #-68	; 0xffffffbc
     7bc:	36056601 	strcc	r6, [r5], -r1, lsl #12
     7c0:	01040200 	mrseq	r0, R12_usr
     7c4:	2202052e 	andcs	r0, r2, #192937984	; 0xb800000
     7c8:	01000602 	tsteq	r0, r2, lsl #12
     7cc:	0006ff01 	andeq	pc, r6, r1, lsl #30
     7d0:	60000300 	andvs	r0, r0, r0, lsl #6
     7d4:	02000004 	andeq	r0, r0, #4
     7d8:	0d0efb01 	vstreq	d15, [lr, #-4]
     7dc:	01010100 	mrseq	r0, (UNDEF: 17)
     7e0:	00000001 	andeq	r0, r0, r1
     7e4:	01000001 	tsteq	r0, r1
     7e8:	4d2f2e2e 	stcmi	14, cr2, [pc, #-184]!	; 738 <_Min_Stack_Size+0x338>
     7ec:	004c4143 	subeq	r4, ip, r3, asr #2
     7f0:	552f3a43 	strpl	r3, [pc, #-2627]!	; fffffdb5 <_estack+0xdfffd5b5>
     7f4:	73726573 	cmnvc	r2, #482344960	; 0x1cc00000
     7f8:	64656d2f 	strbtvs	r6, [r5], #-3375	; 0xfffff2d1
     7fc:	442f6f6f 	strtmi	r6, [pc], #-3951	; 804 <_Min_Stack_Size+0x404>
     800:	746b7365 	strbtvc	r7, [fp], #-869	; 0xfffffc9b
     804:	572f706f 	strpl	r7, [pc, -pc, rrx]!
     808:	536b726f 	cmnpl	fp, #-268435450	; 0xf0000006
     80c:	65636170 	strbvs	r6, [r3, #-368]!	; 0xfffffe90
     810:	73654c2f 	cmnvc	r5, #12032	; 0x2f00
     814:	206e6f73 	rsbcs	r6, lr, r3, ror pc
     818:	58452f34 	stmdapl	r5, {r2, r4, r5, r8, r9, sl, fp, sp}^
     81c:	445f4954 	ldrbmi	r4, [pc], #-2388	; 824 <_Min_Stack_Size+0x424>
     820:	65766972 	ldrbvs	r6, [r6, #-2418]!	; 0xfffff68e
     824:	434d2f72 	movtmi	r2, #57202	; 0xdf72
     828:	692f4c41 	stmdbvs	pc!, {r0, r6, sl, fp, lr}	; <UNPREDICTABLE>
     82c:	4300636e 	movwmi	r6, #878	; 0x36e
     830:	54535c3a 	ldrbpl	r5, [r3], #-3130	; 0xfffff3c6
     834:	4d54535c 	ldclmi	3, cr5, [r4, #-368]	; 0xfffffe90
     838:	75433233 	strbvc	r3, [r3, #-563]	; 0xfffffdcd
     83c:	44496562 	strbmi	r6, [r9], #-1378	; 0xfffffa9e
     840:	2e315f45 	cdpcs	15, 3, cr5, cr1, cr5, {2}
     844:	322e3331 	eorcc	r3, lr, #-1006632960	; 0xc4000000
     848:	4d54535c 	ldclmi	3, cr5, [r4, #-368]	; 0xfffffe90
     84c:	75433233 	strbvc	r3, [r3, #-563]	; 0xfffffdcd
     850:	44496562 	strbmi	r6, [r9], #-1378	; 0xfffffa9e
     854:	6c705c45 	ldclvs	12, cr5, [r0], #-276	; 0xfffffeec
     858:	6e696775 	mcrvs	7, 3, r6, cr9, cr5, {3}
     85c:	6f635c73 	svcvs	0x00635c73
     860:	74732e6d 	ldrbtvc	r2, [r3], #-3693	; 0xfffff193
     864:	6d74732e 	ldclvs	3, cr7, [r4, #-184]!	; 0xffffff48
     868:	75633233 	strbvc	r3, [r3, #-563]!	; 0xfffffdcd
     86c:	692e6562 	stmdbvs	lr!, {r1, r5, r6, r8, sl, sp, lr}
     870:	6d2e6564 	cfstr32vs	mvfx6, [lr, #-400]!	; 0xfffffe70
     874:	652e7563 	strvs	r7, [lr, #-1379]!	; 0xfffffa9d
     878:	72657478 	rsbvc	r7, r5, #120, 8	; 0x78000000
     87c:	746c616e 	strbtvc	r6, [ip], #-366	; 0xfffffe92
     880:	736c6f6f 	cmnvc	ip, #444	; 0x1bc
     884:	756e672e 	strbvc	r6, [lr, #-1838]!	; 0xfffff8d2
     888:	6f6f742d 	svcvs	0x006f742d
     88c:	662d736c 	strtvs	r7, [sp], -ip, ror #6
     890:	732d726f 			; <UNDEFINED> instruction: 0x732d726f
     894:	32336d74 	eorscc	r6, r3, #116, 26	; 0x1d00
     898:	2e31312e 	rsfcssp	f3, f1, #0.5
     89c:	65722e33 	ldrbvs	r2, [r2, #-3635]!	; 0xfffff1cd
     8a0:	772e316c 	strvc	r3, [lr, -ip, ror #2]!
     8a4:	32336e69 	eorscc	r6, r3, #1680	; 0x690
     8a8:	312e315f 			; <UNDEFINED> instruction: 0x312e315f
     8ac:	322e312e 	eorcc	r3, lr, #-2147483637	; 0x8000000b
     8b0:	30333230 	eorscc	r3, r3, r0, lsr r2
     8b4:	31333139 	teqcc	r3, r9, lsr r1
     8b8:	5c363236 	lfmpl	f3, 4, [r6], #-216	; 0xffffff28
     8bc:	6c6f6f74 	stclvs	15, cr6, [pc], #-464	; 6f4 <_Min_Stack_Size+0x2f4>
     8c0:	69625c73 	stmdbvs	r2!, {r0, r1, r4, r5, r6, sl, fp, ip, lr}^
     8c4:	2e2e2f6e 	cdpcs	15, 2, cr2, cr14, cr14, {3}
     8c8:	62696c2f 	rsbvs	r6, r9, #12032	; 0x2f00
     8cc:	6363672f 	cmnvs	r3, #12320768	; 0xbc0000
     8d0:	6d72612f 	ldfvse	f6, [r2, #-188]!	; 0xffffff44
     8d4:	6e6f6e2d 	cdpvs	14, 6, cr6, cr15, cr13, {1}
     8d8:	61652d65 	cmnvs	r5, r5, ror #26
     8dc:	312f6962 			; <UNDEFINED> instruction: 0x312f6962
     8e0:	2e332e31 	mrccs	14, 1, r2, cr3, cr1, {1}
     8e4:	6e692f31 	mcrvs	15, 3, r2, cr9, cr1, {1}
     8e8:	64756c63 	ldrbtvs	r6, [r5], #-3171	; 0xfffff39d
     8ec:	3a430065 	bcc	10c0a88 <_Min_Stack_Size+0x10c0688>
     8f0:	5c54535c 	mrrcpl	3, 5, r5, r4, cr12
     8f4:	334d5453 	movtcc	r5, #54355	; 0xd453
     8f8:	62754332 	rsbsvs	r4, r5, #-939524096	; 0xc8000000
     8fc:	45444965 	strbmi	r4, [r4, #-2405]	; 0xfffff69b
     900:	312e315f 			; <UNDEFINED> instruction: 0x312e315f
     904:	5c322e33 	ldcpl	14, cr2, [r2], #-204	; 0xffffff34
     908:	334d5453 	movtcc	r5, #54355	; 0xd453
     90c:	62754332 	rsbsvs	r4, r5, #-939524096	; 0xc8000000
     910:	45444965 	strbmi	r4, [r4, #-2405]	; 0xfffff69b
     914:	756c705c 	strbvc	r7, [ip, #-92]!	; 0xffffffa4
     918:	736e6967 	cmnvc	lr, #1687552	; 0x19c000
     91c:	6d6f635c 	stclvs	3, cr6, [pc, #-368]!	; 7b4 <_Min_Stack_Size+0x3b4>
     920:	2e74732e 	cdpcs	3, 7, cr7, cr4, cr14, {1}
     924:	336d7473 	cmncc	sp, #1929379840	; 0x73000000
     928:	62756332 	rsbsvs	r6, r5, #-939524096	; 0xc8000000
     92c:	64692e65 	strbtvs	r2, [r9], #-3685	; 0xfffff19b
     930:	636d2e65 	cmnvs	sp, #1616	; 0x650
     934:	78652e75 	stmdavc	r5!, {r0, r2, r4, r5, r6, r9, sl, fp, sp}^
     938:	6e726574 	mrcvs	5, 3, r6, cr2, cr4, {3}
     93c:	6f746c61 	svcvs	0x00746c61
     940:	2e736c6f 	cdpcs	12, 7, cr6, cr3, cr15, {3}
     944:	2d756e67 	ldclcs	14, cr6, [r5, #-412]!	; 0xfffffe64
     948:	6c6f6f74 	stclvs	15, cr6, [pc], #-464	; 780 <_Min_Stack_Size+0x380>
     94c:	6f662d73 	svcvs	0x00662d73
     950:	74732d72 	ldrbtvc	r2, [r3], #-3442	; 0xfffff28e
     954:	2e32336d 	cdpcs	3, 3, cr3, cr2, cr13, {3}
     958:	332e3131 			; <UNDEFINED> instruction: 0x332e3131
     95c:	6c65722e 	sfmvs	f7, 2, [r5], #-184	; 0xffffff48
     960:	69772e31 	ldmdbvs	r7!, {r0, r4, r5, r9, sl, fp, sp}^
     964:	5f32336e 	svcpl	0x0032336e
     968:	2e312e31 	mrccs	14, 1, r2, cr1, cr1, {1}
     96c:	30322e31 	eorscc	r2, r2, r1, lsr lr
     970:	39303332 	ldmdbcc	r0!, {r1, r4, r5, r8, r9, ip, sp}
     974:	36313331 			; <UNDEFINED> instruction: 0x36313331
     978:	745c3632 	ldrbvc	r3, [ip], #-1586	; 0xfffff9ce
     97c:	736c6f6f 	cmnvc	ip, #444	; 0x1bc
     980:	6e69625c 	mcrvs	2, 3, r6, cr9, cr12, {2}
     984:	2f2e2e2f 	svccs	0x002e2e2f
     988:	2f62696c 	svccs	0x0062696c
     98c:	2f636367 	svccs	0x00636367
     990:	2d6d7261 	sfmcs	f7, 2, [sp, #-388]!	; 0xfffffe7c
     994:	656e6f6e 	strbvs	r6, [lr, #-3950]!	; 0xfffff092
     998:	6261652d 	rsbvs	r6, r1, #188743680	; 0xb400000
     99c:	31312f69 	teqcc	r1, r9, ror #30
     9a0:	312e332e 			; <UNDEFINED> instruction: 0x312e332e
     9a4:	2f2e2e2f 	svccs	0x002e2e2f
     9a8:	2e2f2e2e 	cdpcs	14, 2, cr2, cr15, cr14, {1}
     9ac:	2e2e2f2e 	cdpcs	15, 2, cr2, cr14, cr14, {1}
     9b0:	6d72612f 	ldfvse	f6, [r2, #-188]!	; 0xffffff44
     9b4:	6e6f6e2d 	cdpvs	14, 6, cr6, cr15, cr13, {1}
     9b8:	61652d65 	cmnvs	r5, r5, ror #26
     9bc:	692f6962 	stmdbvs	pc!, {r1, r5, r6, r8, fp, sp, lr}	; <UNPREDICTABLE>
     9c0:	756c636e 	strbvc	r6, [ip, #-878]!	; 0xfffffc92
     9c4:	43006564 	movwmi	r6, #1380	; 0x564
     9c8:	54535c3a 	ldrbpl	r5, [r3], #-3130	; 0xfffff3c6
     9cc:	4d54535c 	ldclmi	3, cr5, [r4, #-368]	; 0xfffffe90
     9d0:	75433233 	strbvc	r3, [r3, #-563]	; 0xfffffdcd
     9d4:	44496562 	strbmi	r6, [r9], #-1378	; 0xfffffa9e
     9d8:	2e315f45 	cdpcs	15, 3, cr5, cr1, cr5, {2}
     9dc:	322e3331 	eorcc	r3, lr, #-1006632960	; 0xc4000000
     9e0:	4d54535c 	ldclmi	3, cr5, [r4, #-368]	; 0xfffffe90
     9e4:	75433233 	strbvc	r3, [r3, #-563]	; 0xfffffdcd
     9e8:	44496562 	strbmi	r6, [r9], #-1378	; 0xfffffa9e
     9ec:	6c705c45 	ldclvs	12, cr5, [r0], #-276	; 0xfffffeec
     9f0:	6e696775 	mcrvs	7, 3, r6, cr9, cr5, {3}
     9f4:	6f635c73 	svcvs	0x00635c73
     9f8:	74732e6d 	ldrbtvc	r2, [r3], #-3693	; 0xfffff193
     9fc:	6d74732e 	ldclvs	3, cr7, [r4, #-184]!	; 0xffffff48
     a00:	75633233 	strbvc	r3, [r3, #-563]!	; 0xfffffdcd
     a04:	692e6562 	stmdbvs	lr!, {r1, r5, r6, r8, sl, sp, lr}
     a08:	6d2e6564 	cfstr32vs	mvfx6, [lr, #-400]!	; 0xfffffe70
     a0c:	652e7563 	strvs	r7, [lr, #-1379]!	; 0xfffffa9d
     a10:	72657478 	rsbvc	r7, r5, #120, 8	; 0x78000000
     a14:	746c616e 	strbtvc	r6, [ip], #-366	; 0xfffffe92
     a18:	736c6f6f 	cmnvc	ip, #444	; 0x1bc
     a1c:	756e672e 	strbvc	r6, [lr, #-1838]!	; 0xfffff8d2
     a20:	6f6f742d 	svcvs	0x006f742d
     a24:	662d736c 	strtvs	r7, [sp], -ip, ror #6
     a28:	732d726f 			; <UNDEFINED> instruction: 0x732d726f
     a2c:	32336d74 	eorscc	r6, r3, #116, 26	; 0x1d00
     a30:	2e31312e 	rsfcssp	f3, f1, #0.5
     a34:	65722e33 	ldrbvs	r2, [r2, #-3635]!	; 0xfffff1cd
     a38:	772e316c 	strvc	r3, [lr, -ip, ror #2]!
     a3c:	32336e69 	eorscc	r6, r3, #1680	; 0x690
     a40:	312e315f 			; <UNDEFINED> instruction: 0x312e315f
     a44:	322e312e 	eorcc	r3, lr, #-2147483637	; 0x8000000b
     a48:	30333230 	eorscc	r3, r3, r0, lsr r2
     a4c:	31333139 	teqcc	r3, r9, lsr r1
     a50:	5c363236 	lfmpl	f3, 4, [r6], #-216	; 0xffffff28
     a54:	6c6f6f74 	stclvs	15, cr6, [pc], #-464	; 88c <_Min_Stack_Size+0x48c>
     a58:	69625c73 	stmdbvs	r2!, {r0, r1, r4, r5, r6, sl, fp, ip, lr}^
     a5c:	2e2e2f6e 	cdpcs	15, 2, cr2, cr14, cr14, {3}
     a60:	62696c2f 	rsbvs	r6, r9, #12032	; 0x2f00
     a64:	6363672f 	cmnvs	r3, #12320768	; 0xbc0000
     a68:	6d72612f 	ldfvse	f6, [r2, #-188]!	; 0xffffff44
     a6c:	6e6f6e2d 	cdpvs	14, 6, cr6, cr15, cr13, {1}
     a70:	61652d65 	cmnvs	r5, r5, ror #26
     a74:	312f6962 			; <UNDEFINED> instruction: 0x312f6962
     a78:	2e332e31 	mrccs	14, 1, r2, cr3, cr1, {1}
     a7c:	2e2e2f31 	mcrcs	15, 1, r2, cr14, cr1, {1}
     a80:	2f2e2e2f 	svccs	0x002e2e2f
     a84:	2e2f2e2e 	cdpcs	14, 2, cr2, cr15, cr14, {1}
     a88:	72612f2e 	rsbvc	r2, r1, #46, 30	; 0xb8
     a8c:	6f6e2d6d 	svcvs	0x006e2d6d
     a90:	652d656e 	strvs	r6, [sp, #-1390]!	; 0xfffffa92
     a94:	2f696261 	svccs	0x00696261
     a98:	6c636e69 	stclvs	14, cr6, [r3], #-420	; 0xfffffe5c
     a9c:	2f656475 	svccs	0x00656475
     aa0:	6863616d 	stmdavs	r3!, {r0, r2, r3, r5, r6, r8, sp, lr}^
     aa4:	00656e69 	rsbeq	r6, r5, r9, ror #28
     aa8:	535c3a43 	cmppl	ip, #274432	; 0x43000
     aac:	54535c54 	ldrbpl	r5, [r3], #-3156	; 0xfffff3ac
     ab0:	4332334d 	teqmi	r2, #872415233	; 0x34000001
     ab4:	49656275 	stmdbmi	r5!, {r0, r2, r4, r5, r6, r9, sp, lr}^
     ab8:	315f4544 	cmpcc	pc, r4, asr #10
     abc:	2e33312e 	rsfcssp	f3, f3, #0.5
     ac0:	54535c32 	ldrbpl	r5, [r3], #-3122	; 0xfffff3ce
     ac4:	4332334d 	teqmi	r2, #872415233	; 0x34000001
     ac8:	49656275 	stmdbmi	r5!, {r0, r2, r4, r5, r6, r9, sp, lr}^
     acc:	705c4544 	subsvc	r4, ip, r4, asr #10
     ad0:	6967756c 	stmdbvs	r7!, {r2, r3, r5, r6, r8, sl, ip, sp, lr}^
     ad4:	635c736e 	cmpvs	ip, #-1207959551	; 0xb8000001
     ad8:	732e6d6f 			; <UNDEFINED> instruction: 0x732e6d6f
     adc:	74732e74 	ldrbtvc	r2, [r3], #-3700	; 0xfffff18c
     ae0:	6332336d 	teqvs	r2, #-1275068415	; 0xb4000001
     ae4:	2e656275 	mcrcs	2, 3, r6, cr5, cr5, {3}
     ae8:	2e656469 	cdpcs	4, 6, cr6, cr5, cr9, {3}
     aec:	2e75636d 	cdpcs	3, 7, cr6, cr5, cr13, {3}
     af0:	65747865 	ldrbvs	r7, [r4, #-2149]!	; 0xfffff79b
     af4:	6c616e72 	stclvs	14, cr6, [r1], #-456	; 0xfffffe38
     af8:	6c6f6f74 	stclvs	15, cr6, [pc], #-464	; 930 <_Min_Stack_Size+0x530>
     afc:	6e672e73 	mcrvs	14, 3, r2, cr7, cr3, {3}
     b00:	6f742d75 	svcvs	0x00742d75
     b04:	2d736c6f 	ldclcs	12, cr6, [r3, #-444]!	; 0xfffffe44
     b08:	2d726f66 	ldclcs	15, cr6, [r2, #-408]!	; 0xfffffe68
     b0c:	336d7473 	cmncc	sp, #1929379840	; 0x73000000
     b10:	31312e32 	teqcc	r1, r2, lsr lr
     b14:	722e332e 	eorvc	r3, lr, #-1207959552	; 0xb8000000
     b18:	2e316c65 	cdpcs	12, 3, cr6, cr1, cr5, {3}
     b1c:	336e6977 	cmncc	lr, #1949696	; 0x1dc000
     b20:	2e315f32 	mrccs	15, 1, r5, cr1, cr2, {1}
     b24:	2e312e31 	mrccs	14, 1, r2, cr1, cr1, {1}
     b28:	33323032 	teqcc	r2, #50	; 0x32
     b2c:	33313930 	teqcc	r1, #48, 18	; 0xc0000
     b30:	36323631 			; <UNDEFINED> instruction: 0x36323631
     b34:	6f6f745c 	svcvs	0x006f745c
     b38:	625c736c 	subsvs	r7, ip, #108, 6	; 0xb0000001
     b3c:	2e2f6e69 	cdpcs	14, 2, cr6, cr15, cr9, {3}
     b40:	696c2f2e 	stmdbvs	ip!, {r1, r2, r3, r5, r8, r9, sl, fp, sp}^
     b44:	63672f62 	cmnvs	r7, #392	; 0x188
     b48:	72612f63 	rsbvc	r2, r1, #396	; 0x18c
     b4c:	6f6e2d6d 	svcvs	0x006e2d6d
     b50:	652d656e 	strvs	r6, [sp, #-1390]!	; 0xfffffa92
     b54:	2f696261 	svccs	0x00696261
     b58:	332e3131 			; <UNDEFINED> instruction: 0x332e3131
     b5c:	2e2f312e 	sufcsep	f3, f7, #0.5
     b60:	2e2e2f2e 	cdpcs	15, 2, cr2, cr14, cr14, {1}
     b64:	2f2e2e2f 	svccs	0x002e2e2f
     b68:	612f2e2e 			; <UNDEFINED> instruction: 0x612f2e2e
     b6c:	6e2d6d72 	mcrvs	13, 1, r6, cr13, cr2, {3}
     b70:	2d656e6f 	stclcs	14, cr6, [r5, #-444]!	; 0xfffffe44
     b74:	69626165 	stmdbvs	r2!, {r0, r2, r5, r6, r8, sp, lr}^
     b78:	636e692f 	cmnvs	lr, #770048	; 0xbc000
     b7c:	6564756c 	strbvs	r7, [r4, #-1388]!	; 0xfffffa94
     b80:	7379732f 	cmnvc	r9, #-1140850688	; 0xbc000000
     b84:	50470000 	subpl	r0, r7, r0
     b88:	445f4f49 	ldrbmi	r4, [pc], #-3913	; b90 <_Min_Stack_Size+0x790>
     b8c:	65766972 	ldrbvs	r6, [r6, #-2418]!	; 0xfffff68e
     b90:	00632e72 	rsbeq	r2, r3, r2, ror lr
     b94:	50000001 	andpl	r0, r0, r1
     b98:	6674616c 	ldrbtvs	r6, [r4], -ip, ror #2
     b9c:	5f6d726f 	svcpl	0x006d726f
     ba0:	65707954 	ldrbvs	r7, [r0, #-2388]!	; 0xfffff6ac
     ba4:	00682e73 	rsbeq	r2, r8, r3, ror lr
     ba8:	53000002 	movwpl	r0, #2
     bac:	32334d54 	eorscc	r4, r3, #84, 26	; 0x1500
     bb0:	33303146 	teqcc	r0, #-2147483631	; 0x80000011
     bb4:	682e3678 	stmdavs	lr!, {r3, r4, r5, r6, r9, sl, ip, sp}
     bb8:	00000200 	andeq	r0, r0, r0, lsl #4
     bbc:	4f495047 	svcmi	0x00495047
     bc0:	6972445f 	ldmdbvs	r2!, {r0, r1, r2, r3, r4, r6, sl, lr}^
     bc4:	2e726576 	mrccs	5, 3, r6, cr2, cr6, {3}
     bc8:	00020068 	andeq	r0, r2, r8, rrx
     bcc:	64747300 	ldrbtvs	r7, [r4], #-768	; 0xfffffd00
     bd0:	2e746e69 	cdpcs	14, 7, cr6, cr4, cr9, {3}
     bd4:	00030068 	andeq	r0, r3, r8, rrx
     bd8:	64747300 	ldrbtvs	r7, [r4], #-768	; 0xfffffd00
     bdc:	2e746e69 	cdpcs	14, 7, cr6, cr4, cr9, {3}
     be0:	00040068 	andeq	r0, r4, r8, rrx
     be4:	65645f00 	strbvs	r5, [r4, #-3840]!	; 0xfffff100
     be8:	6c756166 	ldfvse	f6, [r5], #-408	; 0xfffffe68
     bec:	79745f74 	ldmdbvc	r4!, {r2, r4, r5, r6, r8, r9, sl, fp, ip, lr}^
     bf0:	2e736570 	mrccs	5, 3, r6, cr3, cr0, {3}
     bf4:	00050068 	andeq	r0, r5, r8, rrx
     bf8:	61656600 	cmnvs	r5, r0, lsl #12
     bfc:	65727574 	ldrbvs	r7, [r2, #-1396]!	; 0xfffffa8c
     c00:	00682e73 	rsbeq	r2, r8, r3, ror lr
     c04:	5f000006 	svcpl	0x00000006
     c08:	6c77656e 	cfldr64vs	mvdx6, [r7], #-440	; 0xfffffe48
     c0c:	765f6269 	ldrbvc	r6, [pc], -r9, ror #4
     c10:	69737265 	ldmdbvs	r3!, {r0, r2, r5, r6, r9, ip, sp, lr}^
     c14:	682e6e6f 	stmdavs	lr!, {r0, r1, r2, r3, r5, r6, r9, sl, fp, sp, lr}
     c18:	00000400 	andeq	r0, r0, r0, lsl #8
     c1c:	746e695f 	strbtvc	r6, [lr], #-2399	; 0xfffff6a1
     c20:	2e707573 	mrccs	5, 3, r7, cr0, cr3, {3}
     c24:	00060068 	andeq	r0, r6, r8, rrx
     c28:	74735f00 	ldrbtvc	r5, [r3], #-3840	; 0xfffff100
     c2c:	746e6964 	strbtvc	r6, [lr], #-2404	; 0xfffff69c
     c30:	0600682e 	streq	r6, [r0], -lr, lsr #16
     c34:	05000000 	streq	r0, [r0, #-0]
     c38:	02050029 	andeq	r0, r5, #41	; 0x29
     c3c:	080006d8 	stmdaeq	r0, {r3, r4, r6, r7, r9, sl}
     c40:	05010903 	streq	r0, [r1, #-2307]	; 0xfffff6fd
     c44:	0200590c 	andeq	r5, r0, #12, 18	; 0x30000
     c48:	3c060104 	stfccs	f0, [r6], {4}
     c4c:	02040200 	andeq	r0, r4, #0, 4
     c50:	0402004a 	streq	r0, [r2], #-74	; 0xffffffb6
     c54:	08055804 	stmdaeq	r5, {r2, fp, ip, lr}
     c58:	04040200 	streq	r0, [r4], #-512	; 0xfffffe00
     c5c:	01052106 	tsteq	r5, r6, lsl #2
     c60:	04040200 	streq	r0, [r4], #-512	; 0xfffffe00
     c64:	00050221 	andeq	r0, r5, r1, lsr #4
     c68:	37050101 	strcc	r0, [r5, -r1, lsl #2]
     c6c:	08020500 	stmdaeq	r2, {r8, sl}
     c70:	03080007 	movweq	r0, #32775	; 0x8007
     c74:	1a05010d 	bne	1410b0 <_Min_Stack_Size+0x140cb0>
     c78:	3c3a0559 	cfldr32cc	mvfx0, [sl], #-356	; 0xfffffe9c
     c7c:	01040200 	mrseq	r0, R12_usr
     c80:	02002e06 	andeq	r2, r0, #6, 28	; 0x60
     c84:	052e0204 	streq	r0, [lr, #-516]!	; 0xfffffdfc
     c88:	0402000e 	streq	r0, [r2], #-14
     c8c:	052e0604 	streq	r0, [lr, #-1540]!	; 0xfffff9fc
     c90:	0402002a 	streq	r0, [r2], #-42	; 0xffffffd6
     c94:	16052104 	strne	r2, [r5], -r4, lsl #2
     c98:	04040200 	streq	r0, [r4], #-512	; 0xfffffe00
     c9c:	0014053c 	andseq	r0, r4, ip, lsr r5
     ca0:	58040402 	stmdapl	r4, {r1, sl}
     ca4:	02000e05 	andeq	r0, r0, #5, 28	; 0x50
     ca8:	052e0404 	streq	r0, [lr, #-1028]!	; 0xfffffbfc
     cac:	0402000c 	streq	r0, [r2], #-12
     cb0:	09052004 	stmdbeq	r5, {r2, sp}
     cb4:	04040200 	streq	r0, [r4], #-512	; 0xfffffe00
     cb8:	0004055b 	andeq	r0, r4, fp, asr r5
     cbc:	3c040402 	cfstrscc	mvf0, [r4], {2}
     cc0:	02002005 	andeq	r2, r0, #5
     cc4:	052e0104 	streq	r0, [lr, #-260]!	; 0xfffffefc
     cc8:	0402001a 	streq	r0, [r2], #-26	; 0xffffffe6
     ccc:	39053c01 	stmdbcc	r5, {r0, sl, fp, ip, sp}
     cd0:	02040200 	andeq	r0, r4, #0, 4
     cd4:	0033052e 	eorseq	r0, r3, lr, lsr #10
     cd8:	3c020402 	cfstrscc	mvf0, [r2], {2}
     cdc:	02005205 	andeq	r5, r0, #1342177280	; 0x50000000
     ce0:	052e0304 	streq	r0, [lr, #-772]!	; 0xfffffcfc
     ce4:	0402004c 	streq	r0, [r2], #-76	; 0xffffffb4
     ce8:	0a053c03 	beq	14fcfc <_Min_Stack_Size+0x14f8fc>
     cec:	3c05052f 	cfstr32cc	mvfx0, [r5], {47}	; 0x2f
     cf0:	052f3905 	streq	r3, [pc, #-2309]!	; 3f3 <_Min_Heap_Size+0x1f3>
     cf4:	22053c25 	andcs	r3, r5, #9472	; 0x2500
     cf8:	3c0e0558 	cfstr32cc	mvfx0, [lr], {88}	; 0x58
     cfc:	05591b05 	ldrbeq	r1, [r9, #-2821]	; 0xfffff4fb
     d00:	11054a14 	tstne	r5, r4, lsl sl
     d04:	200f052e 	andcs	r0, pc, lr, lsr #10
     d08:	05560505 	ldrbeq	r0, [r6, #-1285]	; 0xfffffafb
     d0c:	0a05250f 	beq	14a150 <_Min_Stack_Size+0x149d50>
     d10:	2f3a053c 	svccs	0x003a053c
     d14:	053c2605 	ldreq	r2, [ip, #-1541]!	; 0xfffff9fb
     d18:	0e055823 	cdpeq	8, 0, cr5, cr5, cr3, {1}
     d1c:	591a053c 	ldmdbpl	sl, {r2, r3, r4, r5, r8, sl}
     d20:	054a1305 	strbeq	r1, [sl, #-773]	; 0xfffffcfb
     d24:	05053c0f 	streq	r3, [r5, #-3087]	; 0xfffff3f1
     d28:	05587903 	ldrbeq	r7, [r8, #-2307]	; 0xfffff6fd
     d2c:	200a0316 	andcs	r0, sl, r6, lsl r3
     d30:	053c1d05 	ldreq	r1, [ip, #-3333]!	; 0xfffff2fb
     d34:	2805203c 	stmdacs	r5, {r2, r3, r4, r5, sp}
     d38:	4a25053c 	bmi	942230 <_Min_Stack_Size+0x941e30>
     d3c:	052e0e05 	streq	r0, [lr, #-3589]!	; 0xfffff1fb
     d40:	58760305 	ldmdapl	r6!, {r0, r2, r8, r9}^
     d44:	0f031705 	svceq	0x00031705
     d48:	3c1e0520 	cfldr32cc	mvfx0, [lr], {32}
     d4c:	05202305 	streq	r2, [r0, #-773]!	; 0xfffffcfb
     d50:	2805202e 	stmdacs	r5, {r1, r2, r3, r5, sp}
     d54:	2e4f053c 	mcrcs	5, 2, r0, cr15, cr12, {1}
     d58:	053c3b05 	ldreq	r3, [ip, #-2821]!	; 0xfffff4fb
     d5c:	0d054a38 	vstreq	s8, [r5, #-224]	; 0xffffff20
     d60:	5c01052e 	cfstr32pl	mvfx0, [r1], {46}	; 0x2e
     d64:	01000502 	tsteq	r0, r2, lsl #10
     d68:	00280501 	eoreq	r0, r8, r1, lsl #10
     d6c:	00000205 	andeq	r0, r0, r5, lsl #4
     d70:	27030000 	strcs	r0, [r3, -r0]
     d74:	4b040501 	blmi	102180 <_Min_Stack_Size+0x101d80>
     d78:	674b1105 	strbvs	r1, [fp, -r5, lsl #2]
     d7c:	15030105 	strne	r0, [r3, #-261]	; 0xfffffefb
     d80:	030a0566 	movweq	r0, #42342	; 0xa566
     d84:	1105206d 	tstne	r5, sp, rrx
     d88:	0105674b 	tsteq	r5, fp, asr #14
     d8c:	05661103 	strbeq	r1, [r6, #-259]!	; 0xfffffefd
     d90:	2071030a 	rsbscs	r0, r1, sl, lsl #6
     d94:	674b1105 	strbvs	r1, [fp, -r5, lsl #2]
     d98:	0d030105 	stfeqs	f0, [r3, #-20]	; 0xffffffec
     d9c:	030a0566 	movweq	r0, #42342	; 0xa566
     da0:	11052075 	tstne	r5, r5, ror r0
     da4:	0105674b 	tsteq	r5, fp, asr #14
     da8:	05660903 	strbeq	r0, [r6, #-2307]!	; 0xfffff6fd
     dac:	2079030a 	rsbscs	r0, r9, sl, lsl #6
     db0:	674b1105 	strbvs	r1, [fp, -r5, lsl #2]
     db4:	026b0105 	rsbeq	r0, fp, #1073741825	; 0x40000001
     db8:	01010012 	tsteq	r1, r2, lsl r0
     dbc:	05004c05 	streq	r4, [r0, #-3077]	; 0xfffff3fb
     dc0:	00000002 	andeq	r0, r0, r2
     dc4:	00c00300 	sbceq	r0, r0, r0, lsl #6
     dc8:	830b0501 	movwhi	r0, #46337	; 0xb501
     dcc:	052e0405 	streq	r0, [lr, #-1029]!	; 0xfffffbfb
     dd0:	0e052f12 	mcreq	15, 0, r2, cr5, cr2, {0}
     dd4:	60010566 	andvs	r0, r1, r6, ror #10
     dd8:	7a031305 	bvc	c59f4 <_Min_Stack_Size+0xc55f4>
     ddc:	58100520 	ldmdapl	r0, {r5, r8, sl}
     de0:	05200e05 	streq	r0, [r0, #-3589]!	; 0xfffff1fb
     de4:	05025e01 	streq	r5, [r2, #-3585]	; 0xfffff1ff
     de8:	05010100 	streq	r0, [r1, #-256]	; 0xffffff00
     dec:	02050038 	andeq	r0, r5, #56	; 0x38
     df0:	00000000 	andeq	r0, r0, r0
     df4:	0100cc03 	tsteq	r0, r3, lsl #24
     df8:	05670c05 	strbeq	r0, [r7, #-3077]!	; 0xfffff3fb
     dfc:	05025b01 	streq	r5, [r2, #-2817]	; 0xfffff4ff
     e00:	05010100 	streq	r0, [r1, #-256]	; 0xffffff00
     e04:	02050040 	andeq	r0, r5, #64	; 0x40
     e08:	00000000 	andeq	r0, r0, r0
     e0c:	0100d103 	tsteq	r0, r3, lsl #2
     e10:	05680f05 	strbeq	r0, [r8, #-3845]!	; 0xfffff0fb
     e14:	18052e15 	stmdane	r5, {r0, r2, r4, r9, sl, fp, sp}
     e18:	58150520 	ldmdapl	r5, {r5, r8, sl}
     e1c:	023e0105 	eorseq	r0, lr, #1073741825	; 0x40000001
     e20:	01010005 	tsteq	r1, r5
     e24:	05002b05 	streq	r2, [r0, #-2821]	; 0xfffff4fb
     e28:	00000002 	andeq	r0, r0, r2
     e2c:	00d60300 	sbcseq	r0, r6, r0, lsl #6
     e30:	4b0f0501 	blmi	3c223c <_Min_Stack_Size+0x3c1e3c>
     e34:	023d0105 	eorseq	r0, sp, #1073741825	; 0x40000001
     e38:	01010005 	tsteq	r1, r5
     e3c:	05003d05 	streq	r3, [r0, #-3333]	; 0xfffff2fb
     e40:	00000002 	andeq	r0, r0, r2
     e44:	00d90300 	sbcseq	r0, r9, r0, lsl #6
     e48:	67110501 	ldrvs	r0, [r1, -r1, lsl #10]
     e4c:	05660d05 	strbeq	r0, [r6, #-3333]!	; 0xfffff2fb
     e50:	05025901 	streq	r5, [r2, #-2305]	; 0xfffff6ff
     e54:	05010100 	streq	r0, [r1, #-256]	; 0xffffff00
     e58:	0205003f 	andeq	r0, r5, #63	; 0x3f
     e5c:	00000000 	andeq	r0, r0, r0
     e60:	0100de03 	tsteq	r0, r3, lsl #28
     e64:	05670b05 	strbeq	r0, [r7, #-2821]!	; 0xfffff4fb
     e68:	18052f1b 	stmdane	r5, {r0, r1, r3, r4, r8, r9, sl, fp, sp}
     e6c:	3c0e0558 	cfstr32cc	mvfx0, [lr], {88}	; 0x58
     e70:	05311b05 	ldreq	r1, [r1, #-2821]!	; 0xfffff4fb
     e74:	0e055818 	mcreq	8, 0, r5, cr5, cr8, {0}
     e78:	3118053c 	tstcc	r8, ip, lsr r5
     e7c:	05660e05 	strbeq	r0, [r6, #-3589]!	; 0xfffff1fb
     e80:	1805311b 	stmdane	r5, {r0, r1, r3, r4, r8, ip, sp}
     e84:	3c0e0558 	cfstr32cc	mvfx0, [lr], {88}	; 0x58
     e88:	05310c05 	ldreq	r0, [r1, #-3077]!	; 0xfffff3fb
     e8c:	04052e13 	streq	r2, [r5], #-3603	; 0xfffff1ed
     e90:	2f08052e 	svccs	0x0008052e
     e94:	05300b05 	ldreq	r0, [r0, #-2821]!	; 0xfffff4fb
     e98:	04052e12 	streq	r2, [r5], #-3602	; 0xfffff1ee
     e9c:	2f08052e 	svccs	0x0008052e
     ea0:	05300905 	ldreq	r0, [r0, #-2309]!	; 0xfffff6fb
     ea4:	05022101 	streq	r2, [r2, #-257]	; 0xfffffeff
     ea8:	05010100 	streq	r0, [r1, #-256]	; 0xffffff00
     eac:	0205003a 	andeq	r0, r5, #58	; 0x3a
     eb0:	00000000 	andeq	r0, r0, r0
     eb4:	0100f503 	tsteq	r0, r3, lsl #10	; <UNPREDICTABLE>
     eb8:	05670405 	strbeq	r0, [r7, #-1029]!	; 0xfffffbfb
     ebc:	0d053d0e 	stceq	13, cr3, [r5, #-56]	; 0xffffffc8
     ec0:	5101054b 	tstpl	r1, fp, asr #10
     ec4:	4b1b0d05 	blmi	6c42e0 <_Min_Stack_Size+0x6c3ee0>
     ec8:	024e0105 	subeq	r0, lr, #1073741825	; 0x40000001
     ecc:	01010005 	tsteq	r1, r5
     ed0:	000005cc 	andeq	r0, r0, ip, asr #11
     ed4:	04bc0003 	ldrteq	r0, [ip], #3
     ed8:	01020000 	mrseq	r0, (UNDEF: 2)
     edc:	000d0efb 	strdeq	r0, [sp], -fp
     ee0:	01010101 	tsteq	r1, r1, lsl #2
     ee4:	01000000 	mrseq	r0, (UNDEF: 0)
     ee8:	2e010000 	cdpcs	0, 0, cr0, cr1, cr0, {0}
     eec:	72532f2e 	subsvc	r2, r3, #46, 30	; 0xb8
     ef0:	3a430063 	bcc	10c1084 <_Min_Stack_Size+0x10c0c84>
     ef4:	6573552f 	ldrbvs	r5, [r3, #-1327]!	; 0xfffffad1
     ef8:	6d2f7372 	stcvs	3, cr7, [pc, #-456]!	; d38 <_Min_Stack_Size+0x938>
     efc:	6f6f6465 	svcvs	0x006f6465
     f00:	7365442f 	cmnvc	r5, #788529152	; 0x2f000000
     f04:	706f746b 	rsbvc	r7, pc, fp, ror #8
     f08:	726f572f 	rsbvc	r5, pc, #12320768	; 0xbc0000
     f0c:	6170536b 	cmnvs	r0, fp, ror #6
     f10:	4c2f6563 	cfstr32mi	mvfx6, [pc], #-396	; d8c <_Min_Stack_Size+0x98c>
     f14:	6f737365 	svcvs	0x00737365
     f18:	2f34206e 	svccs	0x0034206e
     f1c:	49545845 	ldmdbmi	r4, {r0, r2, r6, fp, ip, lr}^
     f20:	6972445f 	ldmdbvs	r2!, {r0, r1, r2, r3, r4, r6, sl, lr}^
     f24:	2f726576 	svccs	0x00726576
     f28:	4c41434d 	mcrrmi	3, 4, r4, r1, cr13
     f2c:	636e692f 	cmnvs	lr, #770048	; 0xbc000
     f30:	5c3a4300 	ldcpl	3, cr4, [sl], #-0
     f34:	535c5453 	cmppl	ip, #1392508928	; 0x53000000
     f38:	32334d54 	eorscc	r4, r3, #84, 26	; 0x1500
     f3c:	65627543 	strbvs	r7, [r2, #-1347]!	; 0xfffffabd
     f40:	5f454449 	svcpl	0x00454449
     f44:	33312e31 	teqcc	r1, #784	; 0x310
     f48:	535c322e 	cmppl	ip, #-536870910	; 0xe0000002
     f4c:	32334d54 	eorscc	r4, r3, #84, 26	; 0x1500
     f50:	65627543 	strbvs	r7, [r2, #-1347]!	; 0xfffffabd
     f54:	5c454449 	cfstrdpl	mvd4, [r5], {73}	; 0x49
     f58:	67756c70 			; <UNDEFINED> instruction: 0x67756c70
     f5c:	5c736e69 	ldclpl	14, cr6, [r3], #-420	; 0xfffffe5c
     f60:	2e6d6f63 	cdpcs	15, 6, cr6, cr13, cr3, {3}
     f64:	732e7473 			; <UNDEFINED> instruction: 0x732e7473
     f68:	32336d74 	eorscc	r6, r3, #116, 26	; 0x1d00
     f6c:	65627563 	strbvs	r7, [r2, #-1379]!	; 0xfffffa9d
     f70:	6564692e 	strbvs	r6, [r4, #-2350]!	; 0xfffff6d2
     f74:	75636d2e 	strbvc	r6, [r3, #-3374]!	; 0xfffff2d2
     f78:	7478652e 	ldrbtvc	r6, [r8], #-1326	; 0xfffffad2
     f7c:	616e7265 	cmnvs	lr, r5, ror #4
     f80:	6f6f746c 	svcvs	0x006f746c
     f84:	672e736c 	strvs	r7, [lr, -ip, ror #6]!
     f88:	742d756e 	strtvc	r7, [sp], #-1390	; 0xfffffa92
     f8c:	736c6f6f 	cmnvc	ip, #444	; 0x1bc
     f90:	726f662d 	rsbvc	r6, pc, #47185920	; 0x2d00000
     f94:	6d74732d 	ldclvs	3, cr7, [r4, #-180]!	; 0xffffff4c
     f98:	312e3233 			; <UNDEFINED> instruction: 0x312e3233
     f9c:	2e332e31 	mrccs	14, 1, r2, cr3, cr1, {1}
     fa0:	316c6572 	smccc	50770	; 0xc652
     fa4:	6e69772e 	cdpvs	7, 6, cr7, cr9, cr14, {1}
     fa8:	315f3233 	cmpcc	pc, r3, lsr r2	; <UNPREDICTABLE>
     fac:	312e312e 			; <UNDEFINED> instruction: 0x312e312e
     fb0:	3230322e 	eorscc	r3, r0, #-536870910	; 0xe0000002
     fb4:	31393033 	teqcc	r9, r3, lsr r0
     fb8:	32363133 	eorscc	r3, r6, #-1073741812	; 0xc000000c
     fbc:	6f745c36 	svcvs	0x00745c36
     fc0:	5c736c6f 	ldclpl	12, cr6, [r3], #-444	; 0xfffffe44
     fc4:	2f6e6962 	svccs	0x006e6962
     fc8:	6c2f2e2e 	stcvs	14, cr2, [pc], #-184	; f18 <_Min_Stack_Size+0xb18>
     fcc:	672f6269 	strvs	r6, [pc, -r9, ror #4]!
     fd0:	612f6363 			; <UNDEFINED> instruction: 0x612f6363
     fd4:	6e2d6d72 	mcrvs	13, 1, r6, cr13, cr2, {3}
     fd8:	2d656e6f 	stclcs	14, cr6, [r5, #-444]!	; 0xfffffe44
     fdc:	69626165 	stmdbvs	r2!, {r0, r2, r5, r6, r8, sp, lr}^
     fe0:	2e31312f 	rsfcssp	f3, f1, #10.0
     fe4:	2f312e33 	svccs	0x00312e33
     fe8:	2e2f2e2e 	cdpcs	14, 2, cr2, cr15, cr14, {1}
     fec:	2e2e2f2e 	cdpcs	15, 2, cr2, cr14, cr14, {1}
     ff0:	2f2e2e2f 	svccs	0x002e2e2f
     ff4:	2d6d7261 	sfmcs	f7, 2, [sp, #-388]!	; 0xfffffe7c
     ff8:	656e6f6e 	strbvs	r6, [lr, #-3950]!	; 0xfffff092
     ffc:	6261652d 	rsbvs	r6, r1, #188743680	; 0xb400000
    1000:	6e692f69 	cdpvs	15, 6, cr2, cr9, cr9, {3}
    1004:	64756c63 	ldrbtvs	r6, [r5], #-3171	; 0xfffff39d
    1008:	616d2f65 	cmnvs	sp, r5, ror #30
    100c:	6e696863 	cdpvs	8, 6, cr6, cr9, cr3, {3}
    1010:	3a430065 	bcc	10c11ac <_Min_Stack_Size+0x10c0dac>
    1014:	5c54535c 	mrrcpl	3, 5, r5, r4, cr12
    1018:	334d5453 	movtcc	r5, #54355	; 0xd453
    101c:	62754332 	rsbsvs	r4, r5, #-939524096	; 0xc8000000
    1020:	45444965 	strbmi	r4, [r4, #-2405]	; 0xfffff69b
    1024:	312e315f 			; <UNDEFINED> instruction: 0x312e315f
    1028:	5c322e33 	ldcpl	14, cr2, [r2], #-204	; 0xffffff34
    102c:	334d5453 	movtcc	r5, #54355	; 0xd453
    1030:	62754332 	rsbsvs	r4, r5, #-939524096	; 0xc8000000
    1034:	45444965 	strbmi	r4, [r4, #-2405]	; 0xfffff69b
    1038:	756c705c 	strbvc	r7, [ip, #-92]!	; 0xffffffa4
    103c:	736e6967 	cmnvc	lr, #1687552	; 0x19c000
    1040:	6d6f635c 	stclvs	3, cr6, [pc, #-368]!	; ed8 <_Min_Stack_Size+0xad8>
    1044:	2e74732e 	cdpcs	3, 7, cr7, cr4, cr14, {1}
    1048:	336d7473 	cmncc	sp, #1929379840	; 0x73000000
    104c:	62756332 	rsbsvs	r6, r5, #-939524096	; 0xc8000000
    1050:	64692e65 	strbtvs	r2, [r9], #-3685	; 0xfffff19b
    1054:	636d2e65 	cmnvs	sp, #1616	; 0x650
    1058:	78652e75 	stmdavc	r5!, {r0, r2, r4, r5, r6, r9, sl, fp, sp}^
    105c:	6e726574 	mrcvs	5, 3, r6, cr2, cr4, {3}
    1060:	6f746c61 	svcvs	0x00746c61
    1064:	2e736c6f 	cdpcs	12, 7, cr6, cr3, cr15, {3}
    1068:	2d756e67 	ldclcs	14, cr6, [r5, #-412]!	; 0xfffffe64
    106c:	6c6f6f74 	stclvs	15, cr6, [pc], #-464	; ea4 <_Min_Stack_Size+0xaa4>
    1070:	6f662d73 	svcvs	0x00662d73
    1074:	74732d72 	ldrbtvc	r2, [r3], #-3442	; 0xfffff28e
    1078:	2e32336d 	cdpcs	3, 3, cr3, cr2, cr13, {3}
    107c:	332e3131 			; <UNDEFINED> instruction: 0x332e3131
    1080:	6c65722e 	sfmvs	f7, 2, [r5], #-184	; 0xffffff48
    1084:	69772e31 	ldmdbvs	r7!, {r0, r4, r5, r9, sl, fp, sp}^
    1088:	5f32336e 	svcpl	0x0032336e
    108c:	2e312e31 	mrccs	14, 1, r2, cr1, cr1, {1}
    1090:	30322e31 	eorscc	r2, r2, r1, lsr lr
    1094:	39303332 	ldmdbcc	r0!, {r1, r4, r5, r8, r9, ip, sp}
    1098:	36313331 			; <UNDEFINED> instruction: 0x36313331
    109c:	745c3632 	ldrbvc	r3, [ip], #-1586	; 0xfffff9ce
    10a0:	736c6f6f 	cmnvc	ip, #444	; 0x1bc
    10a4:	6e69625c 	mcrvs	2, 3, r6, cr9, cr12, {2}
    10a8:	2f2e2e2f 	svccs	0x002e2e2f
    10ac:	2f62696c 	svccs	0x0062696c
    10b0:	2f636367 	svccs	0x00636367
    10b4:	2d6d7261 	sfmcs	f7, 2, [sp, #-388]!	; 0xfffffe7c
    10b8:	656e6f6e 	strbvs	r6, [lr, #-3950]!	; 0xfffff092
    10bc:	6261652d 	rsbvs	r6, r1, #188743680	; 0xb400000
    10c0:	31312f69 	teqcc	r1, r9, ror #30
    10c4:	312e332e 			; <UNDEFINED> instruction: 0x312e332e
    10c8:	2f2e2e2f 	svccs	0x002e2e2f
    10cc:	2e2f2e2e 	cdpcs	14, 2, cr2, cr15, cr14, {1}
    10d0:	2e2e2f2e 	cdpcs	15, 2, cr2, cr14, cr14, {1}
    10d4:	6d72612f 	ldfvse	f6, [r2, #-188]!	; 0xffffff44
    10d8:	6e6f6e2d 	cdpvs	14, 6, cr6, cr15, cr13, {1}
    10dc:	61652d65 	cmnvs	r5, r5, ror #26
    10e0:	692f6962 	stmdbvs	pc!, {r1, r5, r6, r8, fp, sp, lr}	; <UNPREDICTABLE>
    10e4:	756c636e 	strbvc	r6, [ip, #-878]!	; 0xfffffc92
    10e8:	732f6564 			; <UNDEFINED> instruction: 0x732f6564
    10ec:	43007379 	movwmi	r7, #889	; 0x379
    10f0:	54535c3a 	ldrbpl	r5, [r3], #-3130	; 0xfffff3c6
    10f4:	4d54535c 	ldclmi	3, cr5, [r4, #-368]	; 0xfffffe90
    10f8:	75433233 	strbvc	r3, [r3, #-563]	; 0xfffffdcd
    10fc:	44496562 	strbmi	r6, [r9], #-1378	; 0xfffffa9e
    1100:	2e315f45 	cdpcs	15, 3, cr5, cr1, cr5, {2}
    1104:	322e3331 	eorcc	r3, lr, #-1006632960	; 0xc4000000
    1108:	4d54535c 	ldclmi	3, cr5, [r4, #-368]	; 0xfffffe90
    110c:	75433233 	strbvc	r3, [r3, #-563]	; 0xfffffdcd
    1110:	44496562 	strbmi	r6, [r9], #-1378	; 0xfffffa9e
    1114:	6c705c45 	ldclvs	12, cr5, [r0], #-276	; 0xfffffeec
    1118:	6e696775 	mcrvs	7, 3, r6, cr9, cr5, {3}
    111c:	6f635c73 	svcvs	0x00635c73
    1120:	74732e6d 	ldrbtvc	r2, [r3], #-3693	; 0xfffff193
    1124:	6d74732e 	ldclvs	3, cr7, [r4, #-184]!	; 0xffffff48
    1128:	75633233 	strbvc	r3, [r3, #-563]!	; 0xfffffdcd
    112c:	692e6562 	stmdbvs	lr!, {r1, r5, r6, r8, sl, sp, lr}
    1130:	6d2e6564 	cfstr32vs	mvfx6, [lr, #-400]!	; 0xfffffe70
    1134:	652e7563 	strvs	r7, [lr, #-1379]!	; 0xfffffa9d
    1138:	72657478 	rsbvc	r7, r5, #120, 8	; 0x78000000
    113c:	746c616e 	strbtvc	r6, [ip], #-366	; 0xfffffe92
    1140:	736c6f6f 	cmnvc	ip, #444	; 0x1bc
    1144:	756e672e 	strbvc	r6, [lr, #-1838]!	; 0xfffff8d2
    1148:	6f6f742d 	svcvs	0x006f742d
    114c:	662d736c 	strtvs	r7, [sp], -ip, ror #6
    1150:	732d726f 			; <UNDEFINED> instruction: 0x732d726f
    1154:	32336d74 	eorscc	r6, r3, #116, 26	; 0x1d00
    1158:	2e31312e 	rsfcssp	f3, f1, #0.5
    115c:	65722e33 	ldrbvs	r2, [r2, #-3635]!	; 0xfffff1cd
    1160:	772e316c 	strvc	r3, [lr, -ip, ror #2]!
    1164:	32336e69 	eorscc	r6, r3, #1680	; 0x690
    1168:	312e315f 			; <UNDEFINED> instruction: 0x312e315f
    116c:	322e312e 	eorcc	r3, lr, #-2147483637	; 0x8000000b
    1170:	30333230 	eorscc	r3, r3, r0, lsr r2
    1174:	31333139 	teqcc	r3, r9, lsr r1
    1178:	5c363236 	lfmpl	f3, 4, [r6], #-216	; 0xffffff28
    117c:	6c6f6f74 	stclvs	15, cr6, [pc], #-464	; fb4 <_Min_Stack_Size+0xbb4>
    1180:	69625c73 	stmdbvs	r2!, {r0, r1, r4, r5, r6, sl, fp, ip, lr}^
    1184:	2e2e2f6e 	cdpcs	15, 2, cr2, cr14, cr14, {3}
    1188:	62696c2f 	rsbvs	r6, r9, #12032	; 0x2f00
    118c:	6363672f 	cmnvs	r3, #12320768	; 0xbc0000
    1190:	6d72612f 	ldfvse	f6, [r2, #-188]!	; 0xffffff44
    1194:	6e6f6e2d 	cdpvs	14, 6, cr6, cr15, cr13, {1}
    1198:	61652d65 	cmnvs	r5, r5, ror #26
    119c:	312f6962 			; <UNDEFINED> instruction: 0x312f6962
    11a0:	2e332e31 	mrccs	14, 1, r2, cr3, cr1, {1}
    11a4:	6e692f31 	mcrvs	15, 3, r2, cr9, cr1, {1}
    11a8:	64756c63 	ldrbtvs	r6, [r5], #-3171	; 0xfffff39d
    11ac:	3a430065 	bcc	10c1348 <_Min_Stack_Size+0x10c0f48>
    11b0:	5c54535c 	mrrcpl	3, 5, r5, r4, cr12
    11b4:	334d5453 	movtcc	r5, #54355	; 0xd453
    11b8:	62754332 	rsbsvs	r4, r5, #-939524096	; 0xc8000000
    11bc:	45444965 	strbmi	r4, [r4, #-2405]	; 0xfffff69b
    11c0:	312e315f 			; <UNDEFINED> instruction: 0x312e315f
    11c4:	5c322e33 	ldcpl	14, cr2, [r2], #-204	; 0xffffff34
    11c8:	334d5453 	movtcc	r5, #54355	; 0xd453
    11cc:	62754332 	rsbsvs	r4, r5, #-939524096	; 0xc8000000
    11d0:	45444965 	strbmi	r4, [r4, #-2405]	; 0xfffff69b
    11d4:	756c705c 	strbvc	r7, [ip, #-92]!	; 0xffffffa4
    11d8:	736e6967 	cmnvc	lr, #1687552	; 0x19c000
    11dc:	6d6f635c 	stclvs	3, cr6, [pc, #-368]!	; 1074 <_Min_Stack_Size+0xc74>
    11e0:	2e74732e 	cdpcs	3, 7, cr7, cr4, cr14, {1}
    11e4:	336d7473 	cmncc	sp, #1929379840	; 0x73000000
    11e8:	62756332 	rsbsvs	r6, r5, #-939524096	; 0xc8000000
    11ec:	64692e65 	strbtvs	r2, [r9], #-3685	; 0xfffff19b
    11f0:	636d2e65 	cmnvs	sp, #1616	; 0x650
    11f4:	78652e75 	stmdavc	r5!, {r0, r2, r4, r5, r6, r9, sl, fp, sp}^
    11f8:	6e726574 	mrcvs	5, 3, r6, cr2, cr4, {3}
    11fc:	6f746c61 	svcvs	0x00746c61
    1200:	2e736c6f 	cdpcs	12, 7, cr6, cr3, cr15, {3}
    1204:	2d756e67 	ldclcs	14, cr6, [r5, #-412]!	; 0xfffffe64
    1208:	6c6f6f74 	stclvs	15, cr6, [pc], #-464	; 1040 <_Min_Stack_Size+0xc40>
    120c:	6f662d73 	svcvs	0x00662d73
    1210:	74732d72 	ldrbtvc	r2, [r3], #-3442	; 0xfffff28e
    1214:	2e32336d 	cdpcs	3, 3, cr3, cr2, cr13, {3}
    1218:	332e3131 			; <UNDEFINED> instruction: 0x332e3131
    121c:	6c65722e 	sfmvs	f7, 2, [r5], #-184	; 0xffffff48
    1220:	69772e31 	ldmdbvs	r7!, {r0, r4, r5, r9, sl, fp, sp}^
    1224:	5f32336e 	svcpl	0x0032336e
    1228:	2e312e31 	mrccs	14, 1, r2, cr1, cr1, {1}
    122c:	30322e31 	eorscc	r2, r2, r1, lsr lr
    1230:	39303332 	ldmdbcc	r0!, {r1, r4, r5, r8, r9, ip, sp}
    1234:	36313331 			; <UNDEFINED> instruction: 0x36313331
    1238:	745c3632 	ldrbvc	r3, [ip], #-1586	; 0xfffff9ce
    123c:	736c6f6f 	cmnvc	ip, #444	; 0x1bc
    1240:	6e69625c 	mcrvs	2, 3, r6, cr9, cr12, {2}
    1244:	2f2e2e2f 	svccs	0x002e2e2f
    1248:	2f62696c 	svccs	0x0062696c
    124c:	2f636367 	svccs	0x00636367
    1250:	2d6d7261 	sfmcs	f7, 2, [sp, #-388]!	; 0xfffffe7c
    1254:	656e6f6e 	strbvs	r6, [lr, #-3950]!	; 0xfffff092
    1258:	6261652d 	rsbvs	r6, r1, #188743680	; 0xb400000
    125c:	31312f69 	teqcc	r1, r9, ror #30
    1260:	312e332e 			; <UNDEFINED> instruction: 0x312e332e
    1264:	2f2e2e2f 	svccs	0x002e2e2f
    1268:	2e2f2e2e 	cdpcs	14, 2, cr2, cr15, cr14, {1}
    126c:	2e2e2f2e 	cdpcs	15, 2, cr2, cr14, cr14, {1}
    1270:	6d72612f 	ldfvse	f6, [r2, #-188]!	; 0xffffff44
    1274:	6e6f6e2d 	cdpvs	14, 6, cr6, cr15, cr13, {1}
    1278:	61652d65 	cmnvs	r5, r5, ror #26
    127c:	692f6962 	stmdbvs	pc!, {r1, r5, r6, r8, fp, sp, lr}	; <UNPREDICTABLE>
    1280:	756c636e 	strbvc	r6, [ip, #-878]!	; 0xfffffc92
    1284:	43006564 	movwmi	r6, #1380	; 0x564
    1288:	73552f3a 	cmpvc	r5, #58, 30	; 0xe8
    128c:	2f737265 	svccs	0x00737265
    1290:	6f64656d 	svcvs	0x0064656d
    1294:	65442f6f 	strbvs	r2, [r4, #-3951]	; 0xfffff091
    1298:	6f746b73 	svcvs	0x00746b73
    129c:	6f572f70 	svcvs	0x00572f70
    12a0:	70536b72 	subsvc	r6, r3, r2, ror fp
    12a4:	2f656361 	svccs	0x00656361
    12a8:	7373654c 	cmnvc	r3, #76, 10	; 0x13000000
    12ac:	34206e6f 	strtcc	r6, [r0], #-3695	; 0xfffff191
    12b0:	5458452f 	ldrbpl	r4, [r8], #-1327	; 0xfffffad1
    12b4:	72445f49 	subvc	r5, r4, #292	; 0x124
    12b8:	72657669 	rsbvc	r7, r5, #110100480	; 0x6900000
    12bc:	4c41482f 	mcrrmi	8, 2, r4, r1, cr15
    12c0:	636e692f 	cmnvs	lr, #770048	; 0xbc000
    12c4:	616d0000 	cmnvs	sp, r0
    12c8:	632e6e69 			; <UNDEFINED> instruction: 0x632e6e69
    12cc:	00000100 	andeq	r0, r0, r0, lsl #2
    12d0:	74616c50 	strbtvc	r6, [r1], #-3152	; 0xfffff3b0
    12d4:	6d726f66 	ldclvs	15, cr6, [r2, #-408]!	; 0xfffffe68
    12d8:	7079545f 	rsbsvc	r5, r9, pc, asr r4
    12dc:	682e7365 	stmdavs	lr!, {r0, r2, r5, r6, r8, r9, ip, sp, lr}
    12e0:	00000200 	andeq	r0, r0, r0, lsl #4
    12e4:	6665645f 			; <UNDEFINED> instruction: 0x6665645f
    12e8:	746c7561 	strbtvc	r7, [ip], #-1377	; 0xfffffa9f
    12ec:	7079745f 	rsbsvc	r7, r9, pc, asr r4
    12f0:	682e7365 	stmdavs	lr!, {r0, r2, r5, r6, r8, r9, ip, sp, lr}
    12f4:	00000300 	andeq	r0, r0, r0, lsl #6
    12f8:	6474735f 	ldrbtvs	r7, [r4], #-863	; 0xfffffca1
    12fc:	2e746e69 	cdpcs	14, 7, cr6, cr4, cr9, {3}
    1300:	00040068 	andeq	r0, r4, r8, rrx
    1304:	4d545300 	ldclmi	3, cr5, [r4, #-0]
    1308:	31463233 	cmpcc	r6, r3, lsr r2
    130c:	36783330 			; <UNDEFINED> instruction: 0x36783330
    1310:	0200682e 	andeq	r6, r0, #3014656	; 0x2e0000
    1314:	50470000 	subpl	r0, r7, r0
    1318:	445f4f49 	ldrbmi	r4, [pc], #-3913	; 1320 <_Min_Stack_Size+0xf20>
    131c:	65766972 	ldrbvs	r6, [r6, #-2418]!	; 0xfffff68e
    1320:	00682e72 	rsbeq	r2, r8, r2, ror lr
    1324:	45000002 	strmi	r0, [r0, #-2]
    1328:	5f495458 	svcpl	0x00495458
    132c:	76697244 	strbtvc	r7, [r9], -r4, asr #4
    1330:	682e7265 	stmdavs	lr!, {r0, r2, r5, r6, r9, ip, sp, lr}
    1334:	00000200 	andeq	r0, r0, r0, lsl #4
    1338:	69647473 	stmdbvs	r4!, {r0, r1, r4, r5, r6, sl, ip, sp, lr}^
    133c:	682e746e 	stmdavs	lr!, {r1, r2, r3, r5, r6, sl, ip, sp, lr}
    1340:	00000500 	andeq	r0, r0, r0, lsl #10
    1344:	69647473 	stmdbvs	r4!, {r0, r1, r4, r5, r6, sl, ip, sp, lr}^
    1348:	682e746e 	stmdavs	lr!, {r1, r2, r3, r5, r6, sl, ip, sp, lr}
    134c:	00000600 	andeq	r0, r0, r0, lsl #12
    1350:	74616566 	strbtvc	r6, [r1], #-1382	; 0xfffffa9a
    1354:	73657275 	cmnvc	r5, #1342177287	; 0x50000007
    1358:	0400682e 	streq	r6, [r0], #-2094	; 0xfffff7d2
    135c:	6e5f0000 	cdpvs	0, 5, cr0, cr15, cr0, {0}
    1360:	696c7765 	stmdbvs	ip!, {r0, r2, r5, r6, r8, r9, sl, ip, sp, lr}^
    1364:	65765f62 	ldrbvs	r5, [r6, #-3938]!	; 0xfffff09e
    1368:	6f697372 	svcvs	0x00697372
    136c:	00682e6e 	rsbeq	r2, r8, lr, ror #28
    1370:	5f000006 	svcpl	0x00000006
    1374:	73746e69 	cmnvc	r4, #1680	; 0x690
    1378:	682e7075 	stmdavs	lr!, {r0, r2, r4, r5, r6, ip, sp, lr}
    137c:	00000400 	andeq	r0, r0, r0, lsl #8
    1380:	2e44434c 	cdpcs	3, 4, cr4, cr4, cr12, {2}
    1384:	00070068 	andeq	r0, r7, r8, rrx
    1388:	59454b00 	stmdbpl	r5, {r8, r9, fp, lr}^
    138c:	2e444150 	mcrcs	1, 2, r4, cr4, cr0, {2}
    1390:	00070068 	andeq	r0, r7, r8, rrx
    1394:	25050000 	strcs	r0, [r5, #-0]
    1398:	56020500 	strpl	r0, [r2], -r0, lsl #10
    139c:	03080008 	movweq	r0, #32776	; 0x8008
    13a0:	050100cc 	streq	r0, [r1, #-204]	; 0xffffff34
    13a4:	0c05670a 	stceq	7, cr6, [r5], {10}
    13a8:	2f01053c 	svccs	0x0001053c
    13ac:	01000502 	tsteq	r0, r2, lsl #10
    13b0:	002b0501 	eoreq	r0, fp, r1, lsl #10
    13b4:	08760205 	ldmdaeq	r6!, {r0, r2, r9}^
    13b8:	cf030800 	svcgt	0x00030800
    13bc:	0e050100 	adfeqs	f0, f5, f0
    13c0:	21010575 	tstcs	r1, r5, ror r5
    13c4:	01000502 	tsteq	r0, r2, lsl #10
    13c8:	00130501 	andseq	r0, r3, r1, lsl #10
    13cc:	08900205 	ldmeq	r0, {r0, r2, r9}
    13d0:	d2030800 	andle	r0, r3, #0, 16
    13d4:	02050100 	andeq	r0, r5, #0, 2
    13d8:	6701052f 	strvs	r0, [r1, -pc, lsr #10]
    13dc:	01000402 	tsteq	r0, r2, lsl #8
    13e0:	00010501 	andeq	r0, r1, r1, lsl #10
    13e4:	08a80205 	stmiaeq	r8!, {r0, r2, r9}
    13e8:	d6030800 	strle	r0, [r3], -r0, lsl #16
    13ec:	0b050100 	bleq	1417f4 <_Min_Stack_Size+0x1413f4>
    13f0:	2009052f 	andcs	r0, r9, pc, lsr #10
    13f4:	052f1305 	streq	r1, [pc, #-773]!	; 10f7 <_Min_Stack_Size+0xcf7>
    13f8:	17054a09 	strne	r4, [r5, -r9, lsl #20]
    13fc:	3c0e0530 	cfstr32cc	mvfx0, [lr], {48}	; 0x30
    1400:	052f1d05 	streq	r1, [pc, #-3333]!	; 703 <_Min_Stack_Size+0x303>
    1404:	1d053c0e 	stcne	12, cr3, [r5, #-56]	; 0xffffffc8
    1408:	3c0e0530 	cfstr32cc	mvfx0, [lr], {48}	; 0x30
    140c:	052f1d05 	streq	r1, [pc, #-3333]!	; 70f <_Min_Stack_Size+0x30f>
    1410:	0f053c0e 	svceq	0x00053c0e
    1414:	2e050531 	mcrcs	5, 0, r0, cr5, cr1, {1}
    1418:	4b2f0405 	blmi	bc2434 <_Min_Stack_Size+0xbc2034>
    141c:	21596767 	cmpcs	r9, r7, ror #14
    1420:	05771505 	ldrbeq	r1, [r7, #-1285]!	; 0xfffffafb
    1424:	04052e0b 	streq	r2, [r5], #-3595	; 0xfffff1f5
    1428:	67674b2f 	strbvs	r4, [r7, -pc, lsr #22]!
    142c:	05052167 	streq	r2, [r5, #-359]	; 0xfffffe99
    1430:	01040200 	mrseq	r0, R12_usr
    1434:	08667103 	stmdaeq	r6!, {r0, r1, r8, ip, sp, lr}^
    1438:	05010100 	streq	r0, [r1, #-256]	; 0xffffff00
    143c:	02050016 	andeq	r0, r5, #22
    1440:	0800098c 	stmdaeq	r0, {r2, r3, r7, r8, fp}
    1444:	0100f903 	tsteq	r0, r3, lsl #18	; <UNPREDICTABLE>
    1448:	05300e05 	ldreq	r0, [r0, #-3589]!	; 0xfffff1fb
    144c:	0c052e04 	stceq	14, cr2, [r5], {4}
    1450:	4101052f 	tstmi	r1, pc, lsr #10
    1454:	051c1405 	ldreq	r1, [ip, #-1029]	; 0xfffffbfb
    1458:	0c052e0a 	stceq	14, cr2, [r5], {10}
    145c:	3f01052f 	svccc	0x0001052f
    1460:	01000702 	tsteq	r0, r2, lsl #14
    1464:	00120501 	andseq	r0, r2, r1, lsl #10
    1468:	09bc0205 	ldmibeq	ip!, {r0, r2, r9}
    146c:	82030800 	andhi	r0, r3, #0, 16
    1470:	0e050101 	adfeqs	f0, f5, f1
    1474:	05676730 	strbeq	r6, [r7, #-1840]!	; 0xfffff8d0
    1478:	06026701 	streq	r6, [r2], -r1, lsl #14
    147c:	05010100 	streq	r0, [r1, #-256]	; 0xffffff00
    1480:	02050001 	andeq	r0, r5, #1
    1484:	080009f0 	stmdaeq	r0, {r4, r5, r6, r7, r8, fp}
    1488:	01018903 	tsteq	r1, r3, lsl #18
    148c:	053d1005 	ldreq	r1, [sp, #-5]!
    1490:	592fd702 	stmdbpl	pc!, {r1, r8, r9, sl, ip, lr, pc}	; <UNPREDICTABLE>
    1494:	02003d78 	andeq	r3, r0, #120, 26	; 0x1e00
    1498:	02300104 	eorseq	r0, r0, #4, 2
    149c:	01010008 	tsteq	r1, r8
    14a0:	00000080 	andeq	r0, r0, r0, lsl #1
    14a4:	00390003 	eorseq	r0, r9, r3
    14a8:	01020000 	mrseq	r0, (UNDEF: 2)
    14ac:	000d0efb 	strdeq	r0, [sp], -fp
    14b0:	01010101 	tsteq	r1, r1, lsl #2
    14b4:	01000000 	mrseq	r0, (UNDEF: 0)
    14b8:	2e010000 	cdpcs	0, 0, cr0, cr1, cr0, {0}
    14bc:	74532f2e 	ldrbvc	r2, [r3], #-3886	; 0xfffff0d2
    14c0:	75747261 	ldrbvc	r7, [r4, #-609]!	; 0xfffffd9f
    14c4:	73000070 	movwvc	r0, #112	; 0x70
    14c8:	74726174 	ldrbtvc	r6, [r2], #-372	; 0xfffffe8c
    14cc:	735f7075 	cmpvc	pc, #117	; 0x75
    14d0:	32336d74 	eorscc	r6, r3, #116, 26	; 0x1d00
    14d4:	33303166 	teqcc	r0, #-2147483623	; 0x80000019
    14d8:	78743663 	ldmdavc	r4!, {r0, r1, r5, r6, r9, sl, ip, sp}^
    14dc:	0100732e 	tsteq	r0, lr, lsr #6
    14e0:	00000000 	andeq	r0, r0, r0
    14e4:	0a480205 	beq	1201d00 <_Min_Stack_Size+0x1201900>
    14e8:	3a030800 	bcc	c34f0 <_Min_Stack_Size+0xc30f0>
    14ec:	31222101 			; <UNDEFINED> instruction: 0x31222101
    14f0:	21212121 			; <UNDEFINED> instruction: 0x21212121
    14f4:	23212123 			; <UNDEFINED> instruction: 0x23212123
    14f8:	21232121 			; <UNDEFINED> instruction: 0x21232121
    14fc:	21232121 			; <UNDEFINED> instruction: 0x21232121
    1500:	30232123 	eorcc	r2, r3, r3, lsr #2
    1504:	20560331 	subscs	r0, r6, r1, lsr r3
    1508:	032f2f34 			; <UNDEFINED> instruction: 0x032f2f34
    150c:	022f2e0f 	eoreq	r2, pc, #15, 28	; 0xf0
    1510:	01010002 	tsteq	r1, r2
    1514:	98020500 	stmdals	r2, {r8, sl}
    1518:	0308000a 	movweq	r0, #32778	; 0x800a
    151c:	020100f3 	andeq	r0, r1, #243	; 0xf3
    1520:	01010001 	tsteq	r1, r1

Disassembly of section .debug_str:

00000000 <.debug_str>:
       0:	57454e5f 	smlsldpl	r4, r5, pc, lr	; <UNPREDICTABLE>
       4:	5f42494c 	svcpl	0x0042494c
       8:	53524556 	cmppl	r2, #360710144	; 0x15800000
       c:	204e4f49 	subcs	r4, lr, r9, asr #30
      10:	322e3422 	eorcc	r3, lr, #570425344	; 0x22000000
      14:	0022302e 	eoreq	r3, r2, lr, lsr #32
      18:	544e4957 	strbpl	r4, [lr], #-2391	; 0xfffff6a9
      1c:	4e494d5f 	mcrmi	13, 2, r4, cr9, cr15, {2}
      20:	5f5f2820 	svcpl	0x005f2820
      24:	544e4957 	strbpl	r4, [lr], #-2391	; 0xfffff6a9
      28:	4e494d5f 	mcrmi	13, 2, r4, cr9, cr15, {2}
      2c:	00295f5f 	eoreq	r5, r9, pc, asr pc
      30:	45445f5f 	strbmi	r5, [r4, #-3935]	; 0xfffff0a1
      34:	414d4943 	cmpmi	sp, r3, asr #18
      38:	49445f4c 	stmdbmi	r4, {r2, r3, r6, r8, r9, sl, fp, ip, lr}^
      3c:	205f5f47 	subscs	r5, pc, r7, asr #30
      40:	5f003731 	svcpl	0x00003731
      44:	4148555f 	cmpmi	r8, pc, asr r5
      48:	4942465f 	stmdbmi	r2, {r0, r1, r2, r3, r4, r6, r9, sl, lr}^
      4c:	205f5f54 	subscs	r5, pc, r4, asr pc	; <UNPREDICTABLE>
      50:	5f5f0038 	svcpl	0x005f0038
      54:	44495653 	strbmi	r5, [r9], #-1619	; 0xfffff9ad
      58:	5349565f 	movtpl	r5, #38495	; 0x965f
      5c:	454c4249 	strbmi	r4, [ip, #-585]	; 0xfffffdb7
      60:	45003120 	strmi	r3, [r0, #-288]	; 0xfffffee0
      64:	50395458 	eorspl	r5, r9, r8, asr r4
      68:	28203943 	stmdacs	r0!, {r0, r1, r6, r8, fp, ip, sp}
      6c:	4f495047 	svcmi	0x00495047
      70:	4e4f435f 	mcrmi	3, 2, r4, cr15, cr15, {2}
      74:	5f474946 	svcpl	0x00474946
      78:	457b2974 	ldrbmi	r2, [fp, #-2420]!	; 0xfffff68c
      7c:	39495458 	stmdbcc	r9, {r3, r4, r6, sl, ip, lr}^
      80:	4950472c 	ldmdbmi	r0, {r2, r3, r5, r8, r9, sl, lr}^
      84:	502c434f 	eorpl	r4, ip, pc, asr #6
      88:	395f4e49 	ldmdbcc	pc, {r0, r3, r6, r9, sl, fp, lr}^	; <UNPREDICTABLE>
      8c:	5458452c 	ldrbpl	r4, [r8], #-1324	; 0xfffffad4
      90:	52495f39 	subpl	r5, r9, #57, 30	; 0xe4
      94:	5f007d51 	svcpl	0x00007d51
      98:	544c465f 	strbpl	r4, [ip], #-1631	; 0xfffff9a1
      9c:	5341485f 	movtpl	r4, #6239	; 0x185f
      a0:	4955515f 	ldmdbmi	r5, {r0, r1, r2, r3, r4, r6, r8, ip, lr}^
      a4:	4e5f5445 	cdpmi	4, 5, cr5, cr15, cr5, {2}
      a8:	5f5f4e41 	svcpl	0x005f4e41
      ac:	5f003120 	svcpl	0x00003120
      b0:	544e495f 	strbpl	r4, [lr], #-2399	; 0xfffff6a1
      b4:	5f58414d 	svcpl	0x0058414d
      b8:	29632843 	stmdbcs	r3!, {r0, r1, r6, fp, sp}^
      bc:	23206320 			; <UNDEFINED> instruction: 0x23206320
      c0:	4c4c2023 	mcrrmi	0, 2, r2, ip, cr3
      c4:	465f5f00 	ldrbmi	r5, [pc], -r0, lsl #30
      c8:	3436544c 	ldrtcc	r5, [r6], #-1100	; 0xfffffbb4
      cc:	4e45445f 	mcrmi	4, 2, r4, cr5, cr15, {2}
      d0:	5f4d524f 	svcpl	0x004d524f
      d4:	5f4e494d 	svcpl	0x004e494d
      d8:	2e34205f 	mrccs	0, 1, r2, cr4, cr15, {2}
      dc:	36303439 			; <UNDEFINED> instruction: 0x36303439
      e0:	35343635 	ldrcc	r3, [r4, #-1589]!	; 0xfffff9cb
      e4:	32313438 	eorscc	r3, r1, #56, 8	; 0x38000000
      e8:	34353634 	ldrtcc	r3, [r5], #-1588	; 0xfffff9cc
      ec:	32332d65 	eorscc	r2, r3, #6464	; 0x1940
      f0:	34364634 	ldrtcc	r4, [r6], #-1588	; 0xfffff9cc
      f4:	475f5f00 	ldrbmi	r5, [pc, -r0, lsl #30]
      f8:	415f4343 	cmpmi	pc, r3, asr #6
      fc:	494d4f54 	stmdbmi	sp, {r2, r4, r6, r8, r9, sl, fp, lr}^
     100:	43575f43 	cmpmi	r7, #268	; 0x10c
     104:	5f524148 	svcpl	0x00524148
     108:	4f4c5f54 	svcmi	0x004c5f54
     10c:	465f4b43 	ldrbmi	r4, [pc], -r3, asr #22
     110:	20454552 	subcs	r4, r5, r2, asr r5
     114:	5f5f0032 	svcpl	0x005f0032
     118:	52414843 	subpl	r4, r1, #4390912	; 0x430000
     11c:	534e555f 	movtpl	r5, #58719	; 0xe55f
     120:	454e4749 	strbmi	r4, [lr, #-1865]	; 0xfffff8b7
     124:	205f5f44 	subscs	r5, pc, r4, asr #30
     128:	5f5f0031 	svcpl	0x005f0031
     12c:	36544c46 	ldrbcc	r4, [r4], -r6, asr #24
     130:	41485f34 	cmpmi	r8, r4, lsr pc
     134:	4e495f53 	mcrmi	15, 2, r5, cr9, cr3, {2}
     138:	494e4946 	stmdbmi	lr, {r1, r2, r6, r8, fp, lr}^
     13c:	5f5f5954 	svcpl	0x005f5954
     140:	5f003120 	svcpl	0x00003120
     144:	414c4c5f 	cmpmi	ip, pc, asr ip
     148:	4d554343 	ldclmi	3, cr4, [r5, #-268]	; 0xfffffef4
     14c:	4e494d5f 	mcrmi	13, 2, r4, cr9, cr15, {2}
     150:	28205f5f 	stmdacs	r0!, {r0, r1, r2, r3, r4, r6, r8, r9, sl, fp, ip, lr}
     154:	3158302d 	cmpcc	r8, sp, lsr #32
     158:	4c313350 	ldcmi	3, cr3, [r1], #-320	; 0xfffffec0
     15c:	302d4b4c 	eorcc	r4, sp, ip, asr #22
     160:	33503158 	cmpcc	r0, #88, 2
     164:	4b4c4c31 	blmi	1313230 <_Min_Stack_Size+0x1312e30>
     168:	5f5f0029 	svcpl	0x005f0029
     16c:	5f514855 	svcpl	0x00514855
     170:	54494246 	strbpl	r4, [r9], #-582	; 0xfffffdba
     174:	31205f5f 			; <UNDEFINED> instruction: 0x31205f5f
     178:	5f5f0036 	svcpl	0x005f0036
     17c:	4343414c 	movtmi	r4, #12620	; 0x314c
     180:	455f4d55 	ldrbmi	r4, [pc, #-3413]	; fffff433 <_estack+0xdfffcc33>
     184:	4c495350 	mcrrmi	3, 5, r5, r9, cr0
     188:	5f5f4e4f 	svcpl	0x005f4e4f
     18c:	31783020 	cmncc	r8, r0, lsr #32
     190:	31332d50 	teqcc	r3, r0, asr sp
     194:	5f004b4c 	svcpl	0x00004b4c
     198:	5254505f 	subspl	r5, r4, #95	; 0x5f
     19c:	46464944 	strbmi	r4, [r6], -r4, asr #18
     1a0:	58414d5f 	stmdapl	r1, {r0, r1, r2, r3, r4, r6, r8, sl, fp, lr}^
     1a4:	30205f5f 	eorcc	r5, r0, pc, asr pc
     1a8:	66663778 			; <UNDEFINED> instruction: 0x66663778
     1ac:	66666666 	strbtvs	r6, [r6], -r6, ror #12
     1b0:	58450066 	stmdapl	r5, {r1, r2, r5, r6}^
     1b4:	705f4954 	subsvc	r4, pc, r4, asr r9	; <UNPREDICTABLE>
     1b8:	7469736f 	strbtvc	r7, [r9], #-879	; 0xfffffc91
     1bc:	006e6f69 	rsbeq	r6, lr, r9, ror #30
     1c0:	5f544e49 	svcpl	0x00544e49
     1c4:	5341454c 	movtpl	r4, #5452	; 0x154c
     1c8:	4d5f3854 	ldclmi	8, cr3, [pc, #-336]	; 80 <_Min_Heap_Size-0x180>
     1cc:	28204e49 	stmdacs	r0!, {r0, r3, r6, r9, sl, fp, lr}
     1d0:	495f5f2d 	ldmdbmi	pc, {r0, r2, r3, r5, r8, r9, sl, fp, ip, lr}^	; <UNPREDICTABLE>
     1d4:	4c5f544e 	cfldrdmi	mvd5, [pc], {78}	; 0x4e
     1d8:	54534145 	ldrbpl	r4, [r3], #-325	; 0xfffffebb
     1dc:	414d5f38 	cmpmi	sp, r8, lsr pc
     1e0:	205f5f58 	subscs	r5, pc, r8, asr pc	; <UNPREDICTABLE>
     1e4:	2931202d 	ldmdbcs	r1!, {r0, r2, r3, r5, sp}
     1e8:	49555f00 	ldmdbmi	r5, {r8, r9, sl, fp, ip, lr}^
     1ec:	3233544e 	eorscc	r5, r3, #1308622848	; 0x4e000000
     1f0:	445f545f 	ldrbmi	r5, [pc], #-1119	; 1f8 <_Min_Heap_Size-0x8>
     1f4:	414c4345 	cmpmi	ip, r5, asr #6
     1f8:	20444552 	subcs	r4, r4, r2, asr r5
     1fc:	495f5f00 	ldmdbmi	pc, {r8, r9, sl, fp, ip, lr}^	; <UNPREDICTABLE>
     200:	414d544e 	cmpmi	sp, lr, asr #8
     204:	414d5f58 	cmpmi	sp, r8, asr pc
     208:	205f5f58 	subscs	r5, pc, r8, asr pc	; <UNPREDICTABLE>
     20c:	66377830 			; <UNDEFINED> instruction: 0x66377830
     210:	66666666 	strbtvs	r6, [r6], -r6, ror #12
     214:	66666666 	strbtvs	r6, [r6], -r6, ror #12
     218:	66666666 	strbtvs	r6, [r6], -r6, ror #12
     21c:	4c4c6666 	mcrrmi	6, 6, r6, ip, cr6
     220:	54554f00 	ldrbpl	r4, [r5], #-3840	; 0xfffff100
     224:	5f545550 	svcpl	0x00545550
     228:	505f4641 	subspl	r4, pc, r1, asr #12
     22c:	58450050 	stmdapl	r5, {r4, r6}^
     230:	425f4954 	subsmi	r4, pc, #84, 18	; 0x150000
     234:	20455341 	subcs	r5, r5, r1, asr #6
     238:	30347830 	eorscc	r7, r4, r0, lsr r8
     23c:	34303130 	ldrtcc	r3, [r0], #-304	; 0xfffffed0
     240:	5f003030 	svcpl	0x00003030
     244:	544c465f 	strbpl	r4, [ip], #-1631	; 0xfffff9a1
     248:	445f3436 	ldrbmi	r3, [pc], #-1078	; 250 <_Min_Heap_Size+0x50>
     24c:	4d494345 	stclmi	3, cr4, [r9, #-276]	; 0xfffffeec
     250:	445f4c41 	ldrbmi	r4, [pc], #-3137	; 258 <_Min_Heap_Size+0x58>
     254:	5f5f4749 	svcpl	0x005f4749
     258:	00373120 	eorseq	r3, r7, r0, lsr #2
     25c:	45455053 	strbmi	r5, [r5, #-83]	; 0xffffffad
     260:	30315f44 	eorscc	r5, r1, r4, asr #30
     264:	54584500 	ldrbpl	r4, [r8], #-1280	; 0xfffffb00
     268:	33445033 	movtcc	r5, #16435	; 0x4033
     26c:	50472820 	subpl	r2, r7, r0, lsr #16
     270:	435f4f49 	cmpmi	pc, #292	; 0x124
     274:	49464e4f 	stmdbmi	r6, {r0, r1, r2, r3, r6, r9, sl, fp, lr}^
     278:	29745f47 	ldmdbcs	r4!, {r0, r1, r2, r6, r8, r9, sl, fp, ip, lr}^
     27c:	5458457b 	ldrbpl	r4, [r8], #-1403	; 0xfffffa85
     280:	472c3349 	strmi	r3, [ip, -r9, asr #6]!
     284:	444f4950 	strbmi	r4, [pc], #-2384	; 28c <_Min_Heap_Size+0x8c>
     288:	4e49502c 	cdpmi	0, 4, cr5, cr9, cr12, {1}
     28c:	452c335f 	strmi	r3, [ip, #-863]!	; 0xfffffca1
     290:	5f335458 	svcpl	0x00335458
     294:	7d515249 	lfmvc	f5, 2, [r1, #-292]	; 0xfffffedc
     298:	52555400 	subspl	r5, r5, #0, 8
     29c:	00312045 	eorseq	r2, r1, r5, asr #32
     2a0:	54415f5f 	strbpl	r5, [r1], #-3935	; 0xfffff0a1
     2a4:	43494d4f 	movtmi	r4, #40271	; 0x9d4f
     2a8:	4e4f435f 	mcrmi	3, 2, r4, cr15, cr15, {2}
     2ac:	454d5553 	strbmi	r5, [sp, #-1363]	; 0xfffffaad
     2b0:	5f003120 	svcpl	0x00003120
     2b4:	414c555f 	cmpmi	ip, pc, asr r5
     2b8:	4d554343 	ldclmi	3, cr4, [r5, #-268]	; 0xfffffef4
     2bc:	4942465f 	stmdbmi	r2, {r0, r1, r2, r3, r4, r6, r9, sl, lr}^
     2c0:	205f5f54 	subscs	r5, pc, r4, asr pc	; <UNPREDICTABLE>
     2c4:	5f003233 	svcpl	0x00003233
     2c8:	4843575f 	stmdami	r3, {r0, r1, r2, r3, r4, r6, r8, r9, sl, ip, lr}^
     2cc:	4d5f5241 	lfmmi	f5, 2, [pc, #-260]	; 1d0 <_Min_Heap_Size-0x30>
     2d0:	5f5f5841 	svcpl	0x005f5841
     2d4:	66783020 	ldrbtvs	r3, [r8], -r0, lsr #32
     2d8:	66666666 	strbtvs	r6, [r6], -r6, ror #12
     2dc:	55666666 	strbpl	r6, [r6, #-1638]!	; 0xfffff99a
     2e0:	444f4d00 	strbmi	r4, [pc], #-3328	; 2e8 <_Min_Heap_Size+0xe8>
     2e4:	00745f45 	rsbseq	r5, r4, r5, asr #30
     2e8:	6e695f5f 	mcrvs	15, 3, r5, cr9, cr15, {2}
     2ec:	5f303274 	svcpl	0x00303274
     2f0:	5047005f 	subpl	r0, r7, pc, asr r0
     2f4:	5f444f49 	svcpl	0x00444f49
     2f8:	45534142 	ldrbmi	r4, [r3, #-322]	; 0xfffffebe
     2fc:	34783020 	ldrbtcc	r3, [r8], #-32	; 0xffffffe0
     300:	31313030 	teqcc	r1, r0, lsr r0
     304:	00303034 	eorseq	r3, r0, r4, lsr r0
     308:	49535f5f 	ldmdbmi	r3, {r0, r1, r2, r3, r4, r6, r8, r9, sl, fp, ip, lr}^
     30c:	464f455a 			; <UNDEFINED> instruction: 0x464f455a
     310:	4e4f4c5f 	mcrmi	12, 2, r4, cr15, cr15, {2}
     314:	4f4c5f47 	svcmi	0x004c5f47
     318:	5f5f474e 	svcpl	0x005f474e
     31c:	5f003820 	svcpl	0x00003820
     320:	4c42445f 	cfstrdmi	mvd4, [r2], {95}	; 0x5f
     324:	58414d5f 	stmdapl	r1, {r0, r1, r2, r3, r4, r6, r8, sl, fp, lr}^
     328:	5f30315f 	svcpl	0x0030315f
     32c:	5f505845 	svcpl	0x00505845
     330:	3033205f 	eorscc	r2, r3, pc, asr r0
     334:	5f5f0038 	svcpl	0x005f0038
     338:	36544c46 	ldrbcc	r4, [r4], -r6, asr #24
     33c:	414d5f34 	cmpmi	sp, r4, lsr pc
     340:	445f544e 	ldrbmi	r5, [pc], #-1102	; 348 <_Min_Heap_Size+0x148>
     344:	5f5f4749 	svcpl	0x005f4749
     348:	00333520 	eorseq	r3, r3, r0, lsr #10
     34c:	52465f5f 	subpl	r5, r6, #380	; 0x17c
     350:	5f544341 	svcpl	0x00544341
     354:	5f4e494d 	svcpl	0x004e494d
     358:	2d28205f 	stccs	0, cr2, [r8, #-380]!	; 0xfffffe84
     35c:	52352e30 	eorspl	r2, r5, #48, 28	; 0x300
     360:	352e302d 	strcc	r3, [lr, #-45]!	; 0xffffffd3
     364:	5f002952 	svcpl	0x00002952
     368:	534f505f 	movtpl	r5, #61535	; 0xf05f
     36c:	565f5849 	ldrbpl	r5, [pc], -r9, asr #16
     370:	42495349 	submi	r5, r9, #603979777	; 0x24000001
     374:	3220454c 	eorcc	r4, r0, #76, 10	; 0x13000000
     378:	30383030 	eorscc	r3, r8, r0, lsr r0
     37c:	5f5f0039 	svcpl	0x005f0039
     380:	43415355 	movtmi	r5, #4949	; 0x1355
     384:	5f4d5543 	svcpl	0x004d5543
     388:	5f58414d 	svcpl	0x0058414d
     38c:	5830205f 	ldmdapl	r0!, {r0, r1, r2, r3, r4, r6, sp}
     390:	46464646 	strbmi	r4, [r6], -r6, asr #12
     394:	55382d50 	ldrpl	r2, [r8, #-3408]!	; 0xfffff2b0
     398:	5f004b48 	svcpl	0x00004b48
     39c:	5246535f 	subpl	r5, r6, #2080374785	; 0x7c000001
     3a0:	5f544341 	svcpl	0x00544341
     3a4:	54494246 	strbpl	r4, [r9], #-582	; 0xfffffdba
     3a8:	37205f5f 			; <UNDEFINED> instruction: 0x37205f5f
     3ac:	495f5f00 	ldmdbmi	pc, {r8, r9, sl, fp, ip, lr}^	; <UNPREDICTABLE>
     3b0:	414d544e 	cmpmi	sp, lr, asr #8
     3b4:	49575f58 	ldmdbmi	r7, {r3, r4, r6, r8, r9, sl, fp, ip, lr}^
     3b8:	5f485444 	svcpl	0x00485444
     3bc:	3436205f 	ldrtcc	r2, [r6], #-95	; 0xffffffa1
     3c0:	415f5f00 	cmpmi	pc, r0, lsl #30
     3c4:	465f4d52 			; <UNDEFINED> instruction: 0x465f4d52
     3c8:	55544145 	ldrbpl	r4, [r4, #-325]	; 0xfffffebb
     3cc:	425f4552 	subsmi	r4, pc, #343932928	; 0x14800000
     3d0:	5f363146 	svcpl	0x00363146
     3d4:	4c414353 	mcrrmi	3, 5, r4, r1, cr3
     3d8:	415f5241 	cmpmi	pc, r1, asr #4
     3dc:	48544952 	ldmdami	r4, {r1, r4, r6, r8, fp, lr}^
     3e0:	4954454d 	ldmdbmi	r4, {r0, r2, r3, r6, r8, sl, lr}^
     3e4:	5f5f0043 	svcpl	0x005f0043
     3e8:	495f5153 	ldmdbmi	pc, {r0, r1, r4, r6, r8, ip, lr}^	; <UNPREDICTABLE>
     3ec:	5f544942 	svcpl	0x00544942
     3f0:	0030205f 	eorseq	r2, r0, pc, asr r0
     3f4:	524f5f5f 	subpl	r5, pc, #380	; 0x17c
     3f8:	5f524544 	svcpl	0x00524544
     3fc:	5f504450 	svcpl	0x00504450
     400:	49444e45 	stmdbmi	r4, {r0, r2, r6, r9, sl, fp, lr}^
     404:	5f5f4e41 	svcpl	0x005f4e41
     408:	31343320 	teqcc	r4, r0, lsr #6
     40c:	54460032 	strbpl	r0, [r6], #-50	; 0xffffffce
     410:	55005253 	strpl	r5, [r0, #-595]	; 0xfffffdad
     414:	5f544e49 	svcpl	0x00544e49
     418:	54534146 	ldrbpl	r4, [r3], #-326	; 0xfffffeba
     41c:	4d5f3233 	lfmmi	f3, 2, [pc, #-204]	; 358 <_Min_Heap_Size+0x158>
     420:	28205841 	stmdacs	r0!, {r0, r6, fp, ip, lr}
     424:	49555f5f 	ldmdbmi	r5, {r0, r1, r2, r3, r4, r6, r8, r9, sl, fp, ip, lr}^
     428:	465f544e 	ldrbmi	r5, [pc], -lr, asr #8
     42c:	33545341 	cmpcc	r4, #67108865	; 0x4000001
     430:	414d5f32 	cmpmi	sp, r2, lsr pc
     434:	295f5f58 	ldmdbcs	pc, {r3, r4, r6, r8, r9, sl, fp, ip, lr}^	; <UNPREDICTABLE>
     438:	495f5f00 	ldmdbmi	pc, {r8, r9, sl, fp, ip, lr}^	; <UNPREDICTABLE>
     43c:	5f38544e 	svcpl	0x0038544e
     440:	45505954 	ldrbmi	r5, [r0, #-2388]	; 0xfffff6ac
     444:	73205f5f 			; <UNDEFINED> instruction: 0x73205f5f
     448:	656e6769 	strbvs	r6, [lr, #-1897]!	; 0xfffff897
     44c:	68632064 	stmdavs	r3!, {r2, r5, r6, sp}^
     450:	5f007261 	svcpl	0x00007261
     454:	544c465f 	strbpl	r4, [ip], #-1631	; 0xfffff9a1
     458:	4d5f3233 	lfmmi	f3, 2, [pc, #-204]	; 394 <_Min_Heap_Size+0x194>
     45c:	5f5f4e49 	svcpl	0x005f4e49
     460:	312e3120 			; <UNDEFINED> instruction: 0x312e3120
     464:	39343537 	ldmdbcc	r4!, {r0, r1, r2, r4, r5, r8, sl, ip, sp}
     468:	30353334 	eorscc	r3, r5, r4, lsr r3
     46c:	32323238 	eorscc	r3, r2, #56, 4	; 0x80000003
     470:	65353738 	ldrvs	r3, [r5, #-1848]!	; 0xfffff8c8
     474:	4638332d 	ldrtmi	r3, [r8], -sp, lsr #6
     478:	5f003233 	svcpl	0x00003233
     47c:	4153555f 	cmpmi	r3, pc, asr r5
     480:	4d554343 	ldclmi	3, cr4, [r5, #-268]	; 0xfffffef4
     484:	4e494d5f 	mcrmi	13, 2, r4, cr9, cr15, {2}
     488:	30205f5f 	eorcc	r5, r0, pc, asr pc
     48c:	4855302e 	ldmdami	r5, {r1, r2, r3, r5, ip, sp}^
     490:	5f5f004b 	svcpl	0x005f004b
     494:	33544c46 	cmpcc	r4, #17920	; 0x4600
     498:	45445f32 	strbmi	r5, [r4, #-3890]	; 0xfffff0ce
     49c:	414d4943 	cmpmi	sp, r3, asr #18
     4a0:	49445f4c 	stmdbmi	r4, {r2, r3, r6, r8, r9, sl, fp, ip, lr}^
     4a4:	205f5f47 	subscs	r5, pc, r7, asr #30
     4a8:	5f5f0039 	svcpl	0x005f0039
     4ac:	4c42444c 	cfstrdmi	mvd4, [r2], {76}	; 0x4c
     4b0:	4e494d5f 	mcrmi	13, 2, r4, cr9, cr15, {2}
     4b4:	5058455f 	subspl	r4, r8, pc, asr r5
     4b8:	28205f5f 	stmdacs	r0!, {r0, r1, r2, r3, r4, r6, r8, r9, sl, fp, ip, lr}
     4bc:	3230312d 	eorscc	r3, r0, #1073741835	; 0x4000000b
     4c0:	5f002931 	svcpl	0x00002931
     4c4:	42444c5f 	submi	r4, r4, #24320	; 0x5f00
     4c8:	414d5f4c 	cmpmi	sp, ip, asr #30
     4cc:	445f544e 	ldrbmi	r5, [pc], #-1102	; 4d4 <_Min_Stack_Size+0xd4>
     4d0:	5f5f4749 	svcpl	0x005f4749
     4d4:	00333520 	eorseq	r3, r3, r0, lsr #10
     4d8:	49555f5f 	ldmdbmi	r5, {r0, r1, r2, r3, r4, r6, r8, r9, sl, fp, ip, lr}^
     4dc:	5f38544e 	svcpl	0x0038544e
     4e0:	29632843 	stmdbcs	r3!, {r0, r1, r6, fp, sp}^
     4e4:	5f006320 	svcpl	0x00006320
     4e8:	544e495f 	strbpl	r4, [lr], #-2399	; 0xfffff6a1
     4ec:	545f3631 	ldrbpl	r3, [pc], #-1585	; 4f4 <_Min_Stack_Size+0xf4>
     4f0:	5f455059 	svcpl	0x00455059
     4f4:	6873205f 	ldmdavs	r3!, {r0, r1, r2, r3, r4, r6, sp}^
     4f8:	2074726f 	rsbscs	r7, r4, pc, ror #4
     4fc:	00746e69 	rsbseq	r6, r4, r9, ror #28
     500:	4c465f5f 	mcrrmi	15, 5, r5, r6, cr15
     504:	5f343654 	svcpl	0x00343654
     508:	5f58414d 	svcpl	0x0058414d
     50c:	2e31205f 	mrccs	0, 1, r2, cr1, cr15, {2}
     510:	36373937 			; <UNDEFINED> instruction: 0x36373937
     514:	33313339 	teqcc	r1, #-469762048	; 0xe4000000
     518:	32363834 	eorscc	r3, r6, #52, 16	; 0x340000
     51c:	37353133 			; <UNDEFINED> instruction: 0x37353133
     520:	30332b65 	eorscc	r2, r3, r5, ror #22
     524:	34364638 	ldrtcc	r4, [r6], #-1592	; 0xfffff9c8
     528:	49504700 	ldmdbmi	r0, {r8, r9, sl, lr}^
     52c:	425f454f 	subsmi	r4, pc, #331350016	; 0x13c00000
     530:	20455341 	subcs	r5, r5, r1, asr #6
     534:	30347830 	eorscc	r7, r4, r0, lsr r8
     538:	38313130 	ldmdacc	r1!, {r4, r5, r8, ip, sp}
     53c:	47003030 	smladxmi	r0, r0, r0, r3
     540:	5f4f4950 	svcpl	0x004f4950
     544:	464e4f43 	strbmi	r4, [lr], -r3, asr #30
     548:	745f4749 	ldrbvc	r4, [pc], #-1865	; 550 <_Min_Stack_Size+0x150>
     54c:	495f5f00 	ldmdbmi	pc, {r8, r9, sl, fp, ip, lr}^	; <UNPREDICTABLE>
     550:	2038544e 	eorscs	r5, r8, lr, asr #8
     554:	22686822 	rsbcs	r6, r8, #2228224	; 0x220000
     558:	49504700 	ldmdbmi	r0, {r8, r9, sl, lr}^
     55c:	525f784f 	subspl	r7, pc, #5177344	; 0x4f0000
     560:	5f004745 	svcpl	0x00004745
     564:	4343475f 	movtmi	r4, #14175	; 0x375f
     568:	5641485f 			; <UNDEFINED> instruction: 0x5641485f
     56c:	59535f45 	ldmdbpl	r3, {r0, r2, r6, r8, r9, sl, fp, ip, lr}^
     570:	435f434e 	cmpmi	pc, #939524097	; 0x38000001
     574:	41504d4f 	cmpmi	r0, pc, asr #26
     578:	415f4552 	cmpmi	pc, r2, asr r5	; <UNPREDICTABLE>
     57c:	535f444e 	cmppl	pc, #1308622848	; 0x4e000000
     580:	5f504157 	svcpl	0x00504157
     584:	00312031 	eorseq	r2, r1, r1, lsr r0
     588:	5f544e49 	svcpl	0x00544e49
     58c:	5341454c 	movtpl	r4, #5452	; 0x154c
     590:	5f363154 	svcpl	0x00363154
     594:	2058414d 	subscs	r4, r8, sp, asr #2
     598:	495f5f28 	ldmdbmi	pc, {r3, r5, r8, r9, sl, fp, ip, lr}^	; <UNPREDICTABLE>
     59c:	4c5f544e 	cfldrdmi	mvd5, [pc], {78}	; 0x4e
     5a0:	54534145 	ldrbpl	r4, [r3], #-325	; 0xfffffebb
     5a4:	4d5f3631 	ldclmi	6, cr3, [pc, #-196]	; 4e8 <_Min_Stack_Size+0xe8>
     5a8:	5f5f5841 	svcpl	0x005f5841
     5ac:	4e490029 	cdpmi	0, 4, cr0, cr9, cr9, {1}
     5b0:	41465f54 	cmpmi	r6, r4, asr pc
     5b4:	36315453 			; <UNDEFINED> instruction: 0x36315453
     5b8:	58414d5f 	stmdapl	r1, {r0, r1, r2, r3, r4, r6, r8, sl, fp, lr}^
     5bc:	5f5f2820 	svcpl	0x005f2820
     5c0:	5f544e49 	svcpl	0x00544e49
     5c4:	54534146 	ldrbpl	r4, [r3], #-326	; 0xfffffeba
     5c8:	4d5f3631 	ldclmi	6, cr3, [pc, #-196]	; 50c <_Min_Stack_Size+0x10c>
     5cc:	5f5f5841 	svcpl	0x005f5841
     5d0:	5f5f0029 	svcpl	0x005f0029
     5d4:	464c4c55 			; <UNDEFINED> instruction: 0x464c4c55
     5d8:	54434152 	strbpl	r4, [r3], #-338	; 0xfffffeae
     5dc:	4942465f 	stmdbmi	r2, {r0, r1, r2, r3, r4, r6, r9, sl, lr}^
     5e0:	205f5f54 	subscs	r5, pc, r4, asr pc	; <UNPREDICTABLE>
     5e4:	5f003436 	svcpl	0x00003436
     5e8:	4749535f 	smlsldmi	r5, r9, pc, r3	; <UNPREDICTABLE>
     5ec:	4f54415f 	svcmi	0x0054415f
     5f0:	5f43494d 	svcpl	0x0043494d
     5f4:	45505954 	ldrbmi	r5, [r0, #-2388]	; 0xfffff6ac
     5f8:	69205f5f 	stmdbvs	r0!, {r0, r1, r2, r3, r4, r6, r8, r9, sl, fp, ip, lr}
     5fc:	5f00746e 	svcpl	0x0000746e
     600:	544e495f 	strbpl	r4, [lr], #-2399	; 0xfffff6a1
     604:	5341465f 	movtpl	r4, #5727	; 0x165f
     608:	5f343654 	svcpl	0x00343654
     60c:	45505954 	ldrbmi	r5, [r0, #-2388]	; 0xfffff6ac
     610:	6c205f5f 	stcvs	15, cr5, [r0], #-380	; 0xfffffe84
     614:	20676e6f 	rsbcs	r6, r7, pc, ror #28
     618:	676e6f6c 	strbvs	r6, [lr, -ip, ror #30]!
     61c:	746e6920 	strbtvc	r6, [lr], #-2336	; 0xfffff6e0
     620:	415f5f00 	cmpmi	pc, r0, lsl #30
     624:	465f4d52 			; <UNDEFINED> instruction: 0x465f4d52
     628:	55544145 	ldrbpl	r4, [r4, #-325]	; 0xfffffebb
     62c:	435f4552 	cmpmi	pc, #343932928	; 0x14800000
     630:	4f52504f 	svcmi	0x0052504f
     634:	35312043 	ldrcc	r2, [r1, #-67]!	; 0xffffffbd
     638:	544e4900 	strbpl	r4, [lr], #-2304	; 0xfffff700
     63c:	414d5f38 	cmpmi	sp, r8, lsr pc
     640:	5f282058 	svcpl	0x00282058
     644:	544e495f 	strbpl	r4, [lr], #-2399	; 0xfffff6a1
     648:	414d5f38 	cmpmi	sp, r8, lsr pc
     64c:	295f5f58 	ldmdbcs	pc, {r3, r4, r6, r8, r9, sl, fp, ip, lr}^	; <UNPREDICTABLE>
     650:	465f5f00 	ldrbmi	r5, [pc], -r0, lsl #30
     654:	3233544c 	eorscc	r5, r3, #76, 8	; 0x4c000000
     658:	41485f58 	cmpmi	r8, r8, asr pc
     65c:	55515f53 	ldrbpl	r5, [r1, #-3923]	; 0xfffff0ad
     660:	5f544549 	svcpl	0x00544549
     664:	5f4e414e 	svcpl	0x004e414e
     668:	0031205f 	eorseq	r2, r1, pc, asr r0
     66c:	44525450 	ldrbmi	r5, [r2], #-1104	; 0xfffffbb0
     670:	5f464649 	svcpl	0x00464649
     674:	2058414d 	subscs	r4, r8, sp, asr #2
     678:	505f5f28 	subspl	r5, pc, r8, lsr #30
     67c:	49445254 	stmdbmi	r4, {r2, r4, r6, r9, ip, lr}^
     680:	4d5f4646 	ldclmi	6, cr4, [pc, #-280]	; 570 <_Min_Stack_Size+0x170>
     684:	5f5f5841 	svcpl	0x005f5841
     688:	58450029 	stmdapl	r5, {r0, r3, r5}^
     68c:	43503054 	cmpmi	r0, #84	; 0x54
     690:	47282030 			; <UNDEFINED> instruction: 0x47282030
     694:	5f4f4950 	svcpl	0x004f4950
     698:	464e4f43 	strbmi	r4, [lr], -r3, asr #30
     69c:	745f4749 	ldrbvc	r4, [pc], #-1865	; 6a4 <_Min_Stack_Size+0x2a4>
     6a0:	58457b29 	stmdapl	r5, {r0, r3, r5, r8, r9, fp, ip, sp, lr}^
     6a4:	2c304954 			; <UNDEFINED> instruction: 0x2c304954
     6a8:	4f495047 	svcmi	0x00495047
     6ac:	49502c43 	ldmdbmi	r0, {r0, r1, r6, sl, fp, sp}^
     6b0:	2c305f4e 	ldccs	15, cr5, [r0], #-312	; 0xfffffec8
     6b4:	30545845 	subscc	r5, r4, r5, asr #16
     6b8:	5152495f 	cmppl	r2, pc, asr r9
     6bc:	5f5f007d 	svcpl	0x005f007d
     6c0:	33544c46 	cmpcc	r4, #17920	; 0x4600
     6c4:	414d5f32 	cmpmi	sp, r2, lsr pc
     6c8:	30315f58 	eorscc	r5, r1, r8, asr pc
     6cc:	5058455f 	subspl	r4, r8, pc, asr r5
     6d0:	33205f5f 			; <UNDEFINED> instruction: 0x33205f5f
     6d4:	564e0038 			; <UNDEFINED> instruction: 0x564e0038
     6d8:	455f4349 	ldrbmi	r4, [pc, #-841]	; 397 <_Min_Heap_Size+0x197>
     6dc:	37495458 	smlsldcc	r5, r9, r8, r4
     6e0:	2820445f 	stmdacs	r0!, {r0, r1, r2, r3, r4, r6, sl, lr}
     6e4:	4349564e 	movtmi	r5, #38478	; 0x964e
     6e8:	4553495f 	ldrbmi	r4, [r3, #-2399]	; 0xfffff6a1
     6ec:	3d263052 	stccc	0, cr3, [r6, #-328]!	; 0xfffffeb8
     6f0:	3c31287e 	ldccc	8, cr2, [r1], #-504	; 0xfffffe08
     6f4:	5458453c 	ldrbpl	r4, [r8], #-1340	; 0xfffffac4
     6f8:	52495f37 	subpl	r5, r9, #55, 30	; 0xdc
     6fc:	00292951 	eoreq	r2, r9, r1, asr r9
     700:	53555f5f 	cmppl	r5, #380	; 0x17c
     704:	43415246 	movtmi	r5, #4678	; 0x1246
     708:	414d5f54 	cmpmi	sp, r4, asr pc
     70c:	205f5f58 	subscs	r5, pc, r8, asr pc	; <UNPREDICTABLE>
     710:	46465830 			; <UNDEFINED> instruction: 0x46465830
     714:	55382d50 	ldrpl	r2, [r8, #-3408]!	; 0xfffff2b0
     718:	45005248 	strmi	r5, [r0, #-584]	; 0xfffffdb8
     71c:	31495458 	cmpcc	r9, r8, asr r4
     720:	30312030 	eorscc	r2, r1, r0, lsr r0
     724:	555f5f00 	ldrbpl	r5, [pc, #-3840]	; fffff82c <_estack+0xdfffd02c>
     728:	50544e49 	subspl	r4, r4, r9, asr #28
     72c:	4d5f5254 	lfmmi	f5, 2, [pc, #-336]	; 5e4 <_Min_Stack_Size+0x1e4>
     730:	5f5f5841 	svcpl	0x005f5841
     734:	66783020 	ldrbtvs	r3, [r8], -r0, lsr #32
     738:	66666666 	strbtvs	r6, [r6], -r6, ror #12
     73c:	55666666 	strbpl	r6, [r6, #-1638]!	; 0xfffff99a
     740:	73757600 	cmnvc	r5, #0, 12
     744:	31746e69 	cmncc	r4, r9, ror #28
     748:	00745f36 	rsbseq	r5, r4, r6, lsr pc
     74c:	4349564e 	movtmi	r5, #38478	; 0x964e
     750:	5458455f 	ldrbpl	r4, [r8], #-1375	; 0xfffffaa1
     754:	5f323149 	svcpl	0x00323149
     758:	28204e45 	stmdacs	r0!, {r0, r2, r6, r9, sl, fp, lr}
     75c:	4349564e 	movtmi	r5, #38478	; 0x964e
     760:	4553495f 	ldrbmi	r4, [r3, #-2399]	; 0xfffff6a1
     764:	3d7c3152 	ldfcce	f3, [ip, #-328]!	; 0xfffffeb8
     768:	3c3c3128 	ldfccs	f3, [ip], #-160	; 0xffffff60
     76c:	00292938 	eoreq	r2, r9, r8, lsr r9
     770:	37545845 	ldrbcc	r5, [r4, -r5, asr #16]
     774:	5152495f 	cmppl	r2, pc, asr r9
     778:	00333220 	eorseq	r3, r3, r0, lsr #4
     77c:	31544e49 	cmpcc	r4, r9, asr #28
     780:	414d5f36 	cmpmi	sp, r6, lsr pc
     784:	5f282058 	svcpl	0x00282058
     788:	544e495f 	strbpl	r4, [lr], #-2399	; 0xfffff6a1
     78c:	4d5f3631 	ldclmi	6, cr3, [pc, #-196]	; 6d0 <_Min_Stack_Size+0x2d0>
     790:	5f5f5841 	svcpl	0x005f5841
     794:	5f5f0029 	svcpl	0x005f0029
     798:	52464c55 	subpl	r4, r6, #21760	; 0x5500
     79c:	5f544341 	svcpl	0x00544341
     7a0:	54494246 	strbpl	r4, [r9], #-582	; 0xfffffdba
     7a4:	33205f5f 			; <UNDEFINED> instruction: 0x33205f5f
     7a8:	58450032 	stmdapl	r5, {r1, r4, r5}^
     7ac:	32314954 	eorscc	r4, r1, #84, 18	; 0x150000
     7b0:	00323120 	eorseq	r3, r2, r0, lsr #2
     7b4:	4c465f5f 	mcrrmi	15, 5, r5, r6, cr15
     7b8:	5f343654 	svcpl	0x00343654
     7bc:	5f4e494d 	svcpl	0x004e494d
     7c0:	455f3031 	ldrbmi	r3, [pc, #-49]	; 797 <_Min_Stack_Size+0x397>
     7c4:	5f5f5058 	svcpl	0x005f5058
     7c8:	332d2820 			; <UNDEFINED> instruction: 0x332d2820
     7cc:	00293730 	eoreq	r3, r9, r0, lsr r7
     7d0:	4e475f5f 	mcrmi	15, 2, r5, cr7, cr15, {2}
     7d4:	455f4355 	ldrbmi	r4, [pc, #-853]	; 487 <_Min_Stack_Size+0x87>
     7d8:	55434558 	strbpl	r4, [r3, #-1368]	; 0xfffffaa8
     7dc:	4e4f4954 			; <UNDEFINED> instruction: 0x4e4f4954
     7e0:	4148435f 	cmpmi	r8, pc, asr r3
     7e4:	54455352 	strbpl	r5, [r5], #-850	; 0xfffffcae
     7e8:	4d414e5f 	stclmi	14, cr4, [r1, #-380]	; 0xfffffe84
     7ec:	55222045 	strpl	r2, [r2, #-69]!	; 0xffffffbb
     7f0:	382d4654 	stmdacc	sp!, {r2, r4, r6, r9, sl, lr}
     7f4:	5f5f0022 	svcpl	0x005f0022
     7f8:	5f746e69 	svcpl	0x00746e69
     7fc:	74736166 	ldrbtvc	r6, [r3], #-358	; 0xfffffe9a
     800:	745f3233 	ldrbvc	r3, [pc], #-563	; 808 <_Min_Stack_Size+0x408>
     804:	6665645f 			; <UNDEFINED> instruction: 0x6665645f
     808:	64656e69 	strbtvs	r6, [r5], #-3689	; 0xfffff197
     80c:	5f003120 	svcpl	0x00003120
     810:	544e495f 	strbpl	r4, [lr], #-2399	; 0xfffff6a1
     814:	5341465f 	movtpl	r4, #5727	; 0x165f
     818:	5f343654 	svcpl	0x00343654
     81c:	54444957 	strbpl	r4, [r4], #-2391	; 0xfffff6a9
     820:	205f5f48 	subscs	r5, pc, r8, asr #30
     824:	45003436 	strmi	r3, [r0, #-1078]	; 0xfffffbca
     828:	50395458 	eorspl	r5, r9, r8, asr r4
     82c:	28203944 	stmdacs	r0!, {r2, r6, r8, fp, ip, sp}
     830:	4f495047 	svcmi	0x00495047
     834:	4e4f435f 	mcrmi	3, 2, r4, cr15, cr15, {2}
     838:	5f474946 	svcpl	0x00474946
     83c:	457b2974 	ldrbmi	r2, [fp, #-2420]!	; 0xfffff68c
     840:	39495458 	stmdbcc	r9, {r3, r4, r6, sl, ip, lr}^
     844:	4950472c 	ldmdbmi	r0, {r2, r3, r5, r8, r9, sl, lr}^
     848:	502c444f 	eorpl	r4, ip, pc, asr #8
     84c:	395f4e49 	ldmdbcc	pc, {r0, r3, r6, r9, sl, fp, lr}^	; <UNPREDICTABLE>
     850:	5458452c 	ldrbpl	r4, [r8], #-1324	; 0xfffffad4
     854:	52495f39 	subpl	r5, r9, #57, 30	; 0xe4
     858:	4e007d51 	mcrmi	13, 0, r7, cr0, cr1, {2}
     85c:	5f434956 	svcpl	0x00434956
     860:	52454349 	subpl	r4, r5, #603979777	; 0x24000001
     864:	282a2030 	stmdacs	sl!, {r4, r5, sp}
     868:	73757628 	cmnvc	r5, #40, 12	; 0x2800000
     86c:	33746e69 	cmncc	r4, #1680	; 0x690
     870:	20745f32 	rsbscs	r5, r4, r2, lsr pc
     874:	2820292a 	stmdacs	r0!, {r1, r3, r5, r8, fp, sp}
     878:	4349564e 	movtmi	r5, #38478	; 0x964e
     87c:	5341425f 	movtpl	r4, #4703	; 0x125f
     880:	78302b45 	ldmdavc	r0!, {r0, r2, r6, r8, r9, fp, sp}
     884:	29303830 	ldmdbcs	r0!, {r4, r5, fp, ip, sp}
     888:	5f5f0029 	svcpl	0x005f0029
     88c:	41524653 	cmpmi	r2, r3, asr r6
     890:	455f5443 	ldrbmi	r5, [pc, #-1091]	; 455 <_Min_Stack_Size+0x55>
     894:	4c495350 	mcrrmi	3, 5, r5, r9, cr0
     898:	5f5f4e4f 	svcpl	0x005f4e4f
     89c:	31783020 	cmncc	r8, r0, lsr #32
     8a0:	48372d50 	ldmdami	r7!, {r4, r6, r8, sl, fp, sp}
     8a4:	5f5f0052 	svcpl	0x005f0052
     8a8:	33544e49 	cmpcc	r4, #1168	; 0x490
     8ac:	28435f32 	stmdacs	r3, {r1, r4, r5, r8, r9, sl, fp, ip, lr}^
     8b0:	63202963 			; <UNDEFINED> instruction: 0x63202963
     8b4:	20232320 	eorcs	r2, r3, r0, lsr #6
     8b8:	5f5f004c 	svcpl	0x005f004c
     8bc:	5f515355 	svcpl	0x00515355
     8c0:	54494246 	strbpl	r4, [r9], #-582	; 0xfffffdba
     8c4:	33205f5f 			; <UNDEFINED> instruction: 0x33205f5f
     8c8:	5f5f0032 	svcpl	0x005f0032
     8cc:	4544524f 	strbmi	r5, [r4, #-591]	; 0xfffffdb1
     8d0:	49425f52 	stmdbmi	r2, {r1, r4, r6, r8, r9, sl, fp, ip, lr}^
     8d4:	4e455f47 	cdpmi	15, 4, cr5, cr5, cr7, {2}
     8d8:	4e414944 	vmlsmi.f16	s9, s2, s8	; <UNPREDICTABLE>
     8dc:	34205f5f 	strtcc	r5, [r0], #-3935	; 0xfffff0a1
     8e0:	00313233 	eorseq	r3, r1, r3, lsr r2
     8e4:	49545845 	ldmdbmi	r4, {r0, r2, r6, fp, ip, lr}^
     8e8:	31203431 			; <UNDEFINED> instruction: 0x31203431
     8ec:	5f5f0034 	svcpl	0x005f0034
     8f0:	465f5153 			; <UNDEFINED> instruction: 0x465f5153
     8f4:	5f544942 	svcpl	0x00544942
     8f8:	3133205f 	teqcc	r3, pc, asr r0
     8fc:	475f5f00 	ldrbmi	r5, [pc, -r0, lsl #30]
     900:	5f4f4950 	svcpl	0x004f4950
     904:	56495244 	strbpl	r5, [r9], -r4, asr #4
     908:	5f5f5245 	svcpl	0x005f5245
     90c:	46002048 	strmi	r2, [r0], -r8, asr #32
     910:	494c4c41 	stmdbmi	ip, {r0, r6, sl, fp, lr}^
     914:	5f00474e 	svcpl	0x0000474e
     918:	5f51545f 	svcpl	0x0051545f
     91c:	54494249 	strbpl	r4, [r9], #-585	; 0xfffffdb7
     920:	30205f5f 	eorcc	r5, r0, pc, asr pc
     924:	59535f00 	ldmdbpl	r3, {r8, r9, sl, fp, ip, lr}^
     928:	535f5f53 	cmppl	pc, #332	; 0x14c
     92c:	4e494454 	mcrmi	4, 2, r4, cr9, cr4, {2}
     930:	20485f54 	subcs	r5, r8, r4, asr pc
     934:	544e4900 	strbpl	r4, [lr], #-2304	; 0xfffff700
     938:	41454c5f 	cmpmi	r5, pc, asr ip
     93c:	34365453 	ldrtcc	r5, [r6], #-1107	; 0xfffffbad
     940:	58414d5f 	stmdapl	r1, {r0, r1, r2, r3, r4, r6, r8, sl, fp, lr}^
     944:	5f5f2820 	svcpl	0x005f2820
     948:	5f544e49 	svcpl	0x00544e49
     94c:	5341454c 	movtpl	r4, #5452	; 0x154c
     950:	5f343654 	svcpl	0x00343654
     954:	5f58414d 	svcpl	0x0058414d
     958:	5f00295f 	svcpl	0x0000295f
     95c:	544c465f 	strbpl	r4, [ip], #-1631	; 0xfffff9a1
     960:	4d5f3436 	cfldrdmi	mvd3, [pc, #-216]	; 890 <_Min_Stack_Size+0x490>
     964:	455f4e49 	ldrbmi	r4, [pc, #-3657]	; fffffb23 <_estack+0xdfffd323>
     968:	5f5f5058 	svcpl	0x005f5058
     96c:	312d2820 			; <UNDEFINED> instruction: 0x312d2820
     970:	29313230 	ldmdbcs	r1!, {r4, r5, r9, ip, sp}
     974:	505f5f00 	subspl	r5, pc, r0, lsl #30
     978:	49445254 	stmdbmi	r4, {r2, r4, r6, r9, ip, lr}^
     97c:	575f4646 	ldrbpl	r4, [pc, -r6, asr #12]
     980:	48544449 	ldmdami	r4, {r0, r3, r6, sl, lr}^
     984:	33205f5f 			; <UNDEFINED> instruction: 0x33205f5f
     988:	5f5f0032 	svcpl	0x005f0032
     98c:	544e4955 	strbpl	r4, [lr], #-2389	; 0xfffff6ab
     990:	5341465f 	movtpl	r4, #5727	; 0x165f
     994:	4d5f3854 	ldclmi	8, cr3, [pc, #-336]	; 84c <_Min_Stack_Size+0x44c>
     998:	5f5f5841 	svcpl	0x005f5841
     99c:	66783020 	ldrbtvs	r3, [r8], -r0, lsr #32
     9a0:	66666666 	strbtvs	r6, [r6], -r6, ror #12
     9a4:	55666666 	strbpl	r6, [r6, #-1638]!	; 0xfffff99a
     9a8:	48435700 	stmdami	r3, {r8, r9, sl, ip, lr}^
     9ac:	4d5f5241 	lfmmi	f5, 2, [pc, #-260]	; 8b0 <_Min_Stack_Size+0x4b0>
     9b0:	28205841 	stmdacs	r0!, {r0, r6, fp, ip, lr}
     9b4:	43575f5f 	cmpmi	r7, #380	; 0x17c
     9b8:	5f524148 	svcpl	0x00524148
     9bc:	5f58414d 	svcpl	0x0058414d
     9c0:	5f00295f 	svcpl	0x0000295f
     9c4:	43414c5f 	movtmi	r4, #7263	; 0x1c5f
     9c8:	5f4d5543 	svcpl	0x004d5543
     9cc:	54494249 	strbpl	r4, [r9], #-585	; 0xfffffdb7
     9d0:	33205f5f 			; <UNDEFINED> instruction: 0x33205f5f
     9d4:	4e490032 	mcrmi	0, 2, r0, cr9, cr2, {1}
     9d8:	454c5f54 	strbmi	r5, [ip, #-3924]	; 0xfffff0ac
     9dc:	38545341 	ldmdacc	r4, {r0, r6, r8, r9, ip, lr}^
     9e0:	58414d5f 	stmdapl	r1, {r0, r1, r2, r3, r4, r6, r8, sl, fp, lr}^
     9e4:	5f5f2820 	svcpl	0x005f2820
     9e8:	5f544e49 	svcpl	0x00544e49
     9ec:	5341454c 	movtpl	r4, #5452	; 0x154c
     9f0:	4d5f3854 	ldclmi	8, cr3, [pc, #-336]	; 8a8 <_Min_Stack_Size+0x4a8>
     9f4:	5f5f5841 	svcpl	0x005f5841
     9f8:	5f5f0029 	svcpl	0x005f0029
     9fc:	00505845 	subseq	r5, r0, r5, asr #16
     a00:	43535f5f 	cmpmi	r3, #380	; 0x17c
     a04:	5f524148 	svcpl	0x00524148
     a08:	54444957 	strbpl	r4, [r4], #-2391	; 0xfffff6a9
     a0c:	205f5f48 	subscs	r5, pc, r8, asr #30
     a10:	5f5f0038 	svcpl	0x005f0038
     a14:	5f544e49 	svcpl	0x00544e49
     a18:	54534146 	ldrbpl	r4, [r3], #-326	; 0xfffffeba
     a1c:	575f3631 	smmlarpl	pc, r1, r6, r3	; <UNPREDICTABLE>
     a20:	48544449 	ldmdami	r4, {r0, r3, r6, sl, lr}^
     a24:	33205f5f 			; <UNDEFINED> instruction: 0x33205f5f
     a28:	5f5f0032 	svcpl	0x005f0032
     a2c:	5f504656 	svcpl	0x00504656
     a30:	5f5f5046 	svcpl	0x005f5046
     a34:	5f003120 	svcpl	0x00003120
     a38:	41454c5f 	cmpmi	r5, pc, asr ip
     a3c:	32335453 	eorscc	r5, r3, #1392508928	; 0x53000000
     a40:	226c2220 	rsbcs	r2, ip, #32, 4
     a44:	495f5f00 	ldmdbmi	pc, {r8, r9, sl, fp, ip, lr}^	; <UNPREDICTABLE>
     a48:	3436544e 	ldrtcc	r5, [r6], #-1102	; 0xfffffbb2
     a4c:	6c6c2220 	sfmvs	f2, 2, [ip], #-128	; 0xffffff80
     a50:	5f5f0022 	svcpl	0x005f0022
     a54:	50544e49 	subspl	r4, r4, r9, asr #28
     a58:	4d5f5254 	lfmmi	f5, 2, [pc, #-336]	; 910 <_Min_Stack_Size+0x510>
     a5c:	5f5f5841 	svcpl	0x005f5841
     a60:	37783020 	ldrbcc	r3, [r8, -r0, lsr #32]!
     a64:	66666666 	strbtvs	r6, [r6], -r6, ror #12
     a68:	00666666 	rsbeq	r6, r6, r6, ror #12
     a6c:	49555f5f 	ldmdbmi	r5, {r0, r1, r2, r3, r4, r6, r8, r9, sl, fp, ip, lr}^
     a70:	465f544e 	ldrbmi	r5, [pc], -lr, asr #8
     a74:	31545341 	cmpcc	r4, r1, asr #6
     a78:	414d5f36 	cmpmi	sp, r6, lsr pc
     a7c:	205f5f58 	subscs	r5, pc, r8, asr pc	; <UNPREDICTABLE>
     a80:	66667830 			; <UNDEFINED> instruction: 0x66667830
     a84:	66666666 	strbtvs	r6, [r6], -r6, ror #12
     a88:	00556666 	subseq	r6, r5, r6, ror #12
     a8c:	5f544e49 	svcpl	0x00544e49
     a90:	5341454c 	movtpl	r4, #5452	; 0x154c
     a94:	5f343654 	svcpl	0x00343654
     a98:	204e494d 	subcs	r4, lr, sp, asr #18
     a9c:	5f5f2d28 	svcpl	0x005f2d28
     aa0:	5f544e49 	svcpl	0x00544e49
     aa4:	5341454c 	movtpl	r4, #5452	; 0x154c
     aa8:	5f343654 	svcpl	0x00343654
     aac:	5f58414d 	svcpl	0x0058414d
     ab0:	202d205f 	eorcs	r2, sp, pc, asr r0
     ab4:	45002931 	strmi	r2, [r0, #-2353]	; 0xfffff6cf
     ab8:	30315458 	eorscc	r5, r1, r8, asr r4
     abc:	5152495f 	cmppl	r2, pc, asr r9
     ac0:	00303420 	eorseq	r3, r0, r0, lsr #8
     ac4:	4e475f5f 	mcrmi	15, 2, r5, cr7, cr15, {2}
     ac8:	505f4355 	subspl	r4, pc, r5, asr r3	; <UNPREDICTABLE>
     acc:	45524552 	ldrbmi	r4, [r2, #-1362]	; 0xfffffaae
     ad0:	616d2851 	cmnvs	sp, r1, asr r8
     ad4:	696d2c6a 	stmdbvs	sp!, {r1, r3, r5, r6, sl, fp, sp}^
     ad8:	2820296e 	stmdacs	r0!, {r1, r2, r3, r5, r6, r8, fp, sp}
     adc:	475f5f28 	ldrbmi	r5, [pc, -r8, lsr #30]
     ae0:	5f43554e 	svcpl	0x0043554e
     ae4:	3c3c205f 	ldccc	0, cr2, [ip], #-380	; 0xfffffe84
     ae8:	29363120 	ldmdbcs	r6!, {r5, r8, ip, sp}
     aec:	5f202b20 	svcpl	0x00202b20
     af0:	554e475f 	strbpl	r4, [lr, #-1887]	; 0xfffff8a1
     af4:	494d5f43 	stmdbmi	sp, {r0, r1, r6, r8, r9, sl, fp, ip, lr}^
     af8:	5f524f4e 	svcpl	0x00524f4e
     afc:	3d3e205f 	ldccc	0, cr2, [lr, #-380]!	; 0xfffffe84
     b00:	6d282820 	stcvs	8, cr2, [r8, #-128]!	; 0xffffff80
     b04:	20296a61 	eorcs	r6, r9, r1, ror #20
     b08:	31203c3c 			; <UNDEFINED> instruction: 0x31203c3c
     b0c:	2b202936 	blcs	80afec <_Min_Stack_Size+0x80abec>
     b10:	696d2820 	stmdbvs	sp!, {r5, fp, sp}^
     b14:	0029296e 	eoreq	r2, r9, lr, ror #18
     b18:	46555f5f 	usaxmi	r5, r5, pc	; <UNPREDICTABLE>
     b1c:	54434152 	strbpl	r4, [r3], #-338	; 0xfffffeae
     b20:	4e494d5f 	mcrmi	13, 2, r4, cr9, cr15, {2}
     b24:	30205f5f 	eorcc	r5, r0, pc, asr pc
     b28:	5255302e 	subspl	r3, r5, #46	; 0x2e
     b2c:	4e495f00 	cdpmi	15, 4, cr5, cr9, cr0, {0}
     b30:	52545054 	subspl	r5, r4, #84	; 0x54
     b34:	445f545f 	ldrbmi	r5, [pc], #-1119	; b3c <_Min_Stack_Size+0x73c>
     b38:	414c4345 	cmpmi	ip, r5, asr #6
     b3c:	20444552 	subcs	r4, r4, r2, asr r5
     b40:	444f4d00 	strbmi	r4, [pc], #-3328	; b48 <_Min_Stack_Size+0x748>
     b44:	5f5f0045 	svcpl	0x005f0045
     b48:	33544c46 	cmpcc	r4, #17920	; 0x4600
     b4c:	485f5832 	ldmdami	pc, {r1, r4, r5, fp, ip, lr}^	; <UNPREDICTABLE>
     b50:	495f5341 	ldmdbmi	pc, {r0, r6, r8, r9, ip, lr}^	; <UNPREDICTABLE>
     b54:	4e49464e 	cdpmi	6, 4, cr4, cr9, cr14, {2}
     b58:	5f595449 	svcpl	0x00595449
     b5c:	0031205f 	eorseq	r2, r1, pc, asr r0
     b60:	5f544e49 	svcpl	0x00544e49
     b64:	54534146 	ldrbpl	r4, [r3], #-326	; 0xfffffeba
     b68:	4d5f3233 	lfmmi	f3, 2, [pc, #-204]	; aa4 <_Min_Stack_Size+0x6a4>
     b6c:	28204e49 	stmdacs	r0!, {r0, r3, r6, r9, sl, fp, lr}
     b70:	495f5f2d 	ldmdbmi	pc, {r0, r2, r3, r5, r8, r9, sl, fp, ip, lr}^	; <UNPREDICTABLE>
     b74:	465f544e 	ldrbmi	r5, [pc], -lr, asr #8
     b78:	33545341 	cmpcc	r4, #67108865	; 0x4000001
     b7c:	414d5f32 	cmpmi	sp, r2, lsr pc
     b80:	205f5f58 	subscs	r5, pc, r8, asr pc	; <UNPREDICTABLE>
     b84:	2931202d 	ldmdbcs	r1!, {r0, r2, r3, r5, sp}
     b88:	42454400 	submi	r4, r5, #0, 8
     b8c:	31204755 			; <UNDEFINED> instruction: 0x31204755
     b90:	54584500 	ldrbpl	r4, [r8], #-1280	; 0xfffffb00
     b94:	52495f34 	subpl	r5, r9, #52, 30	; 0xd0
     b98:	30312051 	eorscc	r2, r1, r1, asr r0
     b9c:	555f5f00 	ldrbpl	r5, [pc, #-3840]	; fffffca4 <_estack+0xdfffd4a4>
     ba0:	55434341 	strbpl	r4, [r3, #-833]	; 0xfffffcbf
     ba4:	42495f4d 	submi	r5, r9, #308	; 0x134
     ba8:	5f5f5449 	svcpl	0x005f5449
     bac:	00363120 	eorseq	r3, r6, r0, lsr #2
     bb0:	4e495f5f 	mcrmi	15, 2, r5, cr9, cr15, {2}
     bb4:	41465f54 	cmpmi	r6, r4, asr pc
     bb8:	34365453 	ldrtcc	r5, [r6], #-1107	; 0xfffffbad
     bbc:	58414d5f 	stmdapl	r1, {r0, r1, r2, r3, r4, r6, r8, sl, fp, lr}^
     bc0:	30205f5f 	eorcc	r5, r0, pc, asr pc
     bc4:	66663778 			; <UNDEFINED> instruction: 0x66663778
     bc8:	66666666 	strbtvs	r6, [r6], -r6, ror #12
     bcc:	66666666 	strbtvs	r6, [r6], -r6, ror #12
     bd0:	66666666 	strbtvs	r6, [r6], -r6, ror #12
     bd4:	004c4c66 	subeq	r4, ip, r6, ror #24
     bd8:	4c465f5f 	mcrrmi	15, 5, r5, r6, cr15
     bdc:	58323354 	ldmdapl	r2!, {r2, r4, r6, r8, r9, ip, sp}
     be0:	4345445f 	movtmi	r4, #21599	; 0x545f
     be4:	4c414d49 	mcrrmi	13, 4, r4, r1, cr9
     be8:	4749445f 	smlsldmi	r4, r9, pc, r4	; <UNPREDICTABLE>
     bec:	31205f5f 			; <UNDEFINED> instruction: 0x31205f5f
     bf0:	5f5f0037 	svcpl	0x005f0037
     bf4:	5f4c4244 	svcpl	0x004c4244
     bf8:	5f4e494d 	svcpl	0x004e494d
     bfc:	2828205f 	stmdacs	r8!, {r0, r1, r2, r3, r4, r6, sp}
     c00:	62756f64 	rsbsvs	r6, r5, #100, 30	; 0x190
     c04:	3229656c 	eorcc	r6, r9, #108, 10	; 0x1b000000
     c08:	3532322e 	ldrcc	r3, [r2, #-558]!	; 0xfffffdd2
     c0c:	38333730 	ldmdacc	r3!, {r4, r5, r8, r9, sl, ip, sp}
     c10:	30353835 	eorscc	r3, r5, r5, lsr r8
     c14:	31303237 	teqcc	r0, r7, lsr r2
     c18:	332d6534 			; <UNDEFINED> instruction: 0x332d6534
     c1c:	294c3830 	stmdbcs	ip, {r4, r5, fp, ip, sp}^
     c20:	554e4700 	strbpl	r4, [lr, #-1792]	; 0xfffff900
     c24:	31314320 	teqcc	r1, r0, lsr #6
     c28:	2e313120 	rsfcssp	f3, f1, f0
     c2c:	20312e33 	eorscs	r2, r1, r3, lsr lr
     c30:	32323032 	eorscc	r3, r2, #50	; 0x32
     c34:	32313730 	eorscc	r3, r1, #48, 14	; 0xc00000
     c38:	636d2d20 	cmnvs	sp, #32, 26	; 0x800
     c3c:	633d7570 	teqvs	sp, #112, 10	; 0x1c000000
     c40:	6574726f 	ldrbvs	r7, [r4, #-623]!	; 0xfffffd91
     c44:	336d2d78 	cmncc	sp, #120, 26	; 0x1e00
     c48:	666d2d20 	strbtvs	r2, [sp], -r0, lsr #26
     c4c:	74616f6c 	strbtvc	r6, [r1], #-3948	; 0xfffff094
     c50:	6962612d 	stmdbvs	r2!, {r0, r2, r3, r5, r8, sp, lr}^
     c54:	666f733d 			; <UNDEFINED> instruction: 0x666f733d
     c58:	6d2d2074 	stcvs	0, cr2, [sp, #-464]!	; 0xfffffe30
     c5c:	6d756874 	ldclvs	8, cr6, [r5, #-464]!	; 0xfffffe30
     c60:	6d2d2062 	stcvs	0, cr2, [sp, #-392]!	; 0xfffffe78
     c64:	68637261 	stmdavs	r3!, {r0, r5, r6, r9, ip, sp, lr}^
     c68:	6d72613d 	ldfvse	f6, [r2, #-244]!	; 0xffffff0c
     c6c:	6d2d3776 	stcvs	7, cr3, [sp, #-472]!	; 0xfffffe28
     c70:	64672d20 	strbtvs	r2, [r7], #-3360	; 0xfffff2e0
     c74:	66726177 			; <UNDEFINED> instruction: 0x66726177
     c78:	2d20322d 	sfmcs	f3, 4, [r0, #-180]!	; 0xffffff4c
     c7c:	2d203367 	stccs	3, cr3, [r0, #-412]!	; 0xfffffe64
     c80:	2d20304f 	stccs	0, cr3, [r0, #-316]!	; 0xfffffec4
     c84:	3d647473 	cfstrdcc	mvd7, [r4, #-460]!	; 0xfffffe34
     c88:	31756e67 	cmncc	r5, r7, ror #28
     c8c:	662d2031 			; <UNDEFINED> instruction: 0x662d2031
     c90:	636e7566 	cmnvs	lr, #427819008	; 0x19800000
     c94:	6e6f6974 			; <UNDEFINED> instruction: 0x6e6f6974
     c98:	6365732d 	cmnvs	r5, #-1275068416	; 0xb4000000
     c9c:	6e6f6974 			; <UNDEFINED> instruction: 0x6e6f6974
     ca0:	662d2073 			; <UNDEFINED> instruction: 0x662d2073
     ca4:	61746164 	cmnvs	r4, r4, ror #2
     ca8:	6365732d 	cmnvs	r5, #-1275068416	; 0xb4000000
     cac:	6e6f6974 			; <UNDEFINED> instruction: 0x6e6f6974
     cb0:	662d2073 			; <UNDEFINED> instruction: 0x662d2073
     cb4:	63617473 	cmnvs	r1, #1929379840	; 0x73000000
     cb8:	73752d6b 	cmnvc	r5, #6848	; 0x1ac0
     cbc:	20656761 	rsbcs	r6, r5, r1, ror #14
     cc0:	7963662d 	stmdbvc	r3!, {r0, r2, r3, r5, r9, sl, sp, lr}^
     cc4:	6d6f6c63 	stclvs	12, cr6, [pc, #-396]!	; b40 <_Min_Stack_Size+0x740>
     cc8:	63697461 	cmnvs	r9, #1627389952	; 0x61000000
     ccc:	6d6f632d 	stclvs	3, cr6, [pc, #-180]!	; c20 <_Min_Stack_Size+0x820>
     cd0:	78656c70 	stmdavc	r5!, {r4, r5, r6, sl, fp, sp, lr}^
     cd4:	00797469 	rsbseq	r7, r9, r9, ror #8
     cd8:	49545845 	ldmdbmi	r4, {r0, r2, r6, fp, ip, lr}^
     cdc:	00342034 	eorseq	r2, r4, r4, lsr r0
     ce0:	695f5f5f 	ldmdbvs	pc, {r0, r1, r2, r3, r4, r6, r8, r9, sl, fp, ip, lr}^	; <UNPREDICTABLE>
     ce4:	6c5f746e 	cfldrdvs	mvd7, [pc], {110}	; 0x6e
     ce8:	74736165 	ldrbtvc	r6, [r3], #-357	; 0xfffffe9b
     cec:	745f3631 	ldrbvc	r3, [pc], #-1585	; cf4 <_Min_Stack_Size+0x8f4>
     cf0:	6665645f 			; <UNDEFINED> instruction: 0x6665645f
     cf4:	64656e69 	strbtvs	r6, [r5], #-3689	; 0xfffff197
     cf8:	5f003120 	svcpl	0x00003120
     cfc:	4d52415f 	ldfmie	f4, [r2, #-380]	; 0xfffffe84
     d00:	4352415f 	cmpmi	r2, #-1073741801	; 0xc0000017
     d04:	4d375f48 	ldcmi	15, cr5, [r7, #-288]!	; 0xfffffee0
     d08:	31205f5f 			; <UNDEFINED> instruction: 0x31205f5f
     d0c:	495f5f00 	ldmdbmi	pc, {r8, r9, sl, fp, ip, lr}^	; <UNPREDICTABLE>
     d10:	465f544e 	ldrbmi	r5, [pc], -lr, asr #8
     d14:	38545341 	ldmdacc	r4, {r0, r6, r8, r9, ip, lr}^
     d18:	5059545f 	subspl	r5, r9, pc, asr r4
     d1c:	205f5f45 	subscs	r5, pc, r5, asr #30
     d20:	00746e69 	rsbseq	r6, r4, r9, ror #28
     d24:	45455053 	strbmi	r5, [r5, #-83]	; 0xffffffad
     d28:	30355f44 	eorscc	r5, r5, r4, asr #30
     d2c:	555f5f00 	ldrbpl	r5, [pc, #-3840]	; fffffe34 <_estack+0xdfffd634>
     d30:	465f4144 	ldrbmi	r4, [pc], -r4, asr #2
     d34:	5f544942 	svcpl	0x00544942
     d38:	3233205f 	eorscc	r2, r3, #95	; 0x5f
     d3c:	54584500 	ldrbpl	r4, [r8], #-1280	; 0xfffffb00
     d40:	36435036 			; <UNDEFINED> instruction: 0x36435036
     d44:	50472820 	subpl	r2, r7, r0, lsr #16
     d48:	435f4f49 	cmpmi	pc, #292	; 0x124
     d4c:	49464e4f 	stmdbmi	r6, {r0, r1, r2, r3, r6, r9, sl, fp, lr}^
     d50:	29745f47 	ldmdbcs	r4!, {r0, r1, r2, r6, r8, r9, sl, fp, ip, lr}^
     d54:	5458457b 	ldrbpl	r4, [r8], #-1403	; 0xfffffa85
     d58:	472c3649 	strmi	r3, [ip, -r9, asr #12]!
     d5c:	434f4950 	movtmi	r4, #63824	; 0xf950
     d60:	4e49502c 	cdpmi	0, 4, cr5, cr9, cr12, {1}
     d64:	452c365f 	strmi	r3, [ip, #-1631]!	; 0xfffff9a1
     d68:	5f365458 	svcpl	0x00365458
     d6c:	7d515249 	lfmvc	f5, 2, [r1, #-292]	; 0xfffffedc
     d70:	555f5f00 	ldrbpl	r5, [pc, #-3840]	; fffffe78 <_estack+0xdfffd678>
     d74:	4d544e49 	ldclmi	14, cr4, [r4, #-292]	; 0xfffffedc
     d78:	435f5841 	cmpmi	pc, #4259840	; 0x410000
     d7c:	20296328 	eorcs	r6, r9, r8, lsr #6
     d80:	23232063 			; <UNDEFINED> instruction: 0x23232063
     d84:	4c4c5520 	cfstr64mi	mvdx5, [ip], {32}
     d88:	535f5f00 	cmppl	pc, #0, 30
     d8c:	4f455a49 	svcmi	0x00455a49
     d90:	4f505f46 	svcmi	0x00505f46
     d94:	45544e49 	ldrbmi	r4, [r4, #-3657]	; 0xfffff1b7
     d98:	205f5f52 	subscs	r5, pc, r2, asr pc	; <UNPREDICTABLE>
     d9c:	4e490034 	mcrmi	0, 2, r0, cr9, cr4, {1}
     da0:	41465f54 	cmpmi	r6, r4, asr pc
     da4:	34365453 	ldrtcc	r5, [r6], #-1107	; 0xfffffbad
     da8:	4e494d5f 	mcrmi	13, 2, r4, cr9, cr15, {2}
     dac:	5f2d2820 	svcpl	0x002d2820
     db0:	544e495f 	strbpl	r4, [lr], #-2399	; 0xfffff6a1
     db4:	5341465f 	movtpl	r4, #5727	; 0x165f
     db8:	5f343654 	svcpl	0x00343654
     dbc:	5f58414d 	svcpl	0x0058414d
     dc0:	202d205f 	eorcs	r2, sp, pc, asr r0
     dc4:	49002931 	stmdbmi	r0, {r0, r4, r5, r8, fp, sp}
     dc8:	455f434e 	ldrbmi	r4, [pc, #-846]	; a82 <_Min_Stack_Size+0x682>
     dcc:	5f495458 	svcpl	0x00495458
     dd0:	56495244 	strbpl	r5, [r9], -r4, asr #4
     dd4:	485f5245 	ldmdami	pc, {r0, r2, r6, r9, ip, lr}^	; <UNPREDICTABLE>
     dd8:	5f00205f 	svcpl	0x0000205f
     ddc:	4343475f 	movtmi	r4, #14175	; 0x375f
     de0:	4f54415f 	svcmi	0x0054415f
     de4:	5f43494d 	svcpl	0x0043494d
     de8:	4c4f4f42 	mcrrmi	15, 4, r4, pc, cr2
     dec:	434f4c5f 	movtmi	r4, #64607	; 0xfc5f
     df0:	52465f4b 	subpl	r5, r6, #300	; 0x12c
     df4:	32204545 	eorcc	r4, r0, #289406976	; 0x11400000
     df8:	5f5f5f00 	svcpl	0x005f5f00
     dfc:	36746e69 	ldrbtcc	r6, [r4], -r9, ror #28
     e00:	5f745f34 	svcpl	0x00745f34
     e04:	69666564 	stmdbvs	r6!, {r2, r5, r6, r8, sl, sp, lr}^
     e08:	2064656e 	rsbcs	r6, r4, lr, ror #10
     e0c:	54530031 	ldrbpl	r0, [r3], #-49	; 0xffffffcf
     e10:	54435f4b 	strbpl	r5, [r3], #-3915	; 0xfffff0b5
     e14:	2a204c52 	bcs	813f64 <_Min_Stack_Size+0x813b64>
     e18:	75762828 	ldrbvc	r2, [r6, #-2088]!	; 0xfffff7d8
     e1c:	746e6973 	strbtvc	r6, [lr], #-2419	; 0xfffff68d
     e20:	745f3233 	ldrbvc	r3, [pc], #-563	; e28 <_Min_Stack_Size+0xa28>
     e24:	29202a20 	stmdbcs	r0!, {r5, r9, fp, sp}
     e28:	73795328 	cmnvc	r9, #40, 6	; 0xa0000000
     e2c:	6b636954 	blvs	18db384 <_Min_Stack_Size+0x18daf84>
     e30:	5341425f 	movtpl	r4, #4703	; 0x125f
     e34:	78302b45 	ldmdavc	r0!, {r0, r2, r6, r8, r9, fp, sp}
     e38:	29293030 	stmdbcs	r9!, {r4, r5, ip, sp}
     e3c:	415f5f00 	cmpmi	pc, r0, lsl #30
     e40:	4e5f4d52 	mrcmi	13, 2, r4, cr15, cr2, {2}
     e44:	5f4e4f45 	svcpl	0x004e4f45
     e48:	4955005f 	ldmdbmi	r5, {r0, r1, r2, r3, r4, r6}^
     e4c:	5450544e 	ldrbpl	r5, [r0], #-1102	; 0xfffffbb2
     e50:	414d5f52 	cmpmi	sp, r2, asr pc
     e54:	5f282058 	svcpl	0x00282058
     e58:	4e49555f 	mcrmi	5, 2, r5, cr9, cr15, {2}
     e5c:	52545054 	subspl	r5, r4, #84	; 0x54
     e60:	58414d5f 	stmdapl	r1, {r0, r1, r2, r3, r4, r6, r8, sl, fp, lr}^
     e64:	00295f5f 	eoreq	r5, r9, pc, asr pc
     e68:	4c465f5f 	mcrrmi	15, 5, r5, r6, cr15
     e6c:	5f323354 	svcpl	0x00323354
     e70:	5f58414d 	svcpl	0x0058414d
     e74:	5f505845 	svcpl	0x00505845
     e78:	3231205f 	eorscc	r2, r1, #95	; 0x5f
     e7c:	5f5f0038 	svcpl	0x005f0038
     e80:	4d554854 	ldclmi	8, cr4, [r5, #-336]	; 0xfffffeb0
     e84:	4e495f42 	cdpmi	15, 4, cr5, cr9, cr2, {2}
     e88:	57524554 			; <UNDEFINED> instruction: 0x57524554
     e8c:	5f4b524f 	svcpl	0x004b524f
     e90:	0031205f 	eorseq	r2, r1, pc, asr r0
     e94:	4c555f5f 	mrrcmi	15, 5, r5, r5, cr15	; <UNPREDICTABLE>
     e98:	4152464c 	cmpmi	r2, ip, asr #12
     e9c:	4d5f5443 	cfldrdmi	mvd5, [pc, #-268]	; d98 <_Min_Stack_Size+0x998>
     ea0:	5f5f5841 	svcpl	0x005f5841
     ea4:	46583020 	ldrbmi	r3, [r8], -r0, lsr #32
     ea8:	46464646 	strbmi	r4, [r6], -r6, asr #12
     eac:	46464646 	strbmi	r4, [r6], -r6, asr #12
     eb0:	46464646 	strbmi	r4, [r6], -r6, asr #12
     eb4:	50464646 	subpl	r4, r6, r6, asr #12
     eb8:	5534362d 	ldrpl	r3, [r4, #-1581]!	; 0xfffff9d3
     ebc:	00524c4c 	subseq	r4, r2, ip, asr #24
     ec0:	4c41434d 	mcrrmi	3, 4, r4, r1, cr13
     ec4:	4950475f 	ldmdbmi	r0, {r0, r1, r2, r3, r4, r6, r8, r9, sl, lr}^
     ec8:	6e695f4f 	cdpvs	15, 6, cr5, cr9, cr15, {2}
     ecc:	45007469 	strmi	r7, [r0, #-1129]	; 0xfffffb97
     ed0:	32315458 	eorscc	r5, r1, #88, 8	; 0x58000000
     ed4:	32314250 	eorscc	r4, r1, #80, 4
     ed8:	50472820 	subpl	r2, r7, r0, lsr #16
     edc:	435f4f49 	cmpmi	pc, #292	; 0x124
     ee0:	49464e4f 	stmdbmi	r6, {r0, r1, r2, r3, r6, r9, sl, fp, lr}^
     ee4:	29745f47 	ldmdbcs	r4!, {r0, r1, r2, r6, r8, r9, sl, fp, ip, lr}^
     ee8:	5458457b 	ldrbpl	r4, [r8], #-1403	; 0xfffffa85
     eec:	2c323149 	ldfcss	f3, [r2], #-292	; 0xfffffedc
     ef0:	4f495047 	svcmi	0x00495047
     ef4:	49502c42 	ldmdbmi	r0, {r1, r6, sl, fp, sp}^
     ef8:	32315f4e 	eorscc	r5, r1, #312	; 0x138
     efc:	5458452c 	ldrbpl	r4, [r8], #-1324	; 0xfffffad4
     f00:	495f3231 	ldmdbmi	pc, {r0, r4, r5, r9, ip, sp}^	; <UNPREDICTABLE>
     f04:	007d5152 	rsbseq	r5, sp, r2, asr r1
     f08:	52535452 	subspl	r5, r3, #1375731712	; 0x52000000
     f0c:	475f5f00 	ldrbmi	r5, [pc, -r0, lsl #30]
     f10:	5f43554e 	svcpl	0x0043554e
     f14:	45444957 	strbmi	r4, [r4, #-2391]	; 0xfffff6a9
     f18:	4558455f 	ldrbmi	r4, [r8, #-1375]	; 0xfffffaa1
     f1c:	49545543 	ldmdbmi	r4, {r0, r1, r6, r8, sl, ip, lr}^
     f20:	435f4e4f 	cmpmi	pc, #1264	; 0x4f0
     f24:	53524148 	cmppl	r2, #72, 2
     f28:	4e5f5445 	cdpmi	4, 5, cr5, cr15, cr5, {2}
     f2c:	20454d41 	subcs	r4, r5, r1, asr #26
     f30:	46545522 	ldrbmi	r5, [r4], -r2, lsr #10
     f34:	4c32332d 	ldcmi	3, cr3, [r2], #-180	; 0xffffff4c
     f38:	5f002245 	svcpl	0x00002245
     f3c:	544e4955 	strbpl	r4, [lr], #-2389	; 0xfffff6ab
     f40:	545f3436 	ldrbpl	r3, [pc], #-1078	; f48 <_Min_Stack_Size+0xb48>
     f44:	4345445f 	movtmi	r4, #21599	; 0x545f
     f48:	4552414c 	ldrbmi	r4, [r2, #-332]	; 0xfffffeb4
     f4c:	4e002044 	cdpmi	0, 0, cr2, cr0, cr4, {2}
     f50:	5f434956 	svcpl	0x00434956
     f54:	49545845 	ldmdbmi	r4, {r0, r2, r6, fp, ip, lr}^
     f58:	20445f34 	subcs	r5, r4, r4, lsr pc
     f5c:	49564e28 	ldmdbmi	r6, {r3, r5, r9, sl, fp, lr}^
     f60:	53495f43 	movtpl	r5, #40771	; 0x9f43
     f64:	26305245 	ldrtcs	r5, [r0], -r5, asr #4
     f68:	31287e3d 			; <UNDEFINED> instruction: 0x31287e3d
     f6c:	58453c3c 	stmdapl	r5, {r2, r3, r4, r5, sl, fp, ip, sp}^
     f70:	495f3454 	ldmdbmi	pc, {r2, r4, r6, sl, ip, sp}^	; <UNPREDICTABLE>
     f74:	29295152 	stmdbcs	r9!, {r1, r4, r6, r8, ip, lr}
     f78:	435f5f00 	cmpmi	pc, #0, 30
     f7c:	33524148 	cmpcc	r2, #72, 2
     f80:	59545f32 	ldmdbpl	r4, {r1, r4, r5, r8, r9, sl, fp, ip, lr}^
     f84:	5f5f4550 	svcpl	0x005f4550
     f88:	6e6f6c20 	cdpvs	12, 6, cr6, cr15, cr0, {1}
     f8c:	6e752067 	cdpvs	0, 7, cr2, cr5, cr7, {3}
     f90:	6e676973 			; <UNDEFINED> instruction: 0x6e676973
     f94:	69206465 	stmdbvs	r0!, {r0, r2, r5, r6, sl, sp, lr}
     f98:	5f00746e 	svcpl	0x0000746e
     f9c:	4d52415f 	ldfmie	f4, [r2, #-380]	; 0xfffffe84
     fa0:	4145465f 	cmpmi	r5, pc, asr r6
     fa4:	45525554 	ldrbmi	r5, [r2, #-1364]	; 0xfffffaac
     fa8:	3150465f 	cmpcc	r0, pc, asr r6
     fac:	45565f36 	ldrbmi	r5, [r6, #-3894]	; 0xfffff0ca
     fb0:	524f5443 	subpl	r5, pc, #1124073472	; 0x43000000
     fb4:	4952415f 	ldmdbmi	r2, {r0, r1, r2, r3, r4, r6, r8, lr}^
     fb8:	454d4854 	strbmi	r4, [sp, #-2132]	; 0xfffff7ac
     fbc:	00434954 	subeq	r4, r3, r4, asr r9
     fc0:	534f505f 	movtpl	r5, #61535	; 0xf05f
     fc4:	435f5849 	cmpmi	pc, #4784128	; 0x490000
     fc8:	554f535f 	strbpl	r5, [pc, #-863]	; c71 <_Min_Stack_Size+0x871>
     fcc:	20454352 	subcs	r4, r5, r2, asr r3
     fd0:	38303032 	ldmdacc	r0!, {r1, r4, r5, ip, sp}
     fd4:	004c3930 	subeq	r3, ip, r0, lsr r9
     fd8:	42445f5f 	submi	r5, r4, #380	; 0x17c
     fdc:	53495f4c 	movtpl	r5, #40780	; 0x9f4c
     fe0:	4345495f 	movtmi	r4, #22879	; 0x595f
     fe4:	3530365f 	ldrcc	r3, [r0, #-1631]!	; 0xfffff9a1
     fe8:	5f5f3935 	svcpl	0x005f3935
     fec:	5f003220 	svcpl	0x00003220
     ff0:	4e49555f 	mcrmi	5, 2, r5, cr9, cr15, {2}
     ff4:	41465f54 	cmpmi	r6, r4, asr pc
     ff8:	32335453 	eorscc	r5, r3, #1392508928	; 0x53000000
     ffc:	58414d5f 	stmdapl	r1, {r0, r1, r2, r3, r4, r6, r8, sl, fp, lr}^
    1000:	30205f5f 	eorcc	r5, r0, pc, asr pc
    1004:	66666678 			; <UNDEFINED> instruction: 0x66666678
    1008:	66666666 	strbtvs	r6, [r6], -r6, ror #12
    100c:	5f005566 	svcpl	0x00005566
    1010:	544c465f 	strbpl	r4, [ip], #-1631	; 0xfffff9a1
    1014:	58414d5f 	stmdapl	r1, {r0, r1, r2, r3, r4, r6, r8, sl, fp, lr}^
    1018:	5058455f 	subspl	r4, r8, pc, asr r5
    101c:	31205f5f 			; <UNDEFINED> instruction: 0x31205f5f
    1020:	5f003832 	svcpl	0x00003832
    1024:	5a49535f 	bpl	1255da8 <_Min_Stack_Size+0x12559a8>
    1028:	5f464f45 	svcpl	0x00464f45
    102c:	474e4f4c 	strbmi	r4, [lr, -ip, asr #30]
    1030:	34205f5f 	strtcc	r5, [r0], #-3935	; 0xfffff0a1
    1034:	54584500 	ldrbpl	r4, [r8], #-1280	; 0xfffffb00
    1038:	30415030 	subcc	r5, r1, r0, lsr r0
    103c:	50472820 	subpl	r2, r7, r0, lsr #16
    1040:	435f4f49 	cmpmi	pc, #292	; 0x124
    1044:	49464e4f 	stmdbmi	r6, {r0, r1, r2, r3, r6, r9, sl, fp, lr}^
    1048:	29745f47 	ldmdbcs	r4!, {r0, r1, r2, r6, r8, r9, sl, fp, ip, lr}^
    104c:	5458457b 	ldrbpl	r4, [r8], #-1403	; 0xfffffa85
    1050:	472c3049 	strmi	r3, [ip, -r9, asr #32]!
    1054:	414f4950 	cmpmi	pc, r0, asr r9	; <UNPREDICTABLE>
    1058:	4e49502c 	cdpmi	0, 4, cr5, cr9, cr12, {1}
    105c:	452c305f 	strmi	r3, [ip, #-95]!	; 0xffffffa1
    1060:	5f305458 	svcpl	0x00305458
    1064:	7d515249 	lfmvc	f5, 2, [r1, #-292]	; 0xfffffedc
    1068:	54584500 	ldrbpl	r4, [r8], #-1280	; 0xfffffb00
    106c:	41503031 	cmpmi	r0, r1, lsr r0
    1070:	28203031 	stmdacs	r0!, {r0, r4, r5, ip, sp}
    1074:	4f495047 	svcmi	0x00495047
    1078:	4e4f435f 	mcrmi	3, 2, r4, cr15, cr15, {2}
    107c:	5f474946 	svcpl	0x00474946
    1080:	457b2974 	ldrbmi	r2, [fp, #-2420]!	; 0xfffff68c
    1084:	31495458 	cmpcc	r9, r8, asr r4
    1088:	50472c30 	subpl	r2, r7, r0, lsr ip
    108c:	2c414f49 	mcrrcs	15, 4, r4, r1, cr9
    1090:	5f4e4950 	svcpl	0x004e4950
    1094:	452c3031 	strmi	r3, [ip, #-49]!	; 0xffffffcf
    1098:	30315458 	eorscc	r5, r1, r8, asr r4
    109c:	5152495f 	cmppl	r2, pc, asr r9
    10a0:	5f5f007d 	svcpl	0x005f007d
    10a4:	455a4953 	ldrbmi	r4, [sl, #-2387]	; 0xfffff6ad
    10a8:	445f464f 	ldrbmi	r4, [pc], #-1615	; 10b0 <_Min_Stack_Size+0xcb0>
    10ac:	4c42554f 	cfstr64mi	mvdx5, [r2], {79}	; 0x4f
    10b0:	205f5f45 	subscs	r5, pc, r5, asr #30
    10b4:	5f5f0038 	svcpl	0x005f0038
    10b8:	5f544e49 	svcpl	0x00544e49
    10bc:	5341454c 	movtpl	r4, #5452	; 0x154c
    10c0:	5f323354 	svcpl	0x00323354
    10c4:	54444957 	strbpl	r4, [r4], #-2391	; 0xfffff6a9
    10c8:	205f5f48 	subscs	r5, pc, r8, asr #30
    10cc:	45003233 	strmi	r3, [r0, #-563]	; 0xfffffdcd
    10d0:	50335458 	eorspl	r5, r3, r8, asr r4
    10d4:	28203343 	stmdacs	r0!, {r0, r1, r6, r8, r9, ip, sp}
    10d8:	4f495047 	svcmi	0x00495047
    10dc:	4e4f435f 	mcrmi	3, 2, r4, cr15, cr15, {2}
    10e0:	5f474946 	svcpl	0x00474946
    10e4:	457b2974 	ldrbmi	r2, [fp, #-2420]!	; 0xfffff68c
    10e8:	33495458 	movtcc	r5, #37976	; 0x9458
    10ec:	4950472c 	ldmdbmi	r0, {r2, r3, r5, r8, r9, sl, lr}^
    10f0:	502c434f 	eorpl	r4, ip, pc, asr #6
    10f4:	335f4e49 	cmpcc	pc, #1168	; 0x490
    10f8:	5458452c 	ldrbpl	r4, [r8], #-1324	; 0xfffffad4
    10fc:	52495f33 	subpl	r5, r9, #51, 30	; 0xcc
    1100:	4e007d51 	mcrmi	13, 0, r7, cr0, cr1, {2}
    1104:	5f434956 	svcpl	0x00434956
    1108:	52455349 	subpl	r5, r5, #603979777	; 0x24000001
    110c:	282a2032 	stmdacs	sl!, {r1, r4, r5, sp}
    1110:	73757628 	cmnvc	r5, #40, 12	; 0x2800000
    1114:	33746e69 	cmncc	r4, #1680	; 0x690
    1118:	20745f32 	rsbscs	r5, r4, r2, lsr pc
    111c:	2820292a 	stmdacs	r0!, {r1, r3, r5, r8, fp, sp}
    1120:	4349564e 	movtmi	r5, #38478	; 0x964e
    1124:	5341425f 	movtpl	r4, #4703	; 0x125f
    1128:	78302b45 	ldmdavc	r0!, {r0, r2, r6, r8, r9, fp, sp}
    112c:	29293830 	stmdbcs	r9!, {r4, r5, fp, ip, sp}
    1130:	465f5f00 	ldrbmi	r5, [pc], -r0, lsl #30
    1134:	31545341 	cmpcc	r4, r1, asr #6
    1138:	43002036 	movwmi	r2, #54	; 0x36
    113c:	73552f3a 	cmpvc	r5, #58, 30	; 0xe8
    1140:	2f737265 	svccs	0x00737265
    1144:	6f64656d 	svcvs	0x0064656d
    1148:	65442f6f 	strbvs	r2, [r4, #-3951]	; 0xfffff091
    114c:	6f746b73 	svcvs	0x00746b73
    1150:	6f572f70 	svcvs	0x00572f70
    1154:	70536b72 	subsvc	r6, r3, r2, ror fp
    1158:	2f656361 	svccs	0x00656361
    115c:	7373654c 	cmnvc	r3, #76, 10	; 0x13000000
    1160:	34206e6f 	strtcc	r6, [r0], #-3695	; 0xfffff191
    1164:	5458452f 	ldrbpl	r4, [r8], #-1327	; 0xfffffad1
    1168:	72445f49 	subvc	r5, r4, #292	; 0x124
    116c:	72657669 	rsbvc	r7, r5, #110100480	; 0x6900000
    1170:	6265442f 	rsbvs	r4, r5, #788529152	; 0x2f000000
    1174:	5f006775 	svcpl	0x00006775
    1178:	52414c5f 	subpl	r4, r1, #24320	; 0x5f00
    117c:	49464547 	stmdbmi	r6, {r0, r1, r2, r6, r8, sl, lr}^
    1180:	565f454c 	ldrbpl	r4, [pc], -ip, asr #10
    1184:	42495349 	submi	r5, r9, #603979777	; 0x24000001
    1188:	3020454c 	eorcc	r4, r0, ip, asr #10
    118c:	54584500 	ldrbpl	r4, [r8], #-1280	; 0xfffffb00
    1190:	41503331 	cmpmi	r0, r1, lsr r3
    1194:	28203331 	stmdacs	r0!, {r0, r4, r5, r8, r9, ip, sp}
    1198:	4f495047 	svcmi	0x00495047
    119c:	4e4f435f 	mcrmi	3, 2, r4, cr15, cr15, {2}
    11a0:	5f474946 	svcpl	0x00474946
    11a4:	457b2974 	ldrbmi	r2, [fp, #-2420]!	; 0xfffff68c
    11a8:	31495458 	cmpcc	r9, r8, asr r4
    11ac:	50472c33 	subpl	r2, r7, r3, lsr ip
    11b0:	2c414f49 	mcrrcs	15, 4, r4, r1, cr9
    11b4:	5f4e4950 	svcpl	0x004e4950
    11b8:	452c3331 	strmi	r3, [ip, #-817]!	; 0xfffffccf
    11bc:	33315458 	teqcc	r1, #88, 8	; 0x58000000
    11c0:	5152495f 	cmppl	r2, pc, asr r9
    11c4:	5f5f007d 	svcpl	0x005f007d
    11c8:	4c57454e 	cfldr64mi	mvdx4, [r7], {78}	; 0x4e
    11cc:	5f5f4249 	svcpl	0x005f4249
    11d0:	5f003420 	svcpl	0x00003420
    11d4:	4154555f 	cmpmi	r4, pc, asr r5
    11d8:	4942465f 	stmdbmi	r2, {r0, r1, r2, r3, r4, r6, r9, sl, lr}^
    11dc:	205f5f54 	subscs	r5, pc, r4, asr pc	; <UNPREDICTABLE>
    11e0:	5f003436 	svcpl	0x00003436
    11e4:	544c465f 	strbpl	r4, [ip], #-1631	; 0xfffff9a1
    11e8:	4345445f 	movtmi	r4, #21599	; 0x545f
    11ec:	4c414d49 	mcrrmi	13, 4, r4, r1, cr9
    11f0:	4749445f 	smlsldmi	r4, r9, pc, r4	; <UNPREDICTABLE>
    11f4:	39205f5f 	stmdbcc	r0!, {r0, r1, r2, r3, r4, r6, r8, r9, sl, fp, ip, lr}
    11f8:	49555f00 	ldmdbmi	r5, {r8, r9, sl, fp, ip, lr}^
    11fc:	5f38544e 	svcpl	0x0038544e
    1200:	45445f54 	strbmi	r5, [r4, #-3924]	; 0xfffff0ac
    1204:	52414c43 	subpl	r4, r1, #17152	; 0x4300
    1208:	00204445 	eoreq	r4, r0, r5, asr #8
    120c:	37545845 	ldrbcc	r5, [r4, -r5, asr #16]
    1210:	20374150 	eorscs	r4, r7, r0, asr r1
    1214:	49504728 	ldmdbmi	r0, {r3, r5, r8, r9, sl, lr}^
    1218:	4f435f4f 	svcmi	0x00435f4f
    121c:	4749464e 	strbmi	r4, [r9, -lr, asr #12]
    1220:	7b29745f 	blvc	a5e3a4 <_Min_Stack_Size+0xa5dfa4>
    1224:	49545845 	ldmdbmi	r4, {r0, r2, r6, fp, ip, lr}^
    1228:	50472c37 	subpl	r2, r7, r7, lsr ip
    122c:	2c414f49 	mcrrcs	15, 4, r4, r1, cr9
    1230:	5f4e4950 	svcpl	0x004e4950
    1234:	58452c37 	stmdapl	r5, {r0, r1, r2, r4, r5, sl, fp, sp}^
    1238:	495f3754 	ldmdbmi	pc, {r2, r4, r6, r8, r9, sl, ip, sp}^	; <UNPREDICTABLE>
    123c:	007d5152 	rsbseq	r5, sp, r2, asr r1
    1240:	4349564e 	movtmi	r5, #38478	; 0x964e
    1244:	5458455f 	ldrbpl	r4, [r8], #-1375	; 0xfffffaa1
    1248:	455f3349 	ldrbmi	r3, [pc, #-841]	; f07 <_Min_Stack_Size+0xb07>
    124c:	4e28204e 	cdpmi	0, 2, cr2, cr8, cr14, {2}
    1250:	5f434956 	svcpl	0x00434956
    1254:	52455349 	subpl	r5, r5, #603979777	; 0x24000001
    1258:	283d7c30 	ldmdacs	sp!, {r4, r5, sl, fp, ip, sp, lr}
    125c:	453c3c31 	ldrmi	r3, [ip, #-3121]!	; 0xfffff3cf
    1260:	5f335458 	svcpl	0x00335458
    1264:	29515249 	ldmdbcs	r1, {r0, r3, r6, r9, ip, lr}^
    1268:	4e490029 	cdpmi	0, 4, cr0, cr9, cr9, {1}
    126c:	58414d54 	stmdapl	r1, {r2, r4, r6, r8, sl, fp, lr}^
    1270:	4e494d5f 	mcrmi	13, 2, r4, cr9, cr15, {2}
    1274:	492d2820 	pushmi	{r5, fp, sp}
    1278:	414d544e 	cmpmi	sp, lr, asr #8
    127c:	414d5f58 	cmpmi	sp, r8, asr pc
    1280:	202d2058 	eorcs	r2, sp, r8, asr r0
    1284:	5f002931 	svcpl	0x00002931
    1288:	554e475f 	strbpl	r4, [lr, #-1887]	; 0xfffff8a1
    128c:	54535f43 	ldrbpl	r5, [r3], #-3907	; 0xfffff0bd
    1290:	495f4344 	ldmdbmi	pc, {r2, r6, r8, r9, lr}^	; <UNPREDICTABLE>
    1294:	4e494c4e 	cdpmi	12, 4, cr4, cr9, cr14, {2}
    1298:	205f5f45 	subscs	r5, pc, r5, asr #30
    129c:	43570031 	cmpmi	r7, #49	; 0x31
    12a0:	5f524148 	svcpl	0x00524148
    12a4:	204e494d 	subcs	r4, lr, sp, asr #18
    12a8:	575f5f28 	ldrbpl	r5, [pc, -r8, lsr #30]
    12ac:	52414843 	subpl	r4, r1, #4390912	; 0x430000
    12b0:	4e494d5f 	mcrmi	13, 2, r4, cr9, cr15, {2}
    12b4:	00295f5f 	eoreq	r5, r9, pc, asr pc
    12b8:	52465f5f 	subpl	r5, r6, #380	; 0x17c
    12bc:	5f544341 	svcpl	0x00544341
    12c0:	54494246 	strbpl	r4, [r9], #-582	; 0xfffffdba
    12c4:	31205f5f 			; <UNDEFINED> instruction: 0x31205f5f
    12c8:	5f5f0035 	svcpl	0x005f0035
    12cc:	43414c4c 	movtmi	r4, #7244	; 0x1c4c
    12d0:	5f4d5543 	svcpl	0x004d5543
    12d4:	49535045 	ldmdbmi	r3, {r0, r2, r6, ip, lr}^
    12d8:	5f4e4f4c 	svcpl	0x004e4f4c
    12dc:	7830205f 	ldmdavc	r0!, {r0, r1, r2, r3, r4, r6, sp}
    12e0:	332d5031 			; <UNDEFINED> instruction: 0x332d5031
    12e4:	4b4c4c31 	blmi	13143b0 <_Min_Stack_Size+0x1313fb0>
    12e8:	475f5f00 	ldrbmi	r5, [pc, -r0, lsl #30]
    12ec:	415f4343 	cmpmi	pc, r3, asr #6
    12f0:	494d4f54 	stmdbmi	sp, {r2, r4, r6, r8, r9, sl, fp, lr}^
    12f4:	48435f43 	stmdami	r3, {r0, r1, r6, r8, r9, sl, fp, ip, lr}^
    12f8:	32335241 	eorscc	r5, r3, #268435460	; 0x10000004
    12fc:	4c5f545f 	cfldrdmi	mvd5, [pc], {95}	; 0x5f
    1300:	5f4b434f 	svcpl	0x004b434f
    1304:	45455246 	strbmi	r5, [r5, #-582]	; 0xfffffdba
    1308:	5f003220 	svcpl	0x00003220
    130c:	544c465f 	strbpl	r4, [ip], #-1631	; 0xfffff9a1
    1310:	4d5f3233 	lfmmi	f3, 2, [pc, #-204]	; 124c <_Min_Stack_Size+0xe4c>
    1314:	455f4e49 	ldrbmi	r4, [pc, #-3657]	; 4d3 <_Min_Stack_Size+0xd3>
    1318:	5f5f5058 	svcpl	0x005f5058
    131c:	312d2820 			; <UNDEFINED> instruction: 0x312d2820
    1320:	00293532 	eoreq	r3, r9, r2, lsr r5
    1324:	49555f5f 	ldmdbmi	r5, {r0, r1, r2, r3, r4, r6, r8, r9, sl, fp, ip, lr}^
    1328:	4c5f544e 	cfldrdmi	mvd5, [pc], {78}	; 0x4e
    132c:	54534145 	ldrbpl	r4, [r3], #-325	; 0xfffffebb
    1330:	4d5f3631 	ldclmi	6, cr3, [pc, #-196]	; 1274 <_Min_Stack_Size+0xe74>
    1334:	5f5f5841 	svcpl	0x005f5841
    1338:	66783020 	ldrbtvs	r3, [r8], -r0, lsr #32
    133c:	00666666 	rsbeq	r6, r6, r6, ror #12
    1340:	45565f5f 	ldrbmi	r5, [r6, #-3935]	; 0xfffff0a1
    1344:	4f495352 	svcmi	0x00495352
    1348:	205f5f4e 	subscs	r5, pc, lr, asr #30
    134c:	2e313122 	rsfcssp	f3, f1, f2
    1350:	20312e33 	eorscs	r2, r1, r3, lsr lr
    1354:	32323032 	eorscc	r3, r2, #50	; 0x32
    1358:	32313730 	eorscc	r3, r1, #48, 14	; 0xc00000
    135c:	58450022 	stmdapl	r5, {r1, r5}^
    1360:	50313154 	eorspl	r3, r1, r4, asr r1
    1364:	20313144 	eorscs	r3, r1, r4, asr #2
    1368:	49504728 	ldmdbmi	r0, {r3, r5, r8, r9, sl, lr}^
    136c:	4f435f4f 	svcmi	0x00435f4f
    1370:	4749464e 	strbmi	r4, [r9, -lr, asr #12]
    1374:	7b29745f 	blvc	a5e4f8 <_Min_Stack_Size+0xa5e0f8>
    1378:	49545845 	ldmdbmi	r4, {r0, r2, r6, fp, ip, lr}^
    137c:	472c3131 			; <UNDEFINED> instruction: 0x472c3131
    1380:	444f4950 	strbmi	r4, [pc], #-2384	; 1388 <_Min_Stack_Size+0xf88>
    1384:	4e49502c 	cdpmi	0, 4, cr5, cr9, cr12, {1}
    1388:	2c31315f 	ldfcss	f3, [r1], #-380	; 0xfffffe84
    138c:	31545845 	cmpcc	r4, r5, asr #16
    1390:	52495f31 	subpl	r5, r9, #49, 30	; 0xc4
    1394:	5f007d51 	svcpl	0x00007d51
    1398:	4d52415f 	ldfmie	f4, [r2, #-380]	; 0xfffffe84
    139c:	4352415f 	cmpmi	r2, #-1073741801	; 0xc0000017
    13a0:	52505f48 	subspl	r5, r0, #72, 30	; 0x120
    13a4:	4c49464f 	mcrrmi	6, 4, r4, r9, cr15
    13a8:	37372045 	ldrcc	r2, [r7, -r5, asr #32]!
    13ac:	535f5f00 	cmppl	pc, #0, 30
    13b0:	55434341 	strbpl	r4, [r3, #-833]	; 0xfffffcbf
    13b4:	414d5f4d 	cmpmi	sp, sp, asr #30
    13b8:	205f5f58 	subscs	r5, pc, r8, asr pc	; <UNPREDICTABLE>
    13bc:	46375830 			; <UNDEFINED> instruction: 0x46375830
    13c0:	2d504646 	ldclcs	6, cr4, [r0, #-280]	; 0xfffffee8
    13c4:	004b4837 	subeq	r4, fp, r7, lsr r8
    13c8:	4c465f5f 	mcrrmi	15, 5, r5, r6, cr15
    13cc:	5f343654 	svcpl	0x00343654
    13d0:	5f58414d 	svcpl	0x0058414d
    13d4:	455f3031 	ldrbmi	r3, [pc, #-49]	; 13ab <_Min_Stack_Size+0xfab>
    13d8:	5f5f5058 	svcpl	0x005f5058
    13dc:	38303320 	ldmdacc	r0!, {r5, r8, r9, ip, sp}
    13e0:	435f5000 	cmpmi	pc, #0
    13e4:	426c6c61 	rsbmi	r6, ip, #24832	; 0x6100
    13e8:	006b6361 	rsbeq	r6, fp, r1, ror #6
    13ec:	49555f5f 	ldmdbmi	r5, {r0, r1, r2, r3, r4, r6, r8, r9, sl, fp, ip, lr}^
    13f0:	465f544e 	ldrbmi	r5, [pc], -lr, asr #8
    13f4:	33545341 	cmpcc	r4, #67108865	; 0x4000001
    13f8:	59545f32 	ldmdbpl	r4, {r1, r4, r5, r8, r9, sl, fp, ip, lr}^
    13fc:	5f5f4550 	svcpl	0x005f4550
    1400:	736e7520 	cmnvc	lr, #32, 10	; 0x8000000
    1404:	656e6769 	strbvs	r6, [lr, #-1897]!	; 0xfffff897
    1408:	6e692064 	cdpvs	0, 6, cr2, cr9, cr4, {3}
    140c:	5f5f0074 	svcpl	0x005f0074
    1410:	43445453 	movtmi	r5, #17491	; 0x4453
    1414:	4654555f 			; <UNDEFINED> instruction: 0x4654555f
    1418:	5f32335f 	svcpl	0x0032335f
    141c:	0031205f 	eorseq	r2, r1, pc, asr r0
    1420:	49535f5f 	ldmdbmi	r3, {r0, r1, r2, r3, r4, r6, r8, r9, sl, fp, ip, lr}^
    1424:	464f455a 			; <UNDEFINED> instruction: 0x464f455a
    1428:	4f4c465f 	svcmi	0x004c465f
    142c:	5f5f5441 	svcpl	0x005f5441
    1430:	5f003420 	svcpl	0x00003420
    1434:	544c465f 	strbpl	r4, [ip], #-1631	; 0xfffff9a1
    1438:	5f583233 	svcpl	0x00583233
    143c:	4f4e4544 	svcmi	0x004e4544
    1440:	4d5f4d52 	ldclmi	13, cr4, [pc, #-328]	; 1300 <_Min_Stack_Size+0xf00>
    1444:	5f5f4e49 	svcpl	0x005f4e49
    1448:	392e3420 	stmdbcc	lr!, {r5, sl, ip, sp}
    144c:	35363034 	ldrcc	r3, [r6, #-52]!	; 0xffffffcc
    1450:	38353436 	ldmdacc	r5!, {r1, r2, r4, r5, sl, ip, sp}
    1454:	34323134 	ldrtcc	r3, [r2], #-308	; 0xfffffecc
    1458:	65343536 	ldrvs	r3, [r4, #-1334]!	; 0xfffffaca
    145c:	3432332d 	ldrtcc	r3, [r2], #-813	; 0xfffffcd3
    1460:	78323346 	ldmdavc	r2!, {r1, r2, r6, r8, r9, ip, sp}
    1464:	465f5f00 	ldrbmi	r5, [pc], -r0, lsl #30
    1468:	4d5f544c 	cfldrdmi	mvd5, [pc, #-304]	; 1340 <_Min_Stack_Size+0xf40>
    146c:	315f5841 	cmpcc	pc, r1, asr #16
    1470:	58455f30 	stmdapl	r5, {r4, r5, r8, r9, sl, fp, ip, lr}^
    1474:	205f5f50 	subscs	r5, pc, r0, asr pc	; <UNPREDICTABLE>
    1478:	5f003833 	svcpl	0x00003833
    147c:	4152465f 	cmpmi	r2, pc, asr r6
    1480:	4d5f5443 	cfldrdmi	mvd5, [pc, #-268]	; 137c <_Min_Stack_Size+0xf7c>
    1484:	5f5f5841 	svcpl	0x005f5841
    1488:	37583020 	ldrbcc	r3, [r8, -r0, lsr #32]
    148c:	50464646 	subpl	r4, r6, r6, asr #12
    1490:	5235312d 	eorspl	r3, r5, #1073741835	; 0x4000000b
    1494:	535f5f00 	cmppl	pc, #0, 30
    1498:	5f545248 	svcpl	0x00545248
    149c:	54444957 	strbpl	r4, [r4], #-2391	; 0xfffff6a9
    14a0:	205f5f48 	subscs	r5, pc, r8, asr #30
    14a4:	4e003631 	mcrmi	6, 0, r3, cr0, cr1, {1}
    14a8:	5f434956 	svcpl	0x00434956
    14ac:	42414e45 	submi	r4, r1, #1104	; 0x450
    14b0:	5f00454c 	svcpl	0x0000454c
    14b4:	544e495f 	strbpl	r4, [lr], #-2399	; 0xfffff6a1
    14b8:	5341465f 	movtpl	r4, #5727	; 0x165f
    14bc:	5f323354 	svcpl	0x00323354
    14c0:	5f58414d 	svcpl	0x0058414d
    14c4:	7830205f 	ldmdavc	r0!, {r0, r1, r2, r3, r4, r6, sp}
    14c8:	66666637 			; <UNDEFINED> instruction: 0x66666637
    14cc:	66666666 	strbtvs	r6, [r6], -r6, ror #12
    14d0:	415f5f00 	cmpmi	pc, r0, lsl #30
    14d4:	494d4f54 	stmdbmi	sp, {r2, r4, r6, r8, r9, sl, fp, lr}^
    14d8:	45535f43 	ldrbmi	r5, [r3, #-3907]	; 0xfffff0bd
    14dc:	53435f51 	movtpl	r5, #16209	; 0x3f51
    14e0:	00352054 	eorseq	r2, r5, r4, asr r0
    14e4:	5f544e49 	svcpl	0x00544e49
    14e8:	54534146 	ldrbpl	r4, [r3], #-326	; 0xfffffeba
    14ec:	414d5f38 	cmpmi	sp, r8, lsr pc
    14f0:	5f282058 	svcpl	0x00282058
    14f4:	544e495f 	strbpl	r4, [lr], #-2399	; 0xfffff6a1
    14f8:	5341465f 	movtpl	r4, #5727	; 0x165f
    14fc:	4d5f3854 	ldclmi	8, cr3, [pc, #-336]	; 13b4 <_Min_Stack_Size+0xfb4>
    1500:	5f5f5841 	svcpl	0x005f5841
    1504:	49550029 	ldmdbmi	r5, {r0, r3, r5}^
    1508:	414d544e 	cmpmi	sp, lr, asr #8
    150c:	414d5f58 	cmpmi	sp, r8, asr pc
    1510:	5f282058 	svcpl	0x00282058
    1514:	4e49555f 	mcrmi	5, 2, r5, cr9, cr15, {2}
    1518:	58414d54 	stmdapl	r1, {r2, r4, r6, r8, sl, fp, lr}^
    151c:	58414d5f 	stmdapl	r1, {r0, r1, r2, r3, r4, r6, r8, sl, fp, lr}^
    1520:	00295f5f 	eoreq	r5, r9, pc, asr pc
    1524:	51545f5f 	cmppl	r4, pc, asr pc
    1528:	4942465f 	stmdbmi	r2, {r0, r1, r2, r3, r4, r6, r9, sl, lr}^
    152c:	205f5f54 	subscs	r5, pc, r4, asr pc	; <UNPREDICTABLE>
    1530:	00373231 	eorseq	r3, r7, r1, lsr r2
    1534:	52465f5f 	subpl	r5, r6, #380	; 0x17c
    1538:	5f544341 	svcpl	0x00544341
    153c:	54494249 	strbpl	r4, [r9], #-585	; 0xfffffdb7
    1540:	30205f5f 	eorcc	r5, r0, pc, asr pc
    1544:	695f5f00 	ldmdbvs	pc, {r8, r9, sl, fp, ip, lr}^	; <UNPREDICTABLE>
    1548:	665f746e 	ldrbvs	r7, [pc], -lr, ror #8
    154c:	36747361 	ldrbtcc	r7, [r4], -r1, ror #6
    1550:	5f745f34 	svcpl	0x00745f34
    1554:	69666564 	stmdbvs	r6!, {r2, r5, r6, r8, sl, sp, lr}^
    1558:	2064656e 	rsbcs	r6, r4, lr, ror #10
    155c:	564e0031 			; <UNDEFINED> instruction: 0x564e0031
    1560:	455f4349 	ldrbmi	r4, [pc, #-841]	; 121f <_Min_Stack_Size+0xe1f>
    1564:	31495458 	cmpcc	r9, r8, asr r4
    1568:	4e455f33 	mcrmi	15, 2, r5, cr5, cr3, {1}
    156c:	564e2820 	strbpl	r2, [lr], -r0, lsr #16
    1570:	495f4349 	ldmdbmi	pc, {r0, r3, r6, r8, r9, lr}^	; <UNPREDICTABLE>
    1574:	31524553 	cmpcc	r2, r3, asr r5
    1578:	31283d7c 			; <UNDEFINED> instruction: 0x31283d7c
    157c:	29383c3c 	ldmdbcs	r8!, {r2, r3, r4, r5, sl, fp, ip, sp}
    1580:	5f5f0029 	svcpl	0x005f0029
    1584:	6d756874 	ldclvs	8, cr6, [r5, #-464]!	; 0xfffffe30
    1588:	5f5f3262 	svcpl	0x005f3262
    158c:	5f003120 	svcpl	0x00003120
    1590:	4c4c555f 	cfstr64mi	mvdx5, [ip], {95}	; 0x5f
    1594:	55434341 	strbpl	r4, [r3, #-833]	; 0xfffffcbf
    1598:	42465f4d 	submi	r5, r6, #308	; 0x134
    159c:	5f5f5449 	svcpl	0x005f5449
    15a0:	00323320 	eorseq	r3, r2, r0, lsr #6
    15a4:	6f6f425f 	svcvs	0x006f425f
    15a8:	535f006c 	cmppl	pc, #108	; 0x6c
    15ac:	465f5359 			; <UNDEFINED> instruction: 0x465f5359
    15b0:	55544145 	ldrbpl	r4, [r4, #-325]	; 0xfffffebb
    15b4:	5f534552 	svcpl	0x00534552
    15b8:	4e002048 	cdpmi	0, 0, cr2, cr0, cr8, {2}
    15bc:	5f434956 	svcpl	0x00434956
    15c0:	49545845 	ldmdbmi	r4, {r0, r2, r6, fp, ip, lr}^
    15c4:	455f3531 	ldrbmi	r3, [pc, #-1329]	; 109b <_Min_Stack_Size+0xc9b>
    15c8:	4e28204e 	cdpmi	0, 2, cr2, cr8, cr14, {2}
    15cc:	5f434956 	svcpl	0x00434956
    15d0:	52455349 	subpl	r5, r5, #603979777	; 0x24000001
    15d4:	283d7c31 	ldmdacs	sp!, {r0, r4, r5, sl, fp, ip, sp, lr}
    15d8:	383c3c31 	ldmdacc	ip!, {r0, r4, r5, sl, fp, ip, sp}
    15dc:	47002929 	strmi	r2, [r0, -r9, lsr #18]
    15e0:	474f4950 	smlsldmi	r4, pc, r0, r9	; <UNPREDICTABLE>
    15e4:	5341425f 	movtpl	r4, #4703	; 0x125f
    15e8:	78302045 	ldmdavc	r0!, {r0, r2, r6, sp}
    15ec:	31303034 	teqcc	r0, r4, lsr r0
    15f0:	30303032 	eorscc	r3, r0, r2, lsr r0
    15f4:	535f5f00 	cmppl	pc, #0, 30
    15f8:	4f455a49 	svcmi	0x00455a49
    15fc:	4f4c5f46 	svcmi	0x004c5f46
    1600:	445f474e 	ldrbmi	r4, [pc], #-1870	; 1608 <_Min_Stack_Size+0x1208>
    1604:	4c42554f 	cfstr64mi	mvdx5, [r2], {79}	; 0x4f
    1608:	205f5f45 	subscs	r5, pc, r5, asr #30
    160c:	5f5f0038 	svcpl	0x005f0038
    1610:	47415250 	smlsldmi	r5, r1, r0, r2
    1614:	525f414d 	subspl	r4, pc, #1073741843	; 0x40000013
    1618:	46454445 	strbmi	r4, [r5], -r5, asr #8
    161c:	5f454e49 	svcpl	0x00454e49
    1620:	4e545845 	cdpmi	8, 5, cr5, cr4, cr5, {2}
    1624:	20454d41 	subcs	r4, r5, r1, asr #26
    1628:	5f5f0031 	svcpl	0x005f0031
    162c:	41484357 	cmpmi	r8, r7, asr r3
    1630:	59545f52 	ldmdbpl	r4, {r1, r4, r6, r8, r9, sl, fp, ip, lr}^
    1634:	5f5f4550 	svcpl	0x005f4550
    1638:	736e7520 	cmnvc	lr, #32, 10	; 0x8000000
    163c:	656e6769 	strbvs	r6, [lr, #-1897]!	; 0xfffff897
    1640:	6e692064 	cdpvs	0, 6, cr2, cr9, cr4, {3}
    1644:	58450074 	stmdapl	r5, {r2, r4, r5, r6}^
    1648:	5f344954 	svcpl	0x00344954
    164c:	48515249 	ldmdami	r1, {r0, r3, r6, r9, ip, lr}^
    1650:	6c646e61 	stclvs	14, cr6, [r4], #-388	; 0xfffffe7c
    1654:	5f007265 	svcpl	0x00007265
    1658:	4153555f 	cmpmi	r3, pc, asr r5
    165c:	4942495f 	stmdbmi	r2, {r0, r1, r2, r3, r4, r6, r8, fp, lr}^
    1660:	205f5f54 	subscs	r5, pc, r4, asr pc	; <UNPREDICTABLE>
    1664:	45003631 	strmi	r3, [r0, #-1585]	; 0xfffff9cf
    1668:	5f495458 	svcpl	0x00495458
    166c:	20474552 	subcs	r4, r7, r2, asr r5
    1670:	58452828 	stmdapl	r5, {r3, r5, fp, sp}^
    1674:	525f4954 	subspl	r4, pc, #84, 18	; 0x150000
    1678:	2a204745 	bcs	813394 <_Min_Stack_Size+0x812f94>
    167c:	58452029 	stmdapl	r5, {r0, r3, r5, sp}^
    1680:	425f4954 	subsmi	r4, pc, #84, 18	; 0x150000
    1684:	29455341 	stmdbcs	r5, {r0, r6, r8, r9, ip, lr}^
    1688:	475f5f00 	ldrbmi	r5, [pc, -r0, lsl #30]
    168c:	485f4343 	ldmdami	pc, {r0, r1, r6, r8, r9, lr}^	; <UNPREDICTABLE>
    1690:	5f455641 	svcpl	0x00455641
    1694:	434e5953 	movtmi	r5, #59731	; 0xe953
    1698:	4d4f435f 	stclmi	3, cr4, [pc, #-380]	; 1524 <_Min_Stack_Size+0x1124>
    169c:	45524150 	ldrbmi	r4, [r2, #-336]	; 0xfffffeb0
    16a0:	444e415f 	strbmi	r4, [lr], #-351	; 0xfffffea1
    16a4:	4157535f 	cmpmi	r7, pc, asr r3
    16a8:	20325f50 	eorscs	r5, r2, r0, asr pc
    16ac:	4e490031 	mcrmi	0, 2, r0, cr9, cr1, {1}
    16b0:	58414d54 	stmdapl	r1, {r2, r4, r6, r8, sl, fp, lr}^
    16b4:	7828435f 	stmdavc	r8!, {r0, r1, r2, r3, r4, r6, r8, r9, lr}
    16b8:	5f5f2029 	svcpl	0x005f2029
    16bc:	4d544e49 	ldclmi	14, cr4, [r4, #-292]	; 0xfffffedc
    16c0:	435f5841 	cmpmi	pc, #4259840	; 0x410000
    16c4:	00297828 	eoreq	r7, r9, r8, lsr #16
    16c8:	44525450 	ldrbmi	r5, [r2], #-1104	; 0xfffffbb0
    16cc:	5f464649 	svcpl	0x00464649
    16d0:	204e494d 	subcs	r4, lr, sp, asr #18
    16d4:	54502d28 	ldrbpl	r2, [r0], #-3368	; 0xfffff2d8
    16d8:	46494452 			; <UNDEFINED> instruction: 0x46494452
    16dc:	414d5f46 	cmpmi	sp, r6, asr #30
    16e0:	202d2058 	eorcs	r2, sp, r8, asr r0
    16e4:	5f002931 	svcpl	0x00002931
    16e8:	5246535f 	subpl	r5, r6, #2080374785	; 0x7c000001
    16ec:	5f544341 	svcpl	0x00544341
    16f0:	5f58414d 	svcpl	0x0058414d
    16f4:	5830205f 	ldmdapl	r0!, {r0, r1, r2, r3, r4, r6, sp}
    16f8:	2d504637 	ldclcs	6, cr4, [r0, #-220]	; 0xffffff24
    16fc:	00524837 	subseq	r4, r2, r7, lsr r8
    1700:	49555f5f 	ldmdbmi	r5, {r0, r1, r2, r3, r4, r6, r8, r9, sl, fp, ip, lr}^
    1704:	465f544e 	ldrbmi	r5, [pc], -lr, asr #8
    1708:	36545341 	ldrbcc	r5, [r4], -r1, asr #6
    170c:	59545f34 	ldmdbpl	r4, {r2, r4, r5, r8, r9, sl, fp, ip, lr}^
    1710:	5f5f4550 	svcpl	0x005f4550
    1714:	6e6f6c20 	cdpvs	12, 6, cr6, cr15, cr0, {1}
    1718:	6f6c2067 	svcvs	0x006c2067
    171c:	7520676e 	strvc	r6, [r0, #-1902]!	; 0xfffff892
    1720:	6769736e 	strbvs	r7, [r9, -lr, ror #6]!
    1724:	2064656e 	rsbcs	r6, r4, lr, ror #10
    1728:	00746e69 	rsbseq	r6, r4, r9, ror #28
    172c:	4349564e 	movtmi	r5, #38478	; 0x964e
    1730:	5458455f 	ldrbpl	r4, [r8], #-1375	; 0xfffffaa1
    1734:	445f3849 	ldrbmi	r3, [pc], #-2121	; 173c <_Min_Stack_Size+0x133c>
    1738:	564e2820 	strbpl	r2, [lr], -r0, lsr #16
    173c:	495f4349 	ldmdbmi	pc, {r0, r3, r6, r8, r9, lr}^	; <UNPREDICTABLE>
    1740:	30524553 	subscc	r4, r2, r3, asr r5
    1744:	287e3d26 	ldmdacs	lr!, {r1, r2, r5, r8, sl, fp, ip, sp}^
    1748:	453c3c31 	ldrmi	r3, [ip, #-3121]!	; 0xfffff3cf
    174c:	5f385458 	svcpl	0x00385458
    1750:	29515249 	ldmdbcs	r1, {r0, r3, r6, r9, ip, lr}^
    1754:	5f5f0029 	svcpl	0x005f0029
    1758:	5f544c46 	svcpl	0x00544c46
    175c:	5f4e494d 	svcpl	0x004e494d
    1760:	2e31205f 	mrccs	0, 1, r2, cr1, cr15, {2}
    1764:	34353731 	ldrtcc	r3, [r5], #-1841	; 0xfffff8cf
    1768:	35333439 	ldrcc	r3, [r3, #-1081]!	; 0xfffffbc7
    176c:	32323830 	eorscc	r3, r2, #48, 16	; 0x300000
    1770:	35373832 	ldrcc	r3, [r7, #-2098]!	; 0xfffff7ce
    1774:	38332d65 	ldmdacc	r3!, {r0, r2, r5, r6, r8, sl, fp, sp}
    1778:	5f5f0046 	svcpl	0x005f0046
    177c:	465f4148 	ldrbmi	r4, [pc], -r8, asr #2
    1780:	5f544942 	svcpl	0x00544942
    1784:	0037205f 	eorseq	r2, r7, pc, asr r0
    1788:	44465f5f 	strbmi	r5, [r6], #-3935	; 0xfffff0a1
    178c:	5f434950 	svcpl	0x00434950
    1790:	5f5f005f 	svcpl	0x005f005f
    1794:	33544c46 	cmpcc	r4, #17920	; 0x4600
    1798:	53495f32 	movtpl	r5, #40754	; 0x9f32
    179c:	4345495f 	movtmi	r4, #22879	; 0x595f
    17a0:	3530365f 	ldrcc	r3, [r0, #-1631]!	; 0xfffff9a1
    17a4:	5f5f3935 	svcpl	0x005f3935
    17a8:	53003220 	movwpl	r3, #544	; 0x220
    17ac:	415f4749 	cmpmi	pc, r9, asr #14
    17b0:	494d4f54 	stmdbmi	sp, {r2, r4, r6, r8, r9, sl, fp, lr}^
    17b4:	414d5f43 	cmpmi	sp, r3, asr #30
    17b8:	5f282058 	svcpl	0x00282058
    17bc:	4454535f 	ldrbmi	r5, [r4], #-863	; 0xfffffca1
    17c0:	5f544e49 	svcpl	0x00544e49
    17c4:	28505845 	ldmdacs	r0, {r0, r2, r6, fp, ip, lr}^
    17c8:	5f544e49 	svcpl	0x00544e49
    17cc:	2958414d 	ldmdbcs	r8, {r0, r2, r3, r6, r8, lr}^
    17d0:	475f0029 	ldrbmi	r0, [pc, -r9, lsr #32]
    17d4:	575f4343 	ldrbpl	r4, [pc, -r3, asr #6]
    17d8:	5f504152 	svcpl	0x00504152
    17dc:	49445453 	stmdbmi	r4, {r0, r1, r4, r6, sl, ip, lr}^
    17e0:	485f544e 	ldmdami	pc, {r1, r2, r3, r6, sl, ip, lr}^	; <UNPREDICTABLE>
    17e4:	6f6c0020 	svcvs	0x006c0020
    17e8:	2b20676e 	blcs	81b5a8 <_Min_Stack_Size+0x81b1a8>
    17ec:	4e490034 	mcrmi	0, 2, r0, cr9, cr4, {1}
    17f0:	5f545550 	svcpl	0x00545550
    17f4:	5f004946 	svcpl	0x00004946
    17f8:	4653555f 			; <UNDEFINED> instruction: 0x4653555f
    17fc:	54434152 	strbpl	r4, [r3], #-338	; 0xfffffeae
    1800:	4e494d5f 	mcrmi	13, 2, r4, cr9, cr15, {2}
    1804:	30205f5f 	eorcc	r5, r0, pc, asr pc
    1808:	4855302e 	ldmdami	r5, {r1, r2, r3, r5, ip, sp}^
    180c:	75760052 	ldrbvc	r0, [r6, #-82]!	; 0xffffffae
    1810:	746e6973 	strbtvc	r6, [lr], #-2419	; 0xfffff68d
    1814:	745f3233 	ldrbvc	r3, [pc], #-563	; 181c <_Min_Stack_Size+0x141c>
    1818:	415f5f00 	cmpmi	pc, r0, lsl #30
    181c:	4e5f4d52 	mrcmi	13, 2, r4, cr15, cr2, {2}
    1820:	004e4f45 	subeq	r4, lr, r5, asr #30
    1824:	49555f5f 	ldmdbmi	r5, {r0, r1, r2, r3, r4, r6, r8, r9, sl, fp, ip, lr}^
    1828:	5f38544e 	svcpl	0x0038544e
    182c:	5f58414d 	svcpl	0x0058414d
    1830:	7830205f 	ldmdavc	r0!, {r0, r1, r2, r3, r4, r6, sp}
    1834:	5f006666 	svcpl	0x00006666
    1838:	6e695f5f 	mcrvs	15, 3, r5, cr9, cr15, {2}
    183c:	5f363174 	svcpl	0x00363174
    1840:	65645f74 	strbvs	r5, [r4, #-3956]!	; 0xfffff08c
    1844:	656e6966 	strbvs	r6, [lr, #-2406]!	; 0xfffff69a
    1848:	00312064 	eorseq	r2, r1, r4, rrx
    184c:	39545845 	ldmdbcc	r4, {r0, r2, r6, fp, ip, lr}^
    1850:	20394250 	eorscs	r4, r9, r0, asr r2
    1854:	49504728 	ldmdbmi	r0, {r3, r5, r8, r9, sl, lr}^
    1858:	4f435f4f 	svcmi	0x00435f4f
    185c:	4749464e 	strbmi	r4, [r9, -lr, asr #12]
    1860:	7b29745f 	blvc	a5e9e4 <_Min_Stack_Size+0xa5e5e4>
    1864:	49545845 	ldmdbmi	r4, {r0, r2, r6, fp, ip, lr}^
    1868:	50472c39 	subpl	r2, r7, r9, lsr ip
    186c:	2c424f49 	mcrrcs	15, 4, r4, r2, cr9
    1870:	5f4e4950 	svcpl	0x004e4950
    1874:	58452c39 	stmdapl	r5, {r0, r3, r4, r5, sl, fp, sp}^
    1878:	495f3954 	ldmdbmi	pc, {r2, r4, r6, r8, fp, ip, sp}^	; <UNPREDICTABLE>
    187c:	007d5152 	rsbseq	r5, sp, r2, asr r1
    1880:	444c5f5f 	strbmi	r5, [ip], #-3935	; 0xfffff0a1
    1884:	4d5f4c42 	ldclmi	12, cr4, [pc, #-264]	; 1784 <_Min_Stack_Size+0x1384>
    1888:	455f5841 	ldrbmi	r5, [pc, #-2113]	; 104f <_Min_Stack_Size+0xc4f>
    188c:	5f5f5058 	svcpl	0x005f5058
    1890:	32303120 	eorscc	r3, r0, #32, 2
    1894:	58450034 	stmdapl	r5, {r2, r4, r5}^
    1898:	6e455f54 	mcrvs	15, 2, r5, cr5, cr4, {2}
    189c:	656c6261 	strbvs	r6, [ip, #-609]!	; 0xfffffd9f
    18a0:	49564e00 	ldmdbmi	r6, {r9, sl, fp, lr}^
    18a4:	58455f43 	stmdapl	r5, {r0, r1, r6, r8, r9, sl, fp, ip, lr}^
    18a8:	5f394954 	svcpl	0x00394954
    18ac:	28204e45 	stmdacs	r0!, {r0, r2, r6, r9, sl, fp, lr}
    18b0:	4349564e 	movtmi	r5, #38478	; 0x964e
    18b4:	4553495f 	ldrbmi	r4, [r3, #-2399]	; 0xfffff6a1
    18b8:	3d7c3052 	ldclcc	0, cr3, [ip, #-328]!	; 0xfffffeb8
    18bc:	3c3c3128 	ldfccs	f3, [ip], #-160	; 0xffffff60
    18c0:	39545845 	ldmdbcc	r4, {r0, r2, r6, fp, ip, lr}^
    18c4:	5152495f 	cmppl	r2, pc, asr r9
    18c8:	5f002929 	svcpl	0x00002929
    18cc:	4c42445f 	cfstrdmi	mvd4, [r2], {95}	; 0x5f
    18d0:	5341485f 	movtpl	r4, #6239	; 0x185f
    18d4:	4e45445f 	mcrmi	4, 2, r4, cr5, cr15, {2}
    18d8:	5f4d524f 	svcpl	0x004d524f
    18dc:	0031205f 	eorseq	r2, r1, pc, asr r0
    18e0:	4d544e49 	ldclmi	14, cr4, [r4, #-292]	; 0xfffffedc
    18e4:	4d5f5841 	ldclmi	8, cr5, [pc, #-260]	; 17e8 <_Min_Stack_Size+0x13e8>
    18e8:	28205841 	stmdacs	r0!, {r0, r6, fp, ip, lr}
    18ec:	4e495f5f 	mcrmi	15, 2, r5, cr9, cr15, {2}
    18f0:	58414d54 	stmdapl	r1, {r2, r4, r6, r8, sl, fp, lr}^
    18f4:	58414d5f 	stmdapl	r1, {r0, r1, r2, r3, r4, r6, r8, sl, fp, lr}^
    18f8:	00295f5f 	eoreq	r5, r9, pc, asr pc
    18fc:	67697254 			; <UNDEFINED> instruction: 0x67697254
    1900:	00726567 	rsbseq	r6, r2, r7, ror #10
    1904:	4f495047 	svcmi	0x00495047
    1908:	41425f46 	cmpmi	r2, r6, asr #30
    190c:	30204553 	eorcc	r4, r0, r3, asr r5
    1910:	30303478 	eorscc	r3, r0, r8, ror r4
    1914:	30433131 	subcc	r3, r3, r1, lsr r1
    1918:	5f5f0030 	svcpl	0x005f0030
    191c:	465f4144 	ldrbmi	r4, [pc], -r4, asr #2
    1920:	5f544942 	svcpl	0x00544942
    1924:	3133205f 	teqcc	r3, pc, asr r0
    1928:	475f5f00 	ldrbmi	r5, [pc, -r0, lsl #30]
    192c:	415f5858 	cmpmi	pc, r8, asr r8	; <UNPREDICTABLE>
    1930:	565f4942 	ldrbpl	r4, [pc], -r2, asr #18
    1934:	49535245 	ldmdbmi	r3, {r0, r2, r6, r9, ip, lr}^
    1938:	31204e4f 			; <UNDEFINED> instruction: 0x31204e4f
    193c:	00363130 	eorseq	r3, r6, r0, lsr r1
    1940:	4e495f5f 	mcrmi	15, 2, r5, cr9, cr15, {2}
    1944:	454c5f54 	strbmi	r5, [ip, #-3924]	; 0xfffff0ac
    1948:	31545341 	cmpcc	r4, r1, asr #6
    194c:	414d5f36 	cmpmi	sp, r6, lsr pc
    1950:	205f5f58 	subscs	r5, pc, r8, asr pc	; <UNPREDICTABLE>
    1954:	66377830 			; <UNDEFINED> instruction: 0x66377830
    1958:	47006666 	strmi	r6, [r0, -r6, ror #12]
    195c:	424f4950 	submi	r4, pc, #80, 18	; 0x140000
    1960:	5341425f 	movtpl	r4, #4703	; 0x125f
    1964:	78302045 	ldmdavc	r0!, {r0, r2, r6, sp}
    1968:	31303034 	teqcc	r0, r4, lsr r0
    196c:	30304330 	eorscc	r4, r0, r0, lsr r3
    1970:	465f5f00 	ldrbmi	r5, [pc], -r0, lsl #30
    1974:	445f544c 	ldrbmi	r5, [pc], #-1100	; 197c <_Min_Stack_Size+0x157c>
    1978:	524f4e45 	subpl	r4, pc, #1104	; 0x450
    197c:	494d5f4d 	stmdbmi	sp, {r0, r2, r3, r6, r8, r9, sl, fp, ip, lr}^
    1980:	205f5f4e 	subscs	r5, pc, lr, asr #30
    1984:	30342e31 	eorscc	r2, r4, r1, lsr lr
    1988:	38393231 	ldmdacc	r9!, {r0, r4, r5, r9, ip, sp}
    198c:	33343634 	teqcc	r4, #52, 12	; 0x3400000
    1990:	31383432 	teqcc	r8, r2, lsr r4
    1994:	2d653137 	stfcse	f3, [r5, #-220]!	; 0xffffff24
    1998:	00463534 	subeq	r3, r6, r4, lsr r5
    199c:	5250414d 	subspl	r4, r0, #1073741843	; 0x40000013
    19a0:	49550032 	ldmdbmi	r5, {r1, r4, r5}^
    19a4:	4c5f544e 	cfldrdmi	mvd5, [pc], {78}	; 0x4e
    19a8:	54534145 	ldrbpl	r4, [r3], #-325	; 0xfffffebb
    19ac:	4d5f3631 	ldclmi	6, cr3, [pc, #-196]	; 18f0 <_Min_Stack_Size+0x14f0>
    19b0:	28205841 	stmdacs	r0!, {r0, r6, fp, ip, lr}
    19b4:	49555f5f 	ldmdbmi	r5, {r0, r1, r2, r3, r4, r6, r8, r9, sl, fp, ip, lr}^
    19b8:	4c5f544e 	cfldrdmi	mvd5, [pc], {78}	; 0x4e
    19bc:	54534145 	ldrbpl	r4, [r3], #-325	; 0xfffffebb
    19c0:	4d5f3631 	ldclmi	6, cr3, [pc, #-196]	; 1904 <_Min_Stack_Size+0x1504>
    19c4:	5f5f5841 	svcpl	0x005f5841
    19c8:	5f5f0029 	svcpl	0x005f0029
    19cc:	544e4955 	strbpl	r4, [lr], #-2389	; 0xfffff6ab
    19d0:	435f3233 	cmpmi	pc, #805306371	; 0x30000003
    19d4:	20296328 	eorcs	r6, r9, r8, lsr #6
    19d8:	23232063 			; <UNDEFINED> instruction: 0x23232063
    19dc:	004c5520 	subeq	r5, ip, r0, lsr #10
    19e0:	5f434e49 	svcpl	0x00434e49
    19e4:	334d5453 	movtcc	r5, #54355	; 0xd453
    19e8:	30314632 	eorscc	r4, r1, r2, lsr r6
    19ec:	5f365833 	svcpl	0x00365833
    19f0:	00205f48 	eoreq	r5, r0, r8, asr #30
    19f4:	41555f5f 	cmpmi	r5, pc, asr pc
    19f8:	4d554343 	ldclmi	3, cr4, [r5, #-268]	; 0xfffffef4
    19fc:	4e494d5f 	mcrmi	13, 2, r4, cr9, cr15, {2}
    1a00:	30205f5f 	eorcc	r5, r0, pc, asr pc
    1a04:	4b55302e 	blmi	154dac4 <_Min_Stack_Size+0x154d6c4>
    1a08:	4e495500 	cdpmi	5, 4, cr5, cr9, cr0, {0}
    1a0c:	435f3854 	cmpmi	pc, #84, 16	; 0x540000
    1a10:	20297828 	eorcs	r7, r9, r8, lsr #16
    1a14:	49555f5f 	ldmdbmi	r5, {r0, r1, r2, r3, r4, r6, r8, r9, sl, fp, ip, lr}^
    1a18:	5f38544e 	svcpl	0x0038544e
    1a1c:	29782843 	ldmdbcs	r8!, {r0, r1, r6, fp, sp}^
    1a20:	465f5f00 	ldrbmi	r5, [pc], -r0, lsl #30
    1a24:	455f544c 	ldrbmi	r5, [pc, #-1100]	; 15e0 <_Min_Stack_Size+0x11e0>
    1a28:	4c495350 	mcrrmi	3, 5, r5, r9, cr0
    1a2c:	5f5f4e4f 	svcpl	0x005f4e4f
    1a30:	312e3120 			; <UNDEFINED> instruction: 0x312e3120
    1a34:	39303239 	ldmdbcc	r0!, {r0, r3, r4, r5, r9, ip, sp}
    1a38:	35393832 	ldrcc	r3, [r9, #-2098]!	; 0xfffff7ce
    1a3c:	38373035 	ldmdacc	r7!, {r0, r2, r4, r5, ip, sp}
    1a40:	65353231 	ldrvs	r3, [r5, #-561]!	; 0xfffffdcf
    1a44:	0046372d 	subeq	r3, r6, sp, lsr #14
    1a48:	45455053 	strbmi	r5, [r5, #-83]	; 0xffffffad
    1a4c:	58450044 	stmdapl	r5, {r2, r6}^
    1a50:	42503654 	subsmi	r3, r0, #84, 12	; 0x5400000
    1a54:	47282036 			; <UNDEFINED> instruction: 0x47282036
    1a58:	5f4f4950 	svcpl	0x004f4950
    1a5c:	464e4f43 	strbmi	r4, [lr], -r3, asr #30
    1a60:	745f4749 	ldrbvc	r4, [pc], #-1865	; 1a68 <_Min_Stack_Size+0x1668>
    1a64:	58457b29 	stmdapl	r5, {r0, r3, r5, r8, r9, fp, ip, sp, lr}^
    1a68:	2c364954 			; <UNDEFINED> instruction: 0x2c364954
    1a6c:	4f495047 	svcmi	0x00495047
    1a70:	49502c42 	ldmdbmi	r0, {r1, r6, sl, fp, sp}^
    1a74:	2c365f4e 	ldccs	15, cr5, [r6], #-312	; 0xfffffec8
    1a78:	36545845 	ldrbcc	r5, [r4], -r5, asr #16
    1a7c:	5152495f 	cmppl	r2, pc, asr r9
    1a80:	495f007d 	ldmdbmi	pc, {r0, r2, r3, r4, r5, r6}^	; <UNPREDICTABLE>
    1a84:	414d544e 	cmpmi	sp, lr, asr #8
    1a88:	5f545f58 	svcpl	0x00545f58
    1a8c:	4c434544 	cfstr64mi	mvdx4, [r3], {68}	; 0x44
    1a90:	44455241 	strbmi	r5, [r5], #-577	; 0xfffffdbf
    1a94:	5f5f0020 	svcpl	0x005f0020
    1a98:	5f434347 	svcpl	0x00434347
    1a9c:	4d4f5441 	cfstrdmi	mvd5, [pc, #-260]	; 19a0 <_Min_Stack_Size+0x15a0>
    1aa0:	535f4349 	cmppl	pc, #603979777	; 0x24000001
    1aa4:	54524f48 	ldrbpl	r4, [r2], #-3912	; 0xfffff0b8
    1aa8:	434f4c5f 	movtmi	r4, #64607	; 0xfc5f
    1aac:	52465f4b 	subpl	r5, r6, #300	; 0x12c
    1ab0:	32204545 	eorcc	r4, r0, #289406976	; 0x11400000
    1ab4:	505f5f00 	subspl	r5, pc, r0, lsl #30
    1ab8:	49445254 	stmdbmi	r4, {r2, r4, r6, r9, ip, lr}^
    1abc:	545f4646 	ldrbpl	r4, [pc], #-1606	; 1ac4 <_Min_Stack_Size+0x16c4>
    1ac0:	5f455059 	svcpl	0x00455059
    1ac4:	6e69205f 	mcrvs	0, 3, r2, cr9, cr15, {2}
    1ac8:	5f5f0074 	svcpl	0x005f0074
    1acc:	5f4d5241 	svcpl	0x004d5241
    1ad0:	48435241 	stmdami	r3, {r0, r6, r9, ip, lr}^
    1ad4:	4153495f 	cmpmi	r3, pc, asr r9
    1ad8:	5548545f 	strbpl	r5, [r8, #-1119]	; 0xfffffba1
    1adc:	5f00424d 	svcpl	0x0000424d
    1ae0:	4341555f 	movtmi	r5, #5471	; 0x155f
    1ae4:	5f4d5543 	svcpl	0x004d5543
    1ae8:	49535045 	ldmdbmi	r3, {r0, r2, r6, ip, lr}^
    1aec:	5f4e4f4c 	svcpl	0x004e4f4c
    1af0:	7830205f 	ldmdavc	r0!, {r0, r1, r2, r3, r4, r6, sp}
    1af4:	312d5031 			; <UNDEFINED> instruction: 0x312d5031
    1af8:	004b5536 	subeq	r5, fp, r6, lsr r5
    1afc:	52415f5f 	subpl	r5, r1, #380	; 0x17c
    1b00:	45465f4d 	strbmi	r5, [r6, #-3917]	; 0xfffff0b3
    1b04:	52555441 	subspl	r5, r5, #1090519040	; 0x41000000
    1b08:	414d5f45 	cmpmi	sp, r5, asr #30
    1b0c:	4c554d54 	mrrcmi	13, 5, r4, r5, cr4
    1b10:	544e495f 	strbpl	r4, [lr], #-2399	; 0xfffff6a1
    1b14:	4e490038 	mcrmi	0, 2, r0, cr9, cr8, {1}
    1b18:	454c5f54 	strbmi	r5, [ip, #-3924]	; 0xfffff0ac
    1b1c:	33545341 	cmpcc	r4, #67108865	; 0x4000001
    1b20:	414d5f32 	cmpmi	sp, r2, lsr pc
    1b24:	5f282058 	svcpl	0x00282058
    1b28:	544e495f 	strbpl	r4, [lr], #-2399	; 0xfffff6a1
    1b2c:	41454c5f 	cmpmi	r5, pc, asr ip
    1b30:	32335453 	eorscc	r5, r3, #1392508928	; 0x53000000
    1b34:	58414d5f 	stmdapl	r1, {r0, r1, r2, r3, r4, r6, r8, sl, fp, lr}^
    1b38:	00295f5f 	eoreq	r5, r9, pc, asr pc
    1b3c:	5f544e49 	svcpl	0x00544e49
    1b40:	5341454c 	movtpl	r4, #5452	; 0x154c
    1b44:	5f323354 	svcpl	0x00323354
    1b48:	204e494d 	subcs	r4, lr, sp, asr #18
    1b4c:	5f5f2d28 	svcpl	0x005f2d28
    1b50:	5f544e49 	svcpl	0x00544e49
    1b54:	5341454c 	movtpl	r4, #5452	; 0x154c
    1b58:	5f323354 	svcpl	0x00323354
    1b5c:	5f58414d 	svcpl	0x0058414d
    1b60:	202d205f 	eorcs	r2, sp, pc, asr r0
    1b64:	45002931 	strmi	r2, [r0, #-2353]	; 0xfffff6cf
    1b68:	50375458 	eorspl	r5, r7, r8, asr r4
    1b6c:	28203744 	stmdacs	r0!, {r2, r6, r8, r9, sl, ip, sp}
    1b70:	4f495047 	svcmi	0x00495047
    1b74:	4e4f435f 	mcrmi	3, 2, r4, cr15, cr15, {2}
    1b78:	5f474946 	svcpl	0x00474946
    1b7c:	457b2974 	ldrbmi	r2, [fp, #-2420]!	; 0xfffff68c
    1b80:	37495458 	smlsldcc	r5, r9, r8, r4
    1b84:	4950472c 	ldmdbmi	r0, {r2, r3, r5, r8, r9, sl, lr}^
    1b88:	502c444f 	eorpl	r4, ip, pc, asr #8
    1b8c:	375f4e49 	ldrbcc	r4, [pc, -r9, asr #28]
    1b90:	5458452c 	ldrbpl	r4, [r8], #-1324	; 0xfffffad4
    1b94:	52495f37 	subpl	r5, r9, #55, 30	; 0xdc
    1b98:	5f007d51 	svcpl	0x00007d51
    1b9c:	4153555f 	cmpmi	r3, pc, asr r5
    1ba0:	4d554343 	ldclmi	3, cr4, [r5, #-268]	; 0xfffffef4
    1ba4:	4942465f 	stmdbmi	r2, {r0, r1, r2, r3, r4, r6, r9, sl, lr}^
    1ba8:	205f5f54 	subscs	r5, pc, r4, asr pc	; <UNPREDICTABLE>
    1bac:	5f5f0038 	svcpl	0x005f0038
    1bb0:	5f434347 	svcpl	0x00434347
    1bb4:	4d4f5441 	cfstrdmi	mvd5, [pc, #-260]	; 1ab8 <_Min_Stack_Size+0x16b8>
    1bb8:	545f4349 	ldrbpl	r4, [pc], #-841	; 1bc0 <_Min_Stack_Size+0x17c0>
    1bbc:	5f545345 	svcpl	0x00545345
    1bc0:	5f444e41 	svcpl	0x00444e41
    1bc4:	5f544553 	svcpl	0x00544553
    1bc8:	45555254 	ldrbmi	r5, [r5, #-596]	; 0xfffffdac
    1bcc:	204c4156 	subcs	r4, ip, r6, asr r1
    1bd0:	50470031 	subpl	r0, r7, r1, lsr r0
    1bd4:	20454f49 	subcs	r4, r5, r9, asr #30
    1bd8:	50472828 	subpl	r2, r7, r8, lsr #16
    1bdc:	5f784f49 	svcpl	0x00784f49
    1be0:	20474552 	subcs	r4, r7, r2, asr r5
    1be4:	4720292a 	strmi	r2, [r0, -sl, lsr #18]!
    1be8:	454f4950 	strbmi	r4, [pc, #-2384]	; 12a0 <_Min_Stack_Size+0xea0>
    1bec:	5341425f 	movtpl	r4, #4703	; 0x125f
    1bf0:	5f002945 	svcpl	0x00002945
    1bf4:	43414c5f 	movtmi	r4, #7263	; 0x1c5f
    1bf8:	5f4d5543 	svcpl	0x004d5543
    1bfc:	54494246 	strbpl	r4, [r9], #-582	; 0xfffffdba
    1c00:	33205f5f 			; <UNDEFINED> instruction: 0x33205f5f
    1c04:	58450031 	stmdapl	r5, {r0, r4, r5}^
    1c08:	44503554 	ldrbmi	r3, [r0], #-1364	; 0xfffffaac
    1c0c:	47282035 			; <UNDEFINED> instruction: 0x47282035
    1c10:	5f4f4950 	svcpl	0x004f4950
    1c14:	464e4f43 	strbmi	r4, [lr], -r3, asr #30
    1c18:	745f4749 	ldrbvc	r4, [pc], #-1865	; 1c20 <_Min_Stack_Size+0x1820>
    1c1c:	58457b29 	stmdapl	r5, {r0, r3, r5, r8, r9, fp, ip, sp, lr}^
    1c20:	2c354954 			; <UNDEFINED> instruction: 0x2c354954
    1c24:	4f495047 	svcmi	0x00495047
    1c28:	49502c44 	ldmdbmi	r0, {r2, r6, sl, fp, sp}^
    1c2c:	2c355f4e 	ldccs	15, cr5, [r5], #-312	; 0xfffffec8
    1c30:	35545845 	ldrbcc	r5, [r4, #-2117]	; 0xfffff7bb
    1c34:	5152495f 	cmppl	r2, pc, asr r9
    1c38:	5f5f007d 	svcpl	0x005f007d
    1c3c:	33544c46 	cmpcc	r4, #17920	; 0x4600
    1c40:	41485f32 	cmpmi	r8, r2, lsr pc
    1c44:	55515f53 	ldrbpl	r5, [r1, #-3923]	; 0xfffff0ad
    1c48:	5f544549 	svcpl	0x00544549
    1c4c:	5f4e414e 	svcpl	0x004e414e
    1c50:	0031205f 	eorseq	r2, r1, pc, asr r0
    1c54:	444c5f5f 	strbmi	r5, [ip], #-3935	; 0xfffff0a1
    1c58:	485f4c42 	ldmdami	pc, {r1, r6, sl, fp, lr}^	; <UNPREDICTABLE>
    1c5c:	495f5341 	ldmdbmi	pc, {r0, r6, r8, r9, ip, lr}^	; <UNPREDICTABLE>
    1c60:	4e49464e 	cdpmi	6, 4, cr4, cr9, cr14, {2}
    1c64:	5f595449 	svcpl	0x00595449
    1c68:	0031205f 	eorseq	r2, r1, pc, asr r0
    1c6c:	41545f5f 	cmpmi	r4, pc, asr pc
    1c70:	4942465f 	stmdbmi	r2, {r0, r1, r2, r3, r4, r6, r9, sl, lr}^
    1c74:	205f5f54 	subscs	r5, pc, r4, asr pc	; <UNPREDICTABLE>
    1c78:	45003336 	strmi	r3, [r0, #-822]	; 0xfffffcca
    1c7c:	30495458 	subcc	r5, r9, r8, asr r4
    1c80:	49003020 	stmdbmi	r0, {r5, ip, sp}
    1c84:	5450544e 	ldrbpl	r5, [r0], #-1102	; 0xfffffbb2
    1c88:	494d5f52 	stmdbmi	sp, {r1, r4, r6, r8, r9, sl, fp, ip, lr}^
    1c8c:	2d28204e 	stccs	0, cr2, [r8, #-312]!	; 0xfffffec8
    1c90:	4e495f5f 	mcrmi	15, 2, r5, cr9, cr15, {2}
    1c94:	52545054 	subspl	r5, r4, #84	; 0x54
    1c98:	58414d5f 	stmdapl	r1, {r0, r1, r2, r3, r4, r6, r8, sl, fp, lr}^
    1c9c:	2d205f5f 	stccs	15, cr5, [r0, #-380]!	; 0xfffffe84
    1ca0:	00293120 	eoreq	r3, r9, r0, lsr #2
    1ca4:	31545845 	cmpcc	r4, r5, asr #16
    1ca8:	52495f35 	subpl	r5, r9, #53, 30	; 0xd4
    1cac:	30342051 	eorscc	r2, r4, r1, asr r0
    1cb0:	415f5f00 	cmpmi	pc, r0, lsl #30
    1cb4:	415f4d52 	cmpmi	pc, r2, asr sp	; <UNPREDICTABLE>
    1cb8:	5f484352 	svcpl	0x00484352
    1cbc:	5f545845 	svcpl	0x00545845
    1cc0:	56494449 	strbpl	r4, [r9], -r9, asr #8
    1cc4:	31205f5f 			; <UNDEFINED> instruction: 0x31205f5f
    1cc8:	415f5f00 	cmpmi	pc, r0, lsl #30
    1ccc:	505f4d52 	subspl	r4, pc, r2, asr sp	; <UNPREDICTABLE>
    1cd0:	31205343 			; <UNDEFINED> instruction: 0x31205343
    1cd4:	49464100 	stmdbmi	r6, {r8, lr}^
    1cd8:	41425f4f 	cmpmi	r2, pc, asr #30
    1cdc:	30204553 	eorcc	r4, r0, r3, asr r5
    1ce0:	30303478 	eorscc	r3, r0, r8, ror r4
    1ce4:	30303031 	eorscc	r3, r0, r1, lsr r0
    1ce8:	5f5f0030 	svcpl	0x005f0030
    1cec:	5f515155 	svcpl	0x00515155
    1cf0:	54494249 	strbpl	r4, [r9], #-585	; 0xfffffdb7
    1cf4:	30205f5f 	eorcc	r5, r0, pc, asr pc
    1cf8:	535f5f00 	cmppl	pc, #0, 30
    1cfc:	415f4749 	cmpmi	pc, r9, asr #14
    1d00:	494d4f54 	stmdbmi	sp, {r2, r4, r6, r8, r9, sl, fp, lr}^
    1d04:	494d5f43 	stmdbmi	sp, {r0, r1, r6, r8, r9, sl, fp, ip, lr}^
    1d08:	205f5f4e 	subscs	r5, pc, lr, asr #30
    1d0c:	5f5f2d28 	svcpl	0x005f2d28
    1d10:	5f474953 	svcpl	0x00474953
    1d14:	4d4f5441 	cfstrdmi	mvd5, [pc, #-260]	; 1c18 <_Min_Stack_Size+0x1818>
    1d18:	4d5f4349 	ldclmi	3, cr4, [pc, #-292]	; 1bfc <_Min_Stack_Size+0x17fc>
    1d1c:	5f5f5841 	svcpl	0x005f5841
    1d20:	31202d20 			; <UNDEFINED> instruction: 0x31202d20
    1d24:	58450029 	stmdapl	r5, {r0, r3, r5}^
    1d28:	20354954 	eorscs	r4, r5, r4, asr r9
    1d2c:	5f5f0035 	svcpl	0x005f0035
    1d30:	544e4955 	strbpl	r4, [lr], #-2389	; 0xfffff6ab
    1d34:	41454c5f 	cmpmi	r5, pc, asr ip
    1d38:	5f385453 	svcpl	0x00385453
    1d3c:	5f58414d 	svcpl	0x0058414d
    1d40:	7830205f 	ldmdavc	r0!, {r0, r1, r2, r3, r4, r6, sp}
    1d44:	50006666 	andpl	r6, r0, r6, ror #12
    1d48:	635f4e49 	cmpvs	pc, #1168	; 0x490
    1d4c:	69666e6f 	stmdbvs	r6!, {r0, r1, r2, r3, r5, r6, r9, sl, fp, sp, lr}^
    1d50:	45520067 	ldrbmi	r0, [r2, #-103]	; 0xffffff99
    1d54:	56524553 			; <UNDEFINED> instruction: 0x56524553
    1d58:	53004445 	movwpl	r4, #1093	; 0x445
    1d5c:	415f4749 	cmpmi	pc, r9, asr #14
    1d60:	494d4f54 	stmdbmi	sp, {r2, r4, r6, r8, r9, sl, fp, lr}^
    1d64:	494d5f43 	stmdbmi	sp, {r0, r1, r6, r8, r9, sl, fp, ip, lr}^
    1d68:	2d28204e 	stccs	0, cr2, [r8, #-312]!	; 0xfffffec8
    1d6c:	54535f5f 	ldrbpl	r5, [r3], #-3935	; 0xfffff0a1
    1d70:	544e4944 	strbpl	r4, [lr], #-2372	; 0xfffff6bc
    1d74:	5058455f 	subspl	r4, r8, pc, asr r5
    1d78:	544e4928 	strbpl	r4, [lr], #-2344	; 0xfffff6d8
    1d7c:	58414d5f 	stmdapl	r1, {r0, r1, r2, r3, r4, r6, r8, sl, fp, lr}^
    1d80:	202d2029 	eorcs	r2, sp, r9, lsr #32
    1d84:	67002931 	smladxvs	r0, r1, r9, r2
    1d88:	435f505f 	cmpmi	pc, #95	; 0x5f
    1d8c:	424c4c41 	submi	r4, ip, #16640	; 0x4100
    1d90:	5f4b4341 	svcpl	0x004b4341
    1d94:	58450066 	stmdapl	r5, {r1, r2, r5, r6}^
    1d98:	495f3954 	ldmdbmi	pc, {r2, r4, r6, r8, fp, ip, sp}^	; <UNPREDICTABLE>
    1d9c:	32205152 	eorcc	r5, r0, #-2147483628	; 0x80000014
    1da0:	495f0033 	ldmdbmi	pc, {r0, r1, r4, r5}^	; <UNPREDICTABLE>
    1da4:	3631544e 	ldrtcc	r5, [r1], -lr, asr #8
    1da8:	445f545f 	ldrbmi	r5, [pc], #-1119	; 1db0 <_Min_Stack_Size+0x19b0>
    1dac:	414c4345 	cmpmi	ip, r5, asr #6
    1db0:	20444552 	subcs	r4, r4, r2, asr r5
    1db4:	465f5f00 	ldrbmi	r5, [pc], -r0, lsl #30
    1db8:	3233544c 	eorscc	r5, r3, #76, 8	; 0x4c000000
    1dbc:	53495f58 	movtpl	r5, #40792	; 0x9f58
    1dc0:	4345495f 	movtmi	r4, #22879	; 0x595f
    1dc4:	3530365f 	ldrcc	r3, [r0, #-1631]!	; 0xfffff9a1
    1dc8:	5f5f3935 	svcpl	0x005f3935
    1dcc:	5f003220 	svcpl	0x00003220
    1dd0:	544c465f 	strbpl	r4, [ip], #-1631	; 0xfffff9a1
    1dd4:	5341485f 	movtpl	r4, #6239	; 0x185f
    1dd8:	4e45445f 	mcrmi	4, 2, r4, cr5, cr15, {2}
    1ddc:	5f4d524f 	svcpl	0x004d524f
    1de0:	0031205f 	eorseq	r2, r1, pc, asr r0
    1de4:	32545845 	subscc	r5, r4, #4521984	; 0x450000
    1de8:	20324450 	eorscs	r4, r2, r0, asr r4
    1dec:	49504728 	ldmdbmi	r0, {r3, r5, r8, r9, sl, lr}^
    1df0:	4f435f4f 	svcmi	0x00435f4f
    1df4:	4749464e 	strbmi	r4, [r9, -lr, asr #12]
    1df8:	7b29745f 	blvc	a5ef7c <_Min_Stack_Size+0xa5eb7c>
    1dfc:	49545845 	ldmdbmi	r4, {r0, r2, r6, fp, ip, lr}^
    1e00:	50472c32 	subpl	r2, r7, r2, lsr ip
    1e04:	2c444f49 	mcrrcs	15, 4, r4, r4, cr9
    1e08:	5f4e4950 	svcpl	0x004e4950
    1e0c:	58452c32 	stmdapl	r5, {r1, r4, r5, sl, fp, sp}^
    1e10:	495f3254 	ldmdbmi	pc, {r2, r4, r6, r9, ip, sp}^	; <UNPREDICTABLE>
    1e14:	007d5152 	rsbseq	r5, sp, r2, asr r1
    1e18:	4e495f5f 	mcrmi	15, 2, r5, cr9, cr15, {2}
    1e1c:	454c5f54 	strbmi	r5, [ip, #-3924]	; 0xfffff0ac
    1e20:	31545341 	cmpcc	r4, r1, asr #6
    1e24:	49575f36 	ldmdbmi	r7, {r1, r2, r4, r5, r8, r9, sl, fp, ip, lr}^
    1e28:	5f485444 	svcpl	0x00485444
    1e2c:	3631205f 			; <UNDEFINED> instruction: 0x3631205f
    1e30:	445f5f00 	ldrbmi	r5, [pc], #-3840	; 1e38 <_Min_Stack_Size+0x1a38>
    1e34:	455f4345 	ldrbmi	r4, [pc, #-837]	; 1af7 <_Min_Stack_Size+0x16f7>
    1e38:	5f4c4156 	svcpl	0x004c4156
    1e3c:	4854454d 	ldmdami	r4, {r0, r2, r3, r6, r8, sl, lr}^
    1e40:	5f5f444f 	svcpl	0x005f444f
    1e44:	5f003220 	svcpl	0x00003220
    1e48:	4d52415f 	ldfmie	f4, [r2, #-380]	; 0xfffffe84
    1e4c:	4145465f 	cmpmi	r5, pc, asr r6
    1e50:	45525554 	ldrbmi	r5, [r2, #-1364]	; 0xfffffaac
    1e54:	3150465f 	cmpcc	r0, pc, asr r6
    1e58:	4d465f36 	stclmi	15, cr5, [r6, #-216]	; 0xffffff28
    1e5c:	5845004c 	stmdapl	r5, {r2, r3, r6}^
    1e60:	44503054 	ldrbmi	r3, [r0], #-84	; 0xffffffac
    1e64:	47282030 			; <UNDEFINED> instruction: 0x47282030
    1e68:	5f4f4950 	svcpl	0x004f4950
    1e6c:	464e4f43 	strbmi	r4, [lr], -r3, asr #30
    1e70:	745f4749 	ldrbvc	r4, [pc], #-1865	; 1e78 <_Min_Stack_Size+0x1a78>
    1e74:	58457b29 	stmdapl	r5, {r0, r3, r5, r8, r9, fp, ip, sp, lr}^
    1e78:	2c304954 			; <UNDEFINED> instruction: 0x2c304954
    1e7c:	4f495047 	svcmi	0x00495047
    1e80:	49502c44 	ldmdbmi	r0, {r2, r6, sl, fp, sp}^
    1e84:	2c305f4e 	ldccs	15, cr5, [r0], #-312	; 0xfffffec8
    1e88:	30545845 	subscc	r5, r4, r5, asr #16
    1e8c:	5152495f 	cmppl	r2, pc, asr r9
    1e90:	5f5f007d 	svcpl	0x005f007d
    1e94:	52465355 	subpl	r5, r6, #1409286145	; 0x54000001
    1e98:	5f544341 	svcpl	0x00544341
    1e9c:	49535045 	ldmdbmi	r3, {r0, r2, r6, ip, lr}^
    1ea0:	5f4e4f4c 	svcpl	0x004e4f4c
    1ea4:	7830205f 	ldmdavc	r0!, {r0, r1, r2, r3, r4, r6, sp}
    1ea8:	382d5031 	stmdacc	sp!, {r0, r4, r5, ip, lr}
    1eac:	00524855 	subseq	r4, r2, r5, asr r8
    1eb0:	695f5f5f 	ldmdbvs	pc, {r0, r1, r2, r3, r4, r6, r8, r9, sl, fp, ip, lr}^	; <UNPREDICTABLE>
    1eb4:	6c5f746e 	cfldrdvs	mvd7, [pc], {110}	; 0x6e
    1eb8:	74736165 	ldrbtvc	r6, [r3], #-357	; 0xfffffe9b
    1ebc:	745f3233 	ldrbvc	r3, [pc], #-563	; 1ec4 <_Min_Stack_Size+0x1ac4>
    1ec0:	6665645f 			; <UNDEFINED> instruction: 0x6665645f
    1ec4:	64656e69 	strbtvs	r6, [r5], #-3689	; 0xfffff197
    1ec8:	5f003120 	svcpl	0x00003120
    1ecc:	414c4c5f 	cmpmi	ip, pc, asr ip
    1ed0:	4d554343 	ldclmi	3, cr4, [r5, #-268]	; 0xfffffef4
    1ed4:	58414d5f 	stmdapl	r1, {r0, r1, r2, r3, r4, r6, r8, sl, fp, lr}^
    1ed8:	30205f5f 	eorcc	r5, r0, pc, asr pc
    1edc:	46463758 			; <UNDEFINED> instruction: 0x46463758
    1ee0:	46464646 	strbmi	r4, [r6], -r6, asr #12
    1ee4:	46464646 	strbmi	r4, [r6], -r6, asr #12
    1ee8:	46464646 	strbmi	r4, [r6], -r6, asr #12
    1eec:	332d5046 			; <UNDEFINED> instruction: 0x332d5046
    1ef0:	4b4c4c31 	blmi	1314fbc <_Min_Stack_Size+0x1314bbc>
    1ef4:	555f5f00 	ldrbpl	r5, [pc, #-3840]	; ffc <_Min_Stack_Size+0xbfc>
    1ef8:	5f524553 	svcpl	0x00524553
    1efc:	4542414c 	strbmi	r4, [r2, #-332]	; 0xfffffeb4
    1f00:	52505f4c 	subspl	r5, r0, #76, 30	; 0x130
    1f04:	58494645 	stmdapl	r9, {r0, r2, r6, r9, sl, lr}^
    1f08:	00205f5f 	eoreq	r5, r0, pc, asr pc
    1f0c:	49555f5f 	ldmdbmi	r5, {r0, r1, r2, r3, r4, r6, r8, r9, sl, fp, ip, lr}^
    1f10:	3436544e 	ldrtcc	r5, [r6], #-1102	; 0xfffffbb2
    1f14:	58414d5f 	stmdapl	r1, {r0, r1, r2, r3, r4, r6, r8, sl, fp, lr}^
    1f18:	30205f5f 	eorcc	r5, r0, pc, asr pc
    1f1c:	66666678 			; <UNDEFINED> instruction: 0x66666678
    1f20:	66666666 	strbtvs	r6, [r6], -r6, ror #12
    1f24:	66666666 	strbtvs	r6, [r6], -r6, ror #12
    1f28:	66666666 	strbtvs	r6, [r6], -r6, ror #12
    1f2c:	4c4c5566 	cfstr64mi	mvdx5, [ip], {102}	; 0x66
    1f30:	555f5f00 	ldrbpl	r5, [pc, #-3840]	; 1038 <_Min_Stack_Size+0xc38>
    1f34:	33544e49 	cmpcc	r4, #1168	; 0x490
    1f38:	414d5f32 	cmpmi	sp, r2, lsr pc
    1f3c:	205f5f58 	subscs	r5, pc, r8, asr pc	; <UNPREDICTABLE>
    1f40:	66667830 			; <UNDEFINED> instruction: 0x66667830
    1f44:	66666666 	strbtvs	r6, [r6], -r6, ror #12
    1f48:	4c556666 	mrrcmi	6, 6, r6, r5, cr6
    1f4c:	544e4900 	strbpl	r4, [lr], #-2304	; 0xfffff700
    1f50:	435f3436 	cmpmi	pc, #905969664	; 0x36000000
    1f54:	20297828 	eorcs	r7, r9, r8, lsr #16
    1f58:	4e495f5f 	mcrmi	15, 2, r5, cr9, cr15, {2}
    1f5c:	5f343654 	svcpl	0x00343654
    1f60:	29782843 	ldmdbcs	r8!, {r0, r1, r6, fp, sp}^
    1f64:	54415f00 	strbpl	r5, [r1], #-3840	; 0xfffff100
    1f68:	454c4946 	strbmi	r4, [ip, #-2374]	; 0xfffff6ba
    1f6c:	554f535f 	strbpl	r5, [pc, #-863]	; 1c15 <_Min_Stack_Size+0x1815>
    1f70:	00454352 	subeq	r4, r5, r2, asr r3
    1f74:	5f544e49 	svcpl	0x00544e49
    1f78:	54534146 	ldrbpl	r4, [r3], #-326	; 0xfffffeba
    1f7c:	4d5f3631 	ldclmi	6, cr3, [pc, #-196]	; 1ec0 <_Min_Stack_Size+0x1ac0>
    1f80:	28204e49 	stmdacs	r0!, {r0, r3, r6, r9, sl, fp, lr}
    1f84:	495f5f2d 	ldmdbmi	pc, {r0, r2, r3, r5, r8, r9, sl, fp, ip, lr}^	; <UNPREDICTABLE>
    1f88:	465f544e 	ldrbmi	r5, [pc], -lr, asr #8
    1f8c:	31545341 	cmpcc	r4, r1, asr #6
    1f90:	414d5f36 	cmpmi	sp, r6, lsr pc
    1f94:	205f5f58 	subscs	r5, pc, r8, asr pc	; <UNPREDICTABLE>
    1f98:	2931202d 	ldmdbcs	r1!, {r0, r2, r3, r5, sp}
    1f9c:	535f5f00 	cmppl	pc, #0, 30
    1fa0:	5f434454 	svcpl	0x00434454
    1fa4:	53524556 	cmppl	r2, #360710144	; 0x15800000
    1fa8:	5f4e4f49 	svcpl	0x004e4f49
    1fac:	3032205f 	eorscc	r2, r2, pc, asr r0
    1fb0:	32313131 	eorscc	r3, r1, #1073741836	; 0x4000000c
    1fb4:	564e004c 	strbpl	r0, [lr], -ip, asr #32
    1fb8:	455f4349 	ldrbmi	r4, [pc, #-841]	; 1c77 <_Min_Stack_Size+0x1877>
    1fbc:	36495458 			; <UNDEFINED> instruction: 0x36495458
    1fc0:	204e455f 	subcs	r4, lr, pc, asr r5
    1fc4:	49564e28 	ldmdbmi	r6, {r3, r5, r9, sl, fp, lr}^
    1fc8:	53495f43 	movtpl	r5, #40771	; 0x9f43
    1fcc:	7c305245 	lfmvc	f5, 4, [r0], #-276	; 0xfffffeec
    1fd0:	3c31283d 	ldccc	8, cr2, [r1], #-244	; 0xffffff0c
    1fd4:	5458453c 	ldrbpl	r4, [r8], #-1340	; 0xfffffac4
    1fd8:	52495f36 	subpl	r5, r9, #54, 30	; 0xd8
    1fdc:	00292951 	eoreq	r2, r9, r1, asr r9
    1fe0:	4e495f5f 	mcrmi	15, 2, r5, cr9, cr15, {2}
    1fe4:	454c5f54 	strbmi	r5, [ip, #-3924]	; 0xfffff0ac
    1fe8:	38545341 	ldmdacc	r4, {r0, r6, r8, r9, ip, lr}^
    1fec:	58414d5f 	stmdapl	r1, {r0, r1, r2, r3, r4, r6, r8, sl, fp, lr}^
    1ff0:	30205f5f 	eorcc	r5, r0, pc, asr pc
    1ff4:	00663778 	rsbeq	r3, r6, r8, ror r7
    1ff8:	43475f5f 	movtmi	r5, #32607	; 0x7f5f
    1ffc:	54415f43 	strbpl	r5, [r1], #-3907	; 0xfffff0bd
    2000:	43494d4f 	movtmi	r4, #40271	; 0x9d4f
    2004:	494f505f 	stmdbmi	pc, {r0, r1, r2, r3, r4, r6, ip, lr}^	; <UNPREDICTABLE>
    2008:	5245544e 	subpl	r5, r5, #1308622848	; 0x4e000000
    200c:	434f4c5f 	movtmi	r4, #64607	; 0xfc5f
    2010:	52465f4b 	subpl	r5, r6, #300	; 0x12c
    2014:	32204545 	eorcc	r4, r0, #289406976	; 0x11400000
    2018:	415f5f00 	cmpmi	pc, r0, lsl #30
    201c:	465f4d52 			; <UNDEFINED> instruction: 0x465f4d52
    2020:	55544145 	ldrbpl	r4, [r4, #-325]	; 0xfffffebb
    2024:	515f4552 	cmppl	pc, r2, asr r5	; <UNPREDICTABLE>
    2028:	20544942 	subscs	r4, r4, r2, asr #18
    202c:	5f5f0031 	svcpl	0x005f0031
    2030:	5f4d5241 	svcpl	0x004d5241
    2034:	54414546 	strbpl	r4, [r1], #-1350	; 0xfffffaba
    2038:	5f455255 	svcpl	0x00455255
    203c:	205a4c43 	subscs	r4, sl, r3, asr #24
    2040:	4e490031 	mcrmi	0, 2, r0, cr9, cr1, {1}
    2044:	5f323354 	svcpl	0x00323354
    2048:	204e494d 	subcs	r4, lr, sp, asr #18
    204c:	5f5f2d28 	svcpl	0x005f2d28
    2050:	33544e49 	cmpcc	r4, #1168	; 0x490
    2054:	414d5f32 	cmpmi	sp, r2, lsr pc
    2058:	205f5f58 	subscs	r5, pc, r8, asr pc	; <UNPREDICTABLE>
    205c:	2931202d 	ldmdbcs	r1!, {r0, r2, r3, r5, sp}
    2060:	415f5f00 	cmpmi	pc, r0, lsl #30
    2064:	465f4d52 			; <UNDEFINED> instruction: 0x465f4d52
    2068:	55544145 	ldrbpl	r4, [r4, #-325]	; 0xfffffebb
    206c:	435f4552 	cmpmi	pc, #343932928	; 0x14800000
    2070:	4c504d4f 	mrrcmi	13, 4, r4, r0, cr15
    2074:	47005845 	strmi	r5, [r0, -r5, asr #16]
    2078:	464f4950 			; <UNDEFINED> instruction: 0x464f4950
    207c:	47282820 	strmi	r2, [r8, -r0, lsr #16]!
    2080:	784f4950 	stmdavc	pc, {r4, r6, r8, fp, lr}^	; <UNPREDICTABLE>
    2084:	4745525f 	smlsldmi	r5, r5, pc, r2	; <UNPREDICTABLE>
    2088:	20292a20 	eorcs	r2, r9, r0, lsr #20
    208c:	4f495047 	svcmi	0x00495047
    2090:	41425f46 	cmpmi	r2, r6, asr #30
    2094:	00294553 	eoreq	r4, r9, r3, asr r5
    2098:	544e495f 	strbpl	r4, [lr], #-2399	; 0xfffff6a1
    209c:	5f525450 	svcpl	0x00525450
    20a0:	495f5145 	ldmdbmi	pc, {r0, r2, r6, r8, ip, lr}^	; <UNPREDICTABLE>
    20a4:	0020544e 	eoreq	r5, r0, lr, asr #8
    20a8:	52415f5f 	subpl	r5, r1, #380	; 0x17c
    20ac:	49535f4d 	ldmdbmi	r3, {r0, r2, r3, r6, r8, r9, sl, fp, ip, lr}^
    20b0:	464f455a 			; <UNDEFINED> instruction: 0x464f455a
    20b4:	4843575f 	stmdami	r3, {r0, r1, r2, r3, r4, r6, r8, r9, sl, ip, lr}^
    20b8:	545f5241 	ldrbpl	r5, [pc], #-577	; 20c0 <_Min_Stack_Size+0x1cc0>
    20bc:	5f003420 	svcpl	0x00003420
    20c0:	544c465f 	strbpl	r4, [ip], #-1631	; 0xfffff9a1
    20c4:	5f583233 	svcpl	0x00583233
    20c8:	5f58414d 	svcpl	0x0058414d
    20cc:	5f505845 	svcpl	0x00505845
    20d0:	3031205f 	eorscc	r2, r1, pc, asr r0
    20d4:	5f003432 	svcpl	0x00003432
    20d8:	4e49555f 	mcrmi	5, 2, r5, cr9, cr15, {2}
    20dc:	454c5f54 	strbmi	r5, [ip, #-3924]	; 0xfffff0ac
    20e0:	33545341 	cmpcc	r4, #67108865	; 0x4000001
    20e4:	414d5f32 	cmpmi	sp, r2, lsr pc
    20e8:	205f5f58 	subscs	r5, pc, r8, asr pc	; <UNPREDICTABLE>
    20ec:	66667830 			; <UNDEFINED> instruction: 0x66667830
    20f0:	66666666 	strbtvs	r6, [r6], -r6, ror #12
    20f4:	4c556666 	mrrcmi	6, 6, r6, r5, cr6
    20f8:	445f5f00 	ldrbmi	r5, [pc], #-3840	; 2100 <_Min_Stack_Size+0x1d00>
    20fc:	455f4c42 	ldrbmi	r4, [pc, #-3138]	; 14c2 <_Min_Stack_Size+0x10c2>
    2100:	4c495350 	mcrrmi	3, 5, r5, r9, cr0
    2104:	5f5f4e4f 	svcpl	0x005f4e4f
    2108:	64282820 	strtvs	r2, [r8], #-2080	; 0xfffff7e0
    210c:	6c62756f 	cfstr64vs	mvdx7, [r2], #-444	; 0xfffffe44
    2110:	2e322965 	vsubcs.f16	s4, s4, s11	; <UNPREDICTABLE>
    2114:	34303232 	ldrtcc	r3, [r0], #-562	; 0xfffffdce
    2118:	34303634 	ldrtcc	r3, [r0], #-1588	; 0xfffff9cc
    211c:	30353239 	eorscc	r3, r5, r9, lsr r2
    2120:	31333133 	teqcc	r3, r3, lsr r1
    2124:	36312d65 	ldrtcc	r2, [r1], -r5, ror #26
    2128:	5f00294c 	svcpl	0x0000294c
    212c:	52464c5f 	subpl	r4, r6, #24320	; 0x5f00
    2130:	5f544341 	svcpl	0x00544341
    2134:	5f4e494d 	svcpl	0x004e494d
    2138:	2d28205f 	stccs	0, cr2, [r8, #-380]!	; 0xfffffe84
    213c:	4c352e30 	ldcmi	14, cr2, [r5], #-192	; 0xffffff40
    2140:	2e302d52 	mrccs	13, 1, r2, cr0, cr2, {2}
    2144:	29524c35 	ldmdbcs	r2, {r0, r2, r4, r5, sl, fp, lr}^
    2148:	49564e00 	ldmdbmi	r6, {r9, sl, fp, lr}^
    214c:	58455f43 	stmdapl	r5, {r0, r1, r6, r8, r9, sl, fp, ip, lr}^
    2150:	5f354954 	svcpl	0x00354954
    2154:	4e282044 	cdpmi	0, 2, cr2, cr8, cr4, {2}
    2158:	5f434956 	svcpl	0x00434956
    215c:	52455349 	subpl	r5, r5, #603979777	; 0x24000001
    2160:	7e3d2630 	mrcvc	6, 1, r2, cr13, cr0, {1}
    2164:	3c3c3128 	ldfccs	f3, [ip], #-160	; 0xffffff60
    2168:	35545845 	ldrbcc	r5, [r4, #-2117]	; 0xfffff7bb
    216c:	5152495f 	cmppl	r2, pc, asr r9
    2170:	5f002929 	svcpl	0x00002929
    2174:	544e495f 	strbpl	r4, [lr], #-2399	; 0xfffff6a1
    2178:	41454c5f 	cmpmi	r5, pc, asr ip
    217c:	34365453 	ldrtcc	r5, [r6], #-1107	; 0xfffffbad
    2180:	4449575f 	strbmi	r5, [r9], #-1887	; 0xfffff8a1
    2184:	5f5f4854 	svcpl	0x005f4854
    2188:	00343620 	eorseq	r3, r4, r0, lsr #12
    218c:	4c465f5f 	mcrrmi	15, 5, r5, r6, cr15
    2190:	41485f54 	cmpmi	r8, r4, asr pc
    2194:	4e495f53 	mcrmi	15, 2, r5, cr9, cr3, {2}
    2198:	494e4946 	stmdbmi	lr, {r1, r2, r6, r8, fp, lr}^
    219c:	5f5f5954 	svcpl	0x005f5954
    21a0:	45003120 	strmi	r3, [r0, #-288]	; 0xfffffee0
    21a4:	32315458 	eorscc	r5, r1, #88, 8	; 0x58000000
    21a8:	5152495f 	cmppl	r2, pc, asr r9
    21ac:	00303420 	eorseq	r3, r0, r0, lsr #8
    21b0:	43415f5f 	movtmi	r5, #8031	; 0x1f5f
    21b4:	5f4d5543 	svcpl	0x004d5543
    21b8:	5f58414d 	svcpl	0x0058414d
    21bc:	5830205f 	ldmdapl	r0!, {r0, r1, r2, r3, r4, r6, sp}
    21c0:	46464637 			; <UNDEFINED> instruction: 0x46464637
    21c4:	46464646 	strbmi	r4, [r6], -r6, asr #12
    21c8:	35312d50 	ldrcc	r2, [r1, #-3408]!	; 0xfffff2b0
    21cc:	5f5f004b 	svcpl	0x005f004b
    21d0:	38544e49 	ldmdacc	r4, {r0, r3, r6, r9, sl, fp, lr}^
    21d4:	58414d5f 	stmdapl	r1, {r0, r1, r2, r3, r4, r6, r8, sl, fp, lr}^
    21d8:	30205f5f 	eorcc	r5, r0, pc, asr pc
    21dc:	00663778 	rsbeq	r3, r6, r8, ror r7
    21e0:	4349564e 	movtmi	r5, #38478	; 0x964e
    21e4:	5458455f 	ldrbpl	r4, [r8], #-1375	; 0xfffffaa1
    21e8:	455f3149 	ldrbmi	r3, [pc, #-329]	; 20a7 <_Min_Stack_Size+0x1ca7>
    21ec:	4e28204e 	cdpmi	0, 2, cr2, cr8, cr14, {2}
    21f0:	5f434956 	svcpl	0x00434956
    21f4:	52455349 	subpl	r5, r5, #603979777	; 0x24000001
    21f8:	283d7c30 	ldmdacs	sp!, {r4, r5, sl, fp, ip, sp, lr}
    21fc:	453c3c31 	ldrmi	r3, [ip, #-3121]!	; 0xfffff3cf
    2200:	5f315458 	svcpl	0x00315458
    2204:	29515249 	ldmdbcs	r1, {r0, r3, r6, r9, ip, lr}^
    2208:	5f5f0029 	svcpl	0x005f0029
    220c:	5f434347 	svcpl	0x00434347
    2210:	45564148 	ldrbmi	r4, [r6, #-328]	; 0xfffffeb8
    2214:	4157445f 	cmpmi	r7, pc, asr r4
    2218:	5f324652 	svcpl	0x00324652
    221c:	5f494643 	svcpl	0x00494643
    2220:	204d5341 	subcs	r5, sp, r1, asr #6
    2224:	5f5f0031 	svcpl	0x005f0031
    2228:	746e695f 	strbtvc	r6, [lr], #-2399	; 0xfffff6a1
    222c:	5f745f38 	svcpl	0x00745f38
    2230:	69666564 	stmdbvs	r6!, {r2, r5, r6, r8, sl, sp, lr}^
    2234:	2064656e 	rsbcs	r6, r4, lr, ror #10
    2238:	5f5f0031 	svcpl	0x005f0031
    223c:	41524653 	cmpmi	r2, r3, asr r6
    2240:	4d5f5443 	cfldrdmi	mvd5, [pc, #-268]	; 213c <_Min_Stack_Size+0x1d3c>
    2244:	5f5f4e49 	svcpl	0x005f4e49
    2248:	302d2820 	eorcc	r2, sp, r0, lsr #16
    224c:	5248352e 	subpl	r3, r8, #192937984	; 0xb800000
    2250:	352e302d 	strcc	r3, [lr, #-45]!	; 0xffffffd3
    2254:	00295248 	eoreq	r5, r9, r8, asr #4
    2258:	41535f5f 	cmpmi	r3, pc, asr pc
    225c:	4942495f 	stmdbmi	r2, {r0, r1, r2, r3, r4, r6, r8, fp, lr}^
    2260:	205f5f54 	subscs	r5, pc, r4, asr pc	; <UNPREDICTABLE>
    2264:	5f003631 	svcpl	0x00003631
    2268:	4343475f 	movtmi	r4, #14175	; 0x375f
    226c:	4345495f 	movtmi	r4, #22879	; 0x595f
    2270:	3935355f 	ldmdbcc	r5!, {r0, r1, r2, r3, r4, r6, r8, sl, ip, sp}
    2274:	4d4f435f 	stclmi	3, cr4, [pc, #-380]	; 2100 <_Min_Stack_Size+0x1d00>
    2278:	58454c50 	stmdapl	r5, {r4, r6, sl, fp, lr}^
    227c:	5f003020 	svcpl	0x00003020
    2280:	4d52415f 	ldfmie	f4, [r2, #-380]	; 0xfffffe84
    2284:	4145465f 	cmpmi	r5, pc, asr r6
    2288:	45525554 	ldrbmi	r5, [r2, #-1364]	; 0xfffffaac
    228c:	45564d5f 	ldrbmi	r4, [r6, #-3423]	; 0xfffff2a1
    2290:	465f5f00 	ldrbmi	r5, [pc], -r0, lsl #30
    2294:	3233544c 	eorscc	r5, r3, #76, 8	; 0x4c000000
    2298:	414d5f58 	cmpmi	sp, r8, asr pc
    229c:	30315f58 	eorscc	r5, r1, r8, asr pc
    22a0:	5058455f 	subspl	r4, r8, pc, asr r5
    22a4:	33205f5f 			; <UNDEFINED> instruction: 0x33205f5f
    22a8:	5f003830 	svcpl	0x00003830
    22ac:	4d52415f 	ldfmie	f4, [r2, #-380]	; 0xfffffe84
    22b0:	3150465f 	cmpcc	r0, pc, asr r6
    22b4:	4f465f36 	svcmi	0x00465f36
    22b8:	54414d52 	strbpl	r4, [r1], #-3410	; 0xfffff2ae
    22bc:	4545495f 	strbmi	r4, [r5, #-2399]	; 0xfffff6a1
    22c0:	5f5f0045 	svcpl	0x005f0045
    22c4:	544e4955 	strbpl	r4, [lr], #-2389	; 0xfffff6ab
    22c8:	545f3631 	ldrbpl	r3, [pc], #-1585	; 22d0 <_Min_Stack_Size+0x1ed0>
    22cc:	5f455059 	svcpl	0x00455059
    22d0:	6873205f 	ldmdavs	r3!, {r0, r1, r2, r3, r4, r6, sp}^
    22d4:	2074726f 	rsbscs	r7, r4, pc, ror #4
    22d8:	69736e75 	ldmdbvs	r3!, {r0, r2, r4, r5, r6, r9, sl, fp, sp, lr}^
    22dc:	64656e67 	strbtvs	r6, [r5], #-3687	; 0xfffff199
    22e0:	746e6920 	strbtvc	r6, [lr], #-2336	; 0xfffff6e0
    22e4:	4f505f00 	svcmi	0x00505f00
    22e8:	5f584953 	svcpl	0x00584953
    22ec:	52554f53 	subspl	r4, r5, #332	; 0x14c
    22f0:	4e004543 	cfsh32mi	mvfx4, mvfx0, #35
    22f4:	5f434956 	svcpl	0x00434956
    22f8:	49545845 	ldmdbmi	r4, {r0, r2, r6, fp, ip, lr}^
    22fc:	445f3031 	ldrbmi	r3, [pc], #-49	; 2304 <_Min_Stack_Size+0x1f04>
    2300:	564e2820 	strbpl	r2, [lr], -r0, lsr #16
    2304:	495f4349 	ldmdbmi	pc, {r0, r3, r6, r8, r9, lr}^	; <UNPREDICTABLE>
    2308:	31524553 	cmpcc	r2, r3, asr r5
    230c:	287e3d26 	ldmdacs	lr!, {r1, r2, r5, r8, sl, fp, ip, sp}^
    2310:	383c3c31 	ldmdacc	ip!, {r0, r4, r5, sl, fp, ip, sp}
    2314:	5f002929 	svcpl	0x00002929
    2318:	464f535f 			; <UNDEFINED> instruction: 0x464f535f
    231c:	5f504654 	svcpl	0x00504654
    2320:	0031205f 	eorseq	r2, r1, pc, asr r0
    2324:	36545845 	ldrbcc	r5, [r4], -r5, asr #16
    2328:	5152495f 	cmppl	r2, pc, asr r9
    232c:	00333220 	eorseq	r3, r3, r0, lsr #4
    2330:	4c465f5f 	mcrrmi	15, 5, r5, r6, cr15
    2334:	56455f54 			; <UNDEFINED> instruction: 0x56455f54
    2338:	4d5f4c41 	ldclmi	12, cr4, [pc, #-260]	; 223c <_Min_Stack_Size+0x1e3c>
    233c:	4f485445 	svcmi	0x00485445
    2340:	53545f44 	cmppl	r4, #68, 30	; 0x110
    2344:	3638315f 			; <UNDEFINED> instruction: 0x3638315f
    2348:	335f3136 	cmpcc	pc, #-2147483635	; 0x8000000d
    234c:	30205f5f 	eorcc	r5, r0, pc, asr pc
    2350:	54564900 	ldrbpl	r4, [r6], #-2304	; 0xfffff700
    2354:	6d756e5f 	ldclvs	14, cr6, [r5, #-380]!	; 0xfffffe84
    2358:	746e6900 	strbtvc	r6, [lr], #-2304	; 0xfffff700
    235c:	00322b20 	eorseq	r2, r2, r0, lsr #22
    2360:	38544e49 	ldmdacc	r4, {r0, r3, r6, r9, sl, fp, lr}^
    2364:	7828435f 	stmdavc	r8!, {r0, r1, r2, r3, r4, r6, r8, r9, lr}
    2368:	5f5f2029 	svcpl	0x005f2029
    236c:	38544e49 	ldmdacc	r4, {r0, r3, r6, r9, sl, fp, lr}^
    2370:	7828435f 	stmdavc	r8!, {r0, r1, r2, r3, r4, r6, r8, r9, lr}
    2374:	58450029 	stmdapl	r5, {r0, r3, r5}^
    2378:	50353154 	eorspl	r3, r5, r4, asr r1
    237c:	20353141 	eorscs	r3, r5, r1, asr #2
    2380:	49504728 	ldmdbmi	r0, {r3, r5, r8, r9, sl, lr}^
    2384:	4f435f4f 	svcmi	0x00435f4f
    2388:	4749464e 	strbmi	r4, [r9, -lr, asr #12]
    238c:	7b29745f 	blvc	a5f510 <_Min_Stack_Size+0xa5f110>
    2390:	49545845 	ldmdbmi	r4, {r0, r2, r6, fp, ip, lr}^
    2394:	472c3531 			; <UNDEFINED> instruction: 0x472c3531
    2398:	414f4950 	cmpmi	pc, r0, asr r9	; <UNPREDICTABLE>
    239c:	4e49502c 	cdpmi	0, 4, cr5, cr9, cr12, {1}
    23a0:	2c35315f 	ldfcss	f3, [r5], #-380	; 0xfffffe84
    23a4:	31545845 	cmpcc	r4, r5, asr #16
    23a8:	52495f35 	subpl	r5, r9, #53, 30	; 0xd4
    23ac:	5f007d51 	svcpl	0x00007d51
    23b0:	4e49555f 	mcrmi	5, 2, r5, cr9, cr15, {2}
    23b4:	41465f54 	cmpmi	r6, r4, asr pc
    23b8:	5f385453 	svcpl	0x00385453
    23bc:	45505954 	ldrbmi	r5, [r0, #-2388]	; 0xfffff6ac
    23c0:	75205f5f 	strvc	r5, [r0, #-3935]!	; 0xfffff0a1
    23c4:	6769736e 	strbvs	r7, [r9, -lr, ror #6]!
    23c8:	2064656e 	rsbcs	r6, r4, lr, ror #10
    23cc:	00746e69 	rsbseq	r6, r4, r9, ror #28
    23d0:	4c4c5f5f 	mcrrmi	15, 5, r5, ip, cr15
    23d4:	55434341 	strbpl	r4, [r3, #-833]	; 0xfffffcbf
    23d8:	42495f4d 	submi	r5, r9, #308	; 0x134
    23dc:	5f5f5449 	svcpl	0x005f5449
    23e0:	00323320 	eorseq	r3, r2, r0, lsr #6
    23e4:	52465f5f 	subpl	r5, r6, #380	; 0x17c
    23e8:	5f544341 	svcpl	0x00544341
    23ec:	49535045 	ldmdbmi	r3, {r0, r2, r6, ip, lr}^
    23f0:	5f4e4f4c 	svcpl	0x004e4f4c
    23f4:	7830205f 	ldmdavc	r0!, {r0, r1, r2, r3, r4, r6, sp}
    23f8:	312d5031 			; <UNDEFINED> instruction: 0x312d5031
    23fc:	4e005235 	mcrmi	2, 0, r5, cr0, cr5, {1}
    2400:	5f434956 	svcpl	0x00434956
    2404:	49545845 	ldmdbmi	r4, {r0, r2, r6, fp, ip, lr}^
    2408:	455f3031 	ldrbmi	r3, [pc, #-49]	; 23df <_Min_Stack_Size+0x1fdf>
    240c:	4e28204e 	cdpmi	0, 2, cr2, cr8, cr14, {2}
    2410:	5f434956 	svcpl	0x00434956
    2414:	52455349 	subpl	r5, r5, #603979777	; 0x24000001
    2418:	283d7c31 	ldmdacs	sp!, {r0, r4, r5, sl, fp, ip, sp, lr}
    241c:	383c3c31 	ldmdacc	ip!, {r0, r4, r5, sl, fp, ip, sp}
    2420:	5f002929 	svcpl	0x00002929
    2424:	544e495f 	strbpl	r4, [lr], #-2399	; 0xfffff6a1
    2428:	4d5f3233 	lfmmi	f3, 2, [pc, #-204]	; 2364 <_Min_Stack_Size+0x1f64>
    242c:	5f5f5841 	svcpl	0x005f5841
    2430:	37783020 	ldrbcc	r3, [r8, -r0, lsr #32]!
    2434:	66666666 	strbtvs	r6, [r6], -r6, ror #12
    2438:	4c666666 	stclmi	6, cr6, [r6], #-408	; 0xfffffe68
    243c:	4c5f5f00 	mrrcmi	15, 0, r5, pc, cr0	; <UNPREDICTABLE>
    2440:	54534145 	ldrbpl	r4, [r3], #-325	; 0xfffffebb
    2444:	68222038 	stmdavs	r2!, {r3, r4, r5, sp}
    2448:	5f002268 	svcpl	0x00002268
    244c:	544e495f 	strbpl	r4, [lr], #-2399	; 0xfffff6a1
    2450:	41454c5f 	cmpmi	r5, pc, asr ip
    2454:	34365453 	ldrtcc	r5, [r6], #-1107	; 0xfffffbad
    2458:	58414d5f 	stmdapl	r1, {r0, r1, r2, r3, r4, r6, r8, sl, fp, lr}^
    245c:	30205f5f 	eorcc	r5, r0, pc, asr pc
    2460:	66663778 			; <UNDEFINED> instruction: 0x66663778
    2464:	66666666 	strbtvs	r6, [r6], -r6, ror #12
    2468:	66666666 	strbtvs	r6, [r6], -r6, ror #12
    246c:	66666666 	strbtvs	r6, [r6], -r6, ror #12
    2470:	004c4c66 	subeq	r4, ip, r6, ror #24
    2474:	50415f5f 	subpl	r5, r1, pc, asr pc
    2478:	335f5343 	cmpcc	pc, #201326593	; 0xc000001
    247c:	205f5f32 	subscs	r5, pc, r2, lsr pc	; <UNPREDICTABLE>
    2480:	5f5f0031 	svcpl	0x005f0031
    2484:	5f4d5241 	svcpl	0x004d5241
    2488:	54414546 	strbpl	r4, [r1], #-1350	; 0xfffffaba
    248c:	5f455255 	svcpl	0x00455255
    2490:	36314642 	ldrtcc	r4, [r1], -r2, asr #12
    2494:	4345565f 	movtmi	r5, #22111	; 0x565f
    2498:	5f524f54 	svcpl	0x00524f54
    249c:	54495241 	strbpl	r5, [r9], #-577	; 0xfffffdbf
    24a0:	54454d48 	strbpl	r4, [r5], #-3400	; 0xfffff2b8
    24a4:	45004349 	strmi	r4, [r0, #-841]	; 0xfffffcb7
    24a8:	00495458 	subeq	r5, r9, r8, asr r4
    24ac:	4645445f 			; <UNDEFINED> instruction: 0x4645445f
    24b0:	544c5541 	strbpl	r5, [ip], #-1345	; 0xfffffabf
    24b4:	554f535f 	strbpl	r5, [pc, #-863]	; 215d <_Min_Stack_Size+0x1d5d>
    24b8:	20454352 	subcs	r4, r5, r2, asr r3
    24bc:	564e0031 			; <UNDEFINED> instruction: 0x564e0031
    24c0:	455f4349 	ldrbmi	r4, [pc, #-841]	; 217f <_Min_Stack_Size+0x1d7f>
    24c4:	31495458 	cmpcc	r9, r8, asr r4
    24c8:	20445f34 	subcs	r5, r4, r4, lsr pc
    24cc:	49564e28 	ldmdbmi	r6, {r3, r5, r9, sl, fp, lr}^
    24d0:	53495f43 	movtpl	r5, #40771	; 0x9f43
    24d4:	26315245 	ldrtcs	r5, [r1], -r5, asr #4
    24d8:	31287e3d 			; <UNDEFINED> instruction: 0x31287e3d
    24dc:	29383c3c 	ldmdbcs	r8!, {r2, r3, r4, r5, sl, fp, ip, sp}
    24e0:	5f5f0029 	svcpl	0x005f0029
    24e4:	33544c46 	cmpcc	r4, #17920	; 0x4600
    24e8:	414d5f32 	cmpmi	sp, r2, lsr pc
    24ec:	445f544e 	ldrbmi	r5, [pc], #-1102	; 24f4 <_Min_Stack_Size+0x20f4>
    24f0:	5f5f4749 	svcpl	0x005f4749
    24f4:	00343220 	eorseq	r3, r4, r0, lsr #4
    24f8:	4c465f5f 	mcrrmi	15, 5, r5, r6, cr15
    24fc:	5f323354 	svcpl	0x00323354
    2500:	4f4e4544 	svcmi	0x004e4544
    2504:	4d5f4d52 	ldclmi	13, cr4, [pc, #-328]	; 23c4 <_Min_Stack_Size+0x1fc4>
    2508:	5f5f4e49 	svcpl	0x005f4e49
    250c:	342e3120 	strtcc	r3, [lr], #-288	; 0xfffffee0
    2510:	39323130 	ldmdbcc	r2!, {r4, r5, r8, ip, sp}
    2514:	34363438 	ldrtcc	r3, [r6], #-1080	; 0xfffffbc8
    2518:	38343233 	ldmdacc	r4!, {r0, r1, r4, r5, r9, ip, sp}
    251c:	65313731 	ldrvs	r3, [r1, #-1841]!	; 0xfffff8cf
    2520:	4635342d 	ldrtmi	r3, [r5], -sp, lsr #8
    2524:	5f003233 	svcpl	0x00003233
    2528:	4e49555f 	mcrmi	5, 2, r5, cr9, cr15, {2}
    252c:	5f343654 	svcpl	0x00343654
    2530:	29632843 	stmdbcs	r3!, {r0, r1, r6, fp, sp}^
    2534:	23206320 			; <UNDEFINED> instruction: 0x23206320
    2538:	4c552023 	mrrcmi	0, 2, r2, r5, cr3
    253c:	5f5f004c 	svcpl	0x005f004c
    2540:	544e4955 	strbpl	r4, [lr], #-2389	; 0xfffff6ab
    2544:	41454c5f 	cmpmi	r5, pc, asr ip
    2548:	34365453 	ldrtcc	r5, [r6], #-1107	; 0xfffffbad
    254c:	5059545f 	subspl	r5, r9, pc, asr r4
    2550:	205f5f45 	subscs	r5, pc, r5, asr #30
    2554:	676e6f6c 	strbvs	r6, [lr, -ip, ror #30]!
    2558:	6e6f6c20 	cdpvs	12, 6, cr6, cr15, cr0, {1}
    255c:	6e752067 	cdpvs	0, 7, cr2, cr5, cr7, {3}
    2560:	6e676973 			; <UNDEFINED> instruction: 0x6e676973
    2564:	69206465 	stmdbvs	r0!, {r0, r2, r5, r6, sl, sp, lr}
    2568:	5f00746e 	svcpl	0x0000746e
    256c:	4653555f 			; <UNDEFINED> instruction: 0x4653555f
    2570:	54434152 	strbpl	r4, [r3], #-338	; 0xfffffeae
    2574:	4942465f 	stmdbmi	r2, {r0, r1, r2, r3, r4, r6, r9, sl, lr}^
    2578:	205f5f54 	subscs	r5, pc, r4, asr pc	; <UNPREDICTABLE>
    257c:	5f5f0038 	svcpl	0x005f0038
    2580:	4c42444c 	cfstrdmi	mvd4, [r2], {76}	; 0x4c
    2584:	5350455f 	cmppl	r0, #398458880	; 0x17c00000
    2588:	4e4f4c49 	cdpmi	12, 4, cr4, cr15, cr9, {2}
    258c:	32205f5f 	eorcc	r5, r0, #380	; 0x17c
    2590:	3032322e 	eorscc	r3, r2, lr, lsr #4
    2594:	30363434 	eorscc	r3, r6, r4, lsr r4
    2598:	35323934 	ldrcc	r3, [r2, #-2356]!	; 0xfffff6cc
    259c:	33313330 	teqcc	r1, #48, 6	; 0xc0000000
    25a0:	312d6531 			; <UNDEFINED> instruction: 0x312d6531
    25a4:	5f004c36 	svcpl	0x00004c36
    25a8:	4343475f 	movtmi	r4, #14175	; 0x375f
    25ac:	4f54415f 	svcmi	0x0054415f
    25b0:	5f43494d 	svcpl	0x0043494d
    25b4:	52414843 	subpl	r4, r1, #4390912	; 0x430000
    25b8:	545f3631 	ldrbpl	r3, [pc], #-1585	; 25c0 <_Min_Stack_Size+0x21c0>
    25bc:	434f4c5f 	movtmi	r4, #64607	; 0xfc5f
    25c0:	52465f4b 	subpl	r5, r6, #300	; 0x12c
    25c4:	32204545 	eorcc	r4, r0, #289406976	; 0x11400000
    25c8:	4b434c00 	blmi	10d55d0 <_Min_Stack_Size+0x10d51d0>
    25cc:	5f5f0052 	svcpl	0x005f0052
    25d0:	5f4c4244 	svcpl	0x004c4244
    25d4:	5f58414d 	svcpl	0x0058414d
    25d8:	5f505845 	svcpl	0x00505845
    25dc:	3031205f 	eorscc	r2, r1, pc, asr r0
    25e0:	5f003432 	svcpl	0x00003432
    25e4:	5341465f 	movtpl	r4, #5727	; 0x165f
    25e8:	20343654 	eorscs	r3, r4, r4, asr r6
    25ec:	226c6c22 	rsbcs	r6, ip, #8704	; 0x2200
    25f0:	415f5f00 	cmpmi	pc, r0, lsl #30
    25f4:	494d4f54 	stmdbmi	sp, {r2, r4, r6, r8, r9, sl, fp, lr}^
    25f8:	45525f43 	ldrbmi	r5, [r2, #-3907]	; 0xfffff0bd
    25fc:	5341454c 	movtpl	r4, #5452	; 0x154c
    2600:	00332045 	eorseq	r2, r3, r5, asr #32
    2604:	69736e75 	ldmdbvs	r3!, {r0, r2, r4, r5, r6, r9, sl, fp, sp, lr}^
    2608:	64656e67 	strbtvs	r6, [r5], #-3687	; 0xfffff199
    260c:	00302b20 	eorseq	r2, r0, r0, lsr #22
    2610:	4c465f5f 	mcrrmi	15, 5, r5, r6, cr15
    2614:	58323354 	ldmdapl	r2!, {r2, r4, r6, r8, r9, ip, sp}
    2618:	5341485f 	movtpl	r4, #6239	; 0x185f
    261c:	4e45445f 	mcrmi	4, 2, r4, cr5, cr15, {2}
    2620:	5f4d524f 	svcpl	0x004d524f
    2624:	0031205f 	eorseq	r2, r1, pc, asr r0
    2628:	4c465f5f 	mcrrmi	15, 5, r5, r6, cr15
    262c:	414d5f54 	cmpmi	sp, r4, asr pc
    2630:	445f544e 	ldrbmi	r5, [pc], #-1102	; 2638 <_Min_Stack_Size+0x2238>
    2634:	5f5f4749 	svcpl	0x005f4749
    2638:	00343220 	eorseq	r3, r4, r0, lsr #4
    263c:	4e475f5f 	mcrmi	15, 2, r5, cr7, cr15, {2}
    2640:	505f4355 	subspl	r4, pc, r5, asr r3	; <UNPREDICTABLE>
    2644:	48435441 	stmdami	r3, {r0, r6, sl, ip, lr}^
    2648:	4556454c 	ldrbmi	r4, [r6, #-1356]	; 0xfffffab4
    264c:	205f5f4c 	subscs	r5, pc, ip, asr #30
    2650:	5f5f0031 	svcpl	0x005f0031
    2654:	5f514455 	svcpl	0x00514455
    2658:	54494249 	strbpl	r4, [r9], #-585	; 0xfffffdb7
    265c:	30205f5f 	eorcc	r5, r0, pc, asr pc
    2660:	555f5f00 	ldrbpl	r5, [pc, #-3840]	; 1768 <_Min_Stack_Size+0x1368>
    2664:	55434341 	strbpl	r4, [r3, #-833]	; 0xfffffcbf
    2668:	414d5f4d 	cmpmi	sp, sp, asr #30
    266c:	205f5f58 	subscs	r5, pc, r8, asr pc	; <UNPREDICTABLE>
    2670:	46465830 			; <UNDEFINED> instruction: 0x46465830
    2674:	46464646 	strbmi	r4, [r6], -r6, asr #12
    2678:	2d504646 	ldclcs	6, cr4, [r0, #-280]	; 0xfffffee8
    267c:	4b553631 	blmi	154ff48 <_Min_Stack_Size+0x154fb48>
    2680:	4e495f00 	cdpmi	15, 4, cr5, cr9, cr0, {0}
    2684:	5f323354 	svcpl	0x00323354
    2688:	45445f54 	strbmi	r5, [r4, #-3924]	; 0xfffff0ac
    268c:	52414c43 	subpl	r4, r1, #17152	; 0x4300
    2690:	00204445 	eoreq	r4, r0, r5, asr #8
    2694:	4c465f5f 	mcrrmi	15, 5, r5, r6, cr15
    2698:	5f343654 	svcpl	0x00343654
    269c:	4d524f4e 	ldclmi	15, cr4, [r2, #-312]	; 0xfffffec8
    26a0:	58414d5f 	stmdapl	r1, {r0, r1, r2, r3, r4, r6, r8, sl, fp, lr}^
    26a4:	31205f5f 			; <UNDEFINED> instruction: 0x31205f5f
    26a8:	3739372e 	ldrcc	r3, [r9, -lr, lsr #14]!
    26ac:	31333936 	teqcc	r3, r6, lsr r9
    26b0:	36383433 			; <UNDEFINED> instruction: 0x36383433
    26b4:	35313332 	ldrcc	r3, [r1, #-818]!	; 0xfffffcce
    26b8:	332b6537 			; <UNDEFINED> instruction: 0x332b6537
    26bc:	36463830 			; <UNDEFINED> instruction: 0x36463830
    26c0:	564e0034 			; <UNDEFINED> instruction: 0x564e0034
    26c4:	455f4349 	ldrbmi	r4, [pc, #-841]	; 2383 <_Min_Stack_Size+0x1f83>
    26c8:	32495458 	subcc	r5, r9, #88, 8	; 0x58000000
    26cc:	2820445f 	stmdacs	r0!, {r0, r1, r2, r3, r4, r6, sl, lr}
    26d0:	4349564e 	movtmi	r5, #38478	; 0x964e
    26d4:	4553495f 	ldrbmi	r4, [r3, #-2399]	; 0xfffff6a1
    26d8:	3d263052 	stccc	0, cr3, [r6, #-328]!	; 0xfffffeb8
    26dc:	3c31287e 	ldccc	8, cr2, [r1], #-504	; 0xfffffe08
    26e0:	5458453c 	ldrbpl	r4, [r8], #-1340	; 0xfffffac4
    26e4:	52495f32 	subpl	r5, r9, #50, 30	; 0xc8
    26e8:	00292951 	eoreq	r2, r9, r1, asr r9
    26ec:	41465f5f 	cmpmi	r6, pc, asr pc
    26f0:	32335453 	eorscc	r5, r3, #1392508928	; 0x53000000
    26f4:	5f5f0020 	svcpl	0x005f0020
    26f8:	32746e69 	rsbscc	r6, r4, #1680	; 0x690
    26fc:	322b2030 	eorcc	r2, fp, #48	; 0x30
    2700:	54584500 	ldrbpl	r4, [r8], #-1280	; 0xfffffb00
    2704:	43503131 	cmpmi	r0, #1073741836	; 0x4000000c
    2708:	28203131 	stmdacs	r0!, {r0, r4, r5, r8, ip, sp}
    270c:	4f495047 	svcmi	0x00495047
    2710:	4e4f435f 	mcrmi	3, 2, r4, cr15, cr15, {2}
    2714:	5f474946 	svcpl	0x00474946
    2718:	457b2974 	ldrbmi	r2, [fp, #-2420]!	; 0xfffff68c
    271c:	31495458 	cmpcc	r9, r8, asr r4
    2720:	50472c31 	subpl	r2, r7, r1, lsr ip
    2724:	2c434f49 	mcrrcs	15, 4, r4, r3, cr9
    2728:	5f4e4950 	svcpl	0x004e4950
    272c:	452c3131 	strmi	r3, [ip, #-305]!	; 0xfffffecf
    2730:	31315458 	teqcc	r1, r8, asr r4
    2734:	5152495f 	cmppl	r2, pc, asr r9
    2738:	5f5f007d 	svcpl	0x005f007d
    273c:	4c42444c 	cfstrdmi	mvd4, [r2], {76}	; 0x4c
    2740:	4e45445f 	mcrmi	4, 2, r4, cr5, cr15, {2}
    2744:	5f4d524f 	svcpl	0x004d524f
    2748:	5f4e494d 	svcpl	0x004e494d
    274c:	2e34205f 	mrccs	0, 1, r2, cr4, cr15, {2}
    2750:	36303439 			; <UNDEFINED> instruction: 0x36303439
    2754:	35343635 	ldrcc	r3, [r4, #-1589]!	; 0xfffff9cb
    2758:	32313438 	eorscc	r3, r1, #56, 8	; 0x38000000
    275c:	34353634 	ldrtcc	r3, [r5], #-1588	; 0xfffff9cc
    2760:	32332d65 	eorscc	r2, r3, #6464	; 0x1940
    2764:	5f004c34 	svcpl	0x00004c34
    2768:	544e495f 	strbpl	r4, [lr], #-2399	; 0xfffff6a1
    276c:	4d5f3436 	cfldrdmi	mvd3, [pc, #-216]	; 269c <_Min_Stack_Size+0x229c>
    2770:	5f5f5841 	svcpl	0x005f5841
    2774:	37783020 	ldrbcc	r3, [r8, -r0, lsr #32]!
    2778:	66666666 	strbtvs	r6, [r6], -r6, ror #12
    277c:	66666666 	strbtvs	r6, [r6], -r6, ror #12
    2780:	66666666 	strbtvs	r6, [r6], -r6, ror #12
    2784:	4c666666 	stclmi	6, cr6, [r6], #-408	; 0xfffffe68
    2788:	5f5f004c 	svcpl	0x005f004c
    278c:	5f4d5241 	svcpl	0x004d5241
    2790:	54414546 	strbpl	r4, [r1], #-1350	; 0xfffffaba
    2794:	5f455255 	svcpl	0x00455255
    2798:	20544153 	subscs	r4, r4, r3, asr r1
    279c:	564e0031 			; <UNDEFINED> instruction: 0x564e0031
    27a0:	455f4349 	ldrbmi	r4, [pc, #-841]	; 245f <_Min_Stack_Size+0x205f>
    27a4:	39495458 	stmdbcc	r9, {r3, r4, r6, sl, ip, lr}^
    27a8:	2820445f 	stmdacs	r0!, {r0, r1, r2, r3, r4, r6, sl, lr}
    27ac:	4349564e 	movtmi	r5, #38478	; 0x964e
    27b0:	4553495f 	ldrbmi	r4, [r3, #-2399]	; 0xfffff6a1
    27b4:	3d263052 	stccc	0, cr3, [r6, #-328]!	; 0xfffffeb8
    27b8:	3c31287e 	ldccc	8, cr2, [r1], #-504	; 0xfffffe08
    27bc:	5458453c 	ldrbpl	r4, [r8], #-1340	; 0xfffffac4
    27c0:	52495f39 	subpl	r5, r9, #57, 30	; 0xe4
    27c4:	00292951 	eoreq	r2, r9, r1, asr r9
    27c8:	4c555f5f 	mrrcmi	15, 5, r5, r5, cr15	; <UNPREDICTABLE>
    27cc:	4152464c 	cmpmi	r2, ip, asr #12
    27d0:	495f5443 	ldmdbmi	pc, {r0, r1, r6, sl, ip, lr}^	; <UNPREDICTABLE>
    27d4:	5f544942 	svcpl	0x00544942
    27d8:	0030205f 	eorseq	r2, r0, pc, asr r0
    27dc:	4f494641 	svcmi	0x00494641
    27e0:	45525f78 	ldrbmi	r5, [r2, #-3960]	; 0xfffff088
    27e4:	58450047 	stmdapl	r5, {r0, r1, r2, r6}^
    27e8:	43503854 	cmpmi	r0, #84, 16	; 0x540000
    27ec:	47282038 			; <UNDEFINED> instruction: 0x47282038
    27f0:	5f4f4950 	svcpl	0x004f4950
    27f4:	464e4f43 	strbmi	r4, [lr], -r3, asr #30
    27f8:	745f4749 	ldrbvc	r4, [pc], #-1865	; 2800 <_Min_Stack_Size+0x2400>
    27fc:	58457b29 	stmdapl	r5, {r0, r3, r5, r8, r9, fp, ip, sp, lr}^
    2800:	2c384954 			; <UNDEFINED> instruction: 0x2c384954
    2804:	4f495047 	svcmi	0x00495047
    2808:	49502c43 	ldmdbmi	r0, {r0, r1, r6, sl, fp, sp}^
    280c:	2c385f4e 	ldccs	15, cr5, [r8], #-312	; 0xfffffec8
    2810:	38545845 	ldmdacc	r4, {r0, r2, r6, fp, ip, lr}^
    2814:	5152495f 	cmppl	r2, pc, asr r9
    2818:	5845007d 	stmdapl	r5, {r0, r2, r3, r4, r5, r6}^
    281c:	50343154 	eorspl	r3, r4, r4, asr r1
    2820:	20343143 	eorscs	r3, r4, r3, asr #2
    2824:	49504728 	ldmdbmi	r0, {r3, r5, r8, r9, sl, lr}^
    2828:	4f435f4f 	svcmi	0x00435f4f
    282c:	4749464e 	strbmi	r4, [r9, -lr, asr #12]
    2830:	7b29745f 	blvc	a5f9b4 <_Min_Stack_Size+0xa5f5b4>
    2834:	49545845 	ldmdbmi	r4, {r0, r2, r6, fp, ip, lr}^
    2838:	472c3431 			; <UNDEFINED> instruction: 0x472c3431
    283c:	434f4950 	movtmi	r4, #63824	; 0xf950
    2840:	4e49502c 	cdpmi	0, 4, cr5, cr9, cr12, {1}
    2844:	2c34315f 	ldfcss	f3, [r4], #-380	; 0xfffffe84
    2848:	31545845 	cmpcc	r4, r5, asr #16
    284c:	52495f34 	subpl	r5, r9, #52, 30	; 0xd0
    2850:	5f007d51 	svcpl	0x00007d51
    2854:	554e475f 	strbpl	r4, [lr, #-1887]	; 0xfffff8a1
    2858:	205f5f43 	subscs	r5, pc, r3, asr #30
    285c:	5f003131 	svcpl	0x00003131
    2860:	4e4f4c5f 	mcrmi	12, 2, r4, cr15, cr15, {2}
    2864:	49575f47 	ldmdbmi	r7, {r0, r1, r2, r6, r8, r9, sl, fp, ip, lr}^
    2868:	5f485444 	svcpl	0x00485444
    286c:	3233205f 	eorscc	r2, r3, #95	; 0x5f
    2870:	465f5f00 	ldrbmi	r5, [pc], -r0, lsl #30
    2874:	4d5f544c 	cfldrdmi	mvd5, [pc, #-304]	; 274c <_Min_Stack_Size+0x234c>
    2878:	5f5f5841 	svcpl	0x005f5841
    287c:	342e3320 	strtcc	r3, [lr], #-800	; 0xfffffce0
    2880:	32383230 	eorscc	r3, r8, #48, 4
    2884:	36363433 			; <UNDEFINED> instruction: 0x36363433
    2888:	32353833 	eorscc	r3, r5, #3342336	; 0x330000
    288c:	65363838 	ldrvs	r3, [r6, #-2104]!	; 0xfffff7c8
    2890:	4638332b 	ldrtmi	r3, [r8], -fp, lsr #6
    2894:	555f5f00 	ldrbpl	r5, [pc, #-3840]	; 199c <_Min_Stack_Size+0x159c>
    2898:	55434341 	strbpl	r4, [r3, #-833]	; 0xfffffcbf
    289c:	42465f4d 	submi	r5, r6, #308	; 0x134
    28a0:	5f5f5449 	svcpl	0x005f5449
    28a4:	00363120 	eorseq	r3, r6, r0, lsr #2
    28a8:	46555f5f 	usaxmi	r5, r5, pc	; <UNPREDICTABLE>
    28ac:	54434152 	strbpl	r4, [r3], #-338	; 0xfffffeae
    28b0:	5350455f 	cmppl	r0, #398458880	; 0x17c00000
    28b4:	4e4f4c49 	cdpmi	12, 4, cr4, cr15, cr9, {2}
    28b8:	30205f5f 	eorcc	r5, r0, pc, asr pc
    28bc:	2d503178 	ldfcse	f3, [r0, #-480]	; 0xfffffe20
    28c0:	52553631 	subspl	r3, r5, #51380224	; 0x3100000
    28c4:	575f5f00 	ldrbpl	r5, [pc, -r0, lsl #30]
    28c8:	52414843 	subpl	r4, r1, #4390912	; 0x430000
    28cc:	4e494d5f 	mcrmi	13, 2, r4, cr9, cr15, {2}
    28d0:	30205f5f 	eorcc	r5, r0, pc, asr pc
    28d4:	5f5f0055 	svcpl	0x005f0055
    28d8:	31544e49 	cmpcc	r4, r9, asr #28
    28dc:	68222036 	stmdavs	r2!, {r1, r2, r4, r5, sp}
    28e0:	4e5f0022 	cdpmi	0, 5, cr0, cr15, cr2, {1}
    28e4:	494c5745 	stmdbmi	ip, {r0, r2, r6, r8, r9, sl, ip, lr}^
    28e8:	45565f42 	ldrbmi	r5, [r6, #-3906]	; 0xfffff0be
    28ec:	4f495352 	svcmi	0x00495352
    28f0:	5f485f4e 	svcpl	0x00485f4e
    28f4:	0031205f 	eorseq	r2, r1, pc, asr r0
    28f8:	43475f5f 	movtmi	r5, #32607	; 0x7f5f
    28fc:	54415f43 	strbpl	r5, [r1], #-3907	; 0xfffff0bd
    2900:	43494d4f 	movtmi	r4, #40271	; 0x9d4f
    2904:	4e4f4c5f 	mcrmi	12, 2, r4, cr15, cr15, {2}
    2908:	4f4c5f47 	svcmi	0x004c5f47
    290c:	465f4b43 	ldrbmi	r4, [pc], -r3, asr #22
    2910:	20454552 	subcs	r4, r5, r2, asr r5
    2914:	5f5f0032 	svcpl	0x005f0032
    2918:	43414c55 	movtmi	r4, #7253	; 0x1c55
    291c:	5f4d5543 	svcpl	0x004d5543
    2920:	5f4e494d 	svcpl	0x004e494d
    2924:	2e30205f 	mrccs	0, 1, r2, cr0, cr15, {2}
    2928:	4b4c5530 	blmi	1317df0 <_Min_Stack_Size+0x13179f0>
    292c:	54584500 	ldrbpl	r4, [r8], #-1280	; 0xfffffb00
    2930:	34415034 	strbcc	r5, [r1], #-52	; 0xffffffcc
    2934:	50472820 	subpl	r2, r7, r0, lsr #16
    2938:	435f4f49 	cmpmi	pc, #292	; 0x124
    293c:	49464e4f 	stmdbmi	r6, {r0, r1, r2, r3, r6, r9, sl, fp, lr}^
    2940:	29745f47 	ldmdbcs	r4!, {r0, r1, r2, r6, r8, r9, sl, fp, ip, lr}^
    2944:	5458457b 	ldrbpl	r4, [r8], #-1403	; 0xfffffa85
    2948:	472c3449 	strmi	r3, [ip, -r9, asr #8]!
    294c:	414f4950 	cmpmi	pc, r0, asr r9	; <UNPREDICTABLE>
    2950:	4e49502c 	cdpmi	0, 4, cr5, cr9, cr12, {1}
    2954:	452c345f 	strmi	r3, [ip, #-1119]!	; 0xfffffba1
    2958:	5f345458 	svcpl	0x00345458
    295c:	7d515249 	lfmvc	f5, 2, [r1, #-292]	; 0xfffffedc
    2960:	4c5f5f00 	mrrcmi	15, 0, r5, pc, cr0	; <UNPREDICTABLE>
    2964:	5f4c4244 	svcpl	0x004c4244
    2968:	5f58414d 	svcpl	0x0058414d
    296c:	2e31205f 	mrccs	0, 1, r2, cr1, cr15, {2}
    2970:	36373937 			; <UNDEFINED> instruction: 0x36373937
    2974:	33313339 	teqcc	r1, #-469762048	; 0xe4000000
    2978:	32363834 	eorscc	r3, r6, #52, 16	; 0x340000
    297c:	37353133 			; <UNDEFINED> instruction: 0x37353133
    2980:	30332b65 	eorscc	r2, r3, r5, ror #22
    2984:	5f004c38 	svcpl	0x00004c38
    2988:	4d52415f 	ldfmie	f4, [r2, #-380]	; 0xfffffe84
    298c:	4352415f 	cmpmi	r2, #-1073741801	; 0xc0000017
    2990:	00372048 	eorseq	r2, r7, r8, asr #32
    2994:	534c4146 	movtpl	r4, #49478	; 0xc146
    2998:	00302045 	eorseq	r2, r0, r5, asr #32
    299c:	4c465f5f 	mcrrmi	15, 5, r5, r6, cr15
    29a0:	41525f54 	cmpmi	r2, r4, asr pc
    29a4:	5f584944 	svcpl	0x00584944
    29a8:	0032205f 	eorseq	r2, r2, pc, asr r0
    29ac:	52415f5f 	subpl	r5, r1, #380	; 0x17c
    29b0:	45465f4d 	strbmi	r5, [r6, #-3917]	; 0xfffff0b3
    29b4:	52555441 	subspl	r5, r5, #1090519040	; 0x41000000
    29b8:	4d435f45 	stclmi	15, cr5, [r3, #-276]	; 0xfffffeec
    29bc:	55004553 	strpl	r4, [r0, #-1363]	; 0xfffffaad
    29c0:	33544e49 	cmpcc	r4, #1168	; 0x490
    29c4:	414d5f32 	cmpmi	sp, r2, lsr pc
    29c8:	5f282058 	svcpl	0x00282058
    29cc:	4e49555f 	mcrmi	5, 2, r5, cr9, cr15, {2}
    29d0:	5f323354 	svcpl	0x00323354
    29d4:	5f58414d 	svcpl	0x0058414d
    29d8:	5f00295f 	svcpl	0x0000295f
    29dc:	544c465f 	strbpl	r4, [ip], #-1631	; 0xfffff9a1
    29e0:	4e494d5f 	mcrmi	13, 2, r4, cr9, cr15, {2}
    29e4:	5058455f 	subspl	r4, r8, pc, asr r5
    29e8:	28205f5f 	stmdacs	r0!, {r0, r1, r2, r3, r4, r6, r8, r9, sl, fp, ip, lr}
    29ec:	3532312d 	ldrcc	r3, [r2, #-301]!	; 0xfffffed3
    29f0:	5f5f0029 	svcpl	0x005f0029
    29f4:	4c42444c 	cfstrdmi	mvd4, [r2], {76}	; 0x4c
    29f8:	5341485f 	movtpl	r4, #6239	; 0x185f
    29fc:	4955515f 	ldmdbmi	r5, {r0, r1, r2, r3, r4, r6, r8, ip, lr}^
    2a00:	4e5f5445 	cdpmi	4, 5, cr5, cr15, cr5, {2}
    2a04:	5f5f4e41 	svcpl	0x005f4e41
    2a08:	45003120 	strmi	r3, [r0, #-288]	; 0xfffffee0
    2a0c:	50355458 	eorspl	r5, r5, r8, asr r4
    2a10:	28203543 	stmdacs	r0!, {r0, r1, r6, r8, sl, ip, sp}
    2a14:	4f495047 	svcmi	0x00495047
    2a18:	4e4f435f 	mcrmi	3, 2, r4, cr15, cr15, {2}
    2a1c:	5f474946 	svcpl	0x00474946
    2a20:	457b2974 	ldrbmi	r2, [fp, #-2420]!	; 0xfffff68c
    2a24:	35495458 	strbcc	r5, [r9, #-1112]	; 0xfffffba8
    2a28:	4950472c 	ldmdbmi	r0, {r2, r3, r5, r8, r9, sl, lr}^
    2a2c:	502c434f 	eorpl	r4, ip, pc, asr #6
    2a30:	355f4e49 	ldrbcc	r4, [pc, #-3657]	; 1bef <_Min_Stack_Size+0x17ef>
    2a34:	5458452c 	ldrbpl	r4, [r8], #-1324	; 0xfffffad4
    2a38:	52495f35 	subpl	r5, r9, #53, 30	; 0xd4
    2a3c:	5f007d51 	svcpl	0x00007d51
    2a40:	4e4f4c5f 	mcrmi	12, 2, r4, cr15, cr15, {2}
    2a44:	4f4c5f47 	svcmi	0x004c5f47
    2a48:	575f474e 	ldrbpl	r4, [pc, -lr, asr #14]
    2a4c:	48544449 	ldmdami	r4, {r0, r3, r6, sl, lr}^
    2a50:	36205f5f 	qsaxcc	r5, r0, pc	; <UNPREDICTABLE>
    2a54:	49570034 	ldmdbmi	r7, {r2, r4, r5}^
    2a58:	4d5f544e 	cfldrdmi	mvd5, [pc, #-312]	; 2928 <_Min_Stack_Size+0x2528>
    2a5c:	28205841 	stmdacs	r0!, {r0, r6, fp, ip, lr}
    2a60:	49575f5f 	ldmdbmi	r7, {r0, r1, r2, r3, r4, r6, r8, r9, sl, fp, ip, lr}^
    2a64:	4d5f544e 	cfldrdmi	mvd5, [pc, #-312]	; 2934 <_Min_Stack_Size+0x2534>
    2a68:	5f5f5841 	svcpl	0x005f5841
    2a6c:	5f5f0029 	svcpl	0x005f0029
    2a70:	52464c4c 	subpl	r4, r6, #76, 24	; 0x4c00
    2a74:	5f544341 	svcpl	0x00544341
    2a78:	54494246 	strbpl	r4, [r9], #-582	; 0xfffffdba
    2a7c:	36205f5f 	qsaxcc	r5, r0, pc	; <UNPREDICTABLE>
    2a80:	5f5f0033 	svcpl	0x005f0033
    2a84:	544e4955 	strbpl	r4, [lr], #-2389	; 0xfffff6ab
    2a88:	5341465f 	movtpl	r4, #5727	; 0x165f
    2a8c:	5f343654 	svcpl	0x00343654
    2a90:	5f58414d 	svcpl	0x0058414d
    2a94:	7830205f 	ldmdavc	r0!, {r0, r1, r2, r3, r4, r6, sp}
    2a98:	66666666 	strbtvs	r6, [r6], -r6, ror #12
    2a9c:	66666666 	strbtvs	r6, [r6], -r6, ror #12
    2aa0:	66666666 	strbtvs	r6, [r6], -r6, ror #12
    2aa4:	66666666 	strbtvs	r6, [r6], -r6, ror #12
    2aa8:	004c4c55 	subeq	r4, ip, r5, asr ip
    2aac:	52415f5f 	subpl	r5, r1, #380	; 0x17c
    2ab0:	50465f4d 	subpl	r5, r6, sp, asr #30
    2ab4:	485f5f00 	ldmdami	pc, {r8, r9, sl, fp, ip, lr}^	; <UNPREDICTABLE>
    2ab8:	42495f41 	submi	r5, r9, #260	; 0x104
    2abc:	5f5f5449 	svcpl	0x005f5449
    2ac0:	5f003820 	svcpl	0x00003820
    2ac4:	4d52415f 	ldfmie	f4, [r2, #-380]	; 0xfffffe84
    2ac8:	4145465f 	cmpmi	r5, pc, asr r6
    2acc:	45525554 	ldrbmi	r5, [r2, #-1364]	; 0xfffffaac
    2ad0:	5053445f 	subspl	r4, r3, pc, asr r4
    2ad4:	495f5f00 	ldmdbmi	pc, {r8, r9, sl, fp, ip, lr}^	; <UNPREDICTABLE>
    2ad8:	5450544e 	ldrbpl	r5, [r0], #-1102	; 0xfffffbb2
    2adc:	49575f52 	ldmdbmi	r7, {r1, r4, r6, r8, r9, sl, fp, ip, lr}^
    2ae0:	5f485444 	svcpl	0x00485444
    2ae4:	3233205f 	eorscc	r2, r3, #95	; 0x5f
    2ae8:	475f5f00 	ldrbmi	r5, [pc, -r0, lsl #30]
    2aec:	415f4343 	cmpmi	pc, r3, asr #6
    2af0:	494d4f54 	stmdbmi	sp, {r2, r4, r6, r8, r9, sl, fp, lr}^
    2af4:	4c4c5f43 	mcrrmi	15, 4, r5, ip, cr3
    2af8:	5f474e4f 	svcpl	0x00474e4f
    2afc:	4b434f4c 	blmi	10d6834 <_Min_Stack_Size+0x10d6434>
    2b00:	4552465f 	ldrbmi	r4, [r2, #-1631]	; 0xfffff9a1
    2b04:	00312045 	eorseq	r2, r1, r5, asr #32
    2b08:	5f545845 	svcpl	0x00545845
    2b0c:	5f004e45 	svcpl	0x00004e45
    2b10:	544c465f 	strbpl	r4, [ip], #-1631	; 0xfffff9a1
    2b14:	5f583233 	svcpl	0x00583233
    2b18:	5f4e494d 	svcpl	0x004e494d
    2b1c:	2e32205f 	mrccs	0, 1, r2, cr2, cr15, {2}
    2b20:	30353232 	eorscc	r3, r5, r2, lsr r2
    2b24:	35383337 	ldrcc	r3, [r8, #-823]!	; 0xfffffcc9
    2b28:	37303538 			; <UNDEFINED> instruction: 0x37303538
    2b2c:	34313032 	ldrtcc	r3, [r1], #-50	; 0xffffffce
    2b30:	30332d65 	eorscc	r2, r3, r5, ror #26
    2b34:	32334638 	eorscc	r4, r3, #56, 12	; 0x3800000
    2b38:	54530078 	ldrbpl	r0, [r3], #-120	; 0xffffff88
    2b3c:	4f4c5f4b 	svcmi	0x004c5f4b
    2b40:	2a204441 	bcs	813c4c <_Min_Stack_Size+0x81384c>
    2b44:	75762828 	ldrbvc	r2, [r6, #-2088]!	; 0xfffff7d8
    2b48:	746e6973 	strbtvc	r6, [lr], #-2419	; 0xfffff68d
    2b4c:	745f3233 	ldrbvc	r3, [pc], #-563	; 2b54 <_Min_Stack_Size+0x2754>
    2b50:	20292a20 	eorcs	r2, r9, r0, lsr #20
    2b54:	73795328 	cmnvc	r9, #40, 6	; 0xa0000000
    2b58:	6b636954 	blvs	18dd0b0 <_Min_Stack_Size+0x18dccb0>
    2b5c:	5341425f 	movtpl	r4, #4703	; 0x125f
    2b60:	78302b45 	ldmdavc	r0!, {r0, r2, r6, r8, r9, fp, sp}
    2b64:	29293430 	stmdbcs	r9!, {r4, r5, sl, ip, sp}
    2b68:	465f5f00 	ldrbmi	r5, [pc], -r0, lsl #30
    2b6c:	3436544c 	ldrtcc	r5, [r6], #-1100	; 0xfffffbb4
    2b70:	58414d5f 	stmdapl	r1, {r0, r1, r2, r3, r4, r6, r8, sl, fp, lr}^
    2b74:	5058455f 	subspl	r4, r8, pc, asr r5
    2b78:	31205f5f 			; <UNDEFINED> instruction: 0x31205f5f
    2b7c:	00343230 	eorseq	r3, r4, r0, lsr r2
    2b80:	4c465f5f 	mcrrmi	15, 5, r5, r6, cr15
    2b84:	5f343654 	svcpl	0x00343654
    2b88:	5f4e494d 	svcpl	0x004e494d
    2b8c:	2e32205f 	mrccs	0, 1, r2, cr2, cr15, {2}
    2b90:	30353232 	eorscc	r3, r5, r2, lsr r2
    2b94:	35383337 	ldrcc	r3, [r8, #-823]!	; 0xfffffcc9
    2b98:	37303538 			; <UNDEFINED> instruction: 0x37303538
    2b9c:	34313032 	ldrtcc	r3, [r1], #-50	; 0xffffffce
    2ba0:	30332d65 	eorscc	r2, r3, r5, ror #26
    2ba4:	34364638 	ldrtcc	r4, [r6], #-1592	; 0xfffff9c8
    2ba8:	5f5f5f00 	svcpl	0x005f5f00
    2bac:	33746e69 	cmncc	r4, #1680	; 0x690
    2bb0:	5f745f32 	svcpl	0x00745f32
    2bb4:	69666564 	stmdbvs	r6!, {r2, r5, r6, r8, sl, sp, lr}^
    2bb8:	2064656e 	rsbcs	r6, r4, lr, ror #10
    2bbc:	5f5f0031 	svcpl	0x005f0031
    2bc0:	5f544e49 	svcpl	0x00544e49
    2bc4:	54444957 	strbpl	r4, [r4], #-2391	; 0xfffff6a9
    2bc8:	205f5f48 	subscs	r5, pc, r8, asr #30
    2bcc:	45003233 	strmi	r3, [r0, #-563]	; 0xfffffdcd
    2bd0:	4c5f4958 	mrrcmi	9, 5, r4, pc, cr8	; <UNPREDICTABLE>
    2bd4:	00454e49 	subeq	r4, r5, r9, asr #28
    2bd8:	4f495047 	svcmi	0x00495047
    2bdc:	28282047 	stmdacs	r8!, {r0, r1, r2, r6, sp}
    2be0:	4f495047 	svcmi	0x00495047
    2be4:	45525f78 	ldrbmi	r5, [r2, #-3960]	; 0xfffff088
    2be8:	292a2047 	stmdbcs	sl!, {r0, r1, r2, r6, sp}
    2bec:	49504720 	ldmdbmi	r0, {r5, r8, r9, sl, lr}^
    2bf0:	425f474f 	subsmi	r4, pc, #20709376	; 0x13c0000
    2bf4:	29455341 	stmdbcs	r5, {r0, r6, r8, r9, ip, lr}^
    2bf8:	495f5f00 	ldmdbmi	pc, {r8, r9, sl, fp, ip, lr}^	; <UNPREDICTABLE>
    2bfc:	3436544e 	ldrtcc	r5, [r6], #-1102	; 0xfffffbb2
    2c00:	5059545f 	subspl	r5, r9, pc, asr r4
    2c04:	205f5f45 	subscs	r5, pc, r5, asr #30
    2c08:	676e6f6c 	strbvs	r6, [lr, -ip, ror #30]!
    2c0c:	6e6f6c20 	cdpvs	12, 6, cr6, cr15, cr0, {1}
    2c10:	6e692067 	cdpvs	0, 6, cr2, cr9, cr7, {3}
    2c14:	5f5f0074 	svcpl	0x005f0074
    2c18:	4152464c 	cmpmi	r2, ip, asr #12
    2c1c:	465f5443 	ldrbmi	r5, [pc], -r3, asr #8
    2c20:	5f544942 	svcpl	0x00544942
    2c24:	3133205f 	teqcc	r3, pc, asr r0
    2c28:	4e495500 	cdpmi	5, 4, cr5, cr9, cr0, {0}
    2c2c:	5f363154 	svcpl	0x00363154
    2c30:	2058414d 	subscs	r4, r8, sp, asr #2
    2c34:	555f5f28 	ldrbpl	r5, [pc, #-3880]	; 1d14 <_Min_Stack_Size+0x1914>
    2c38:	31544e49 	cmpcc	r4, r9, asr #28
    2c3c:	414d5f36 	cmpmi	sp, r6, lsr pc
    2c40:	295f5f58 	ldmdbcs	pc, {r3, r4, r6, r8, r9, sl, fp, ip, lr}^	; <UNPREDICTABLE>
    2c44:	54584500 	ldrbpl	r4, [r8], #-1280	; 0xfffffb00
    2c48:	49505f49 	ldmdbmi	r0, {r0, r3, r6, r8, r9, sl, fp, ip, lr}^
    2c4c:	5047004e 	subpl	r0, r7, lr, asr #32
    2c50:	20414f49 	subcs	r4, r1, r9, asr #30
    2c54:	50472828 	subpl	r2, r7, r8, lsr #16
    2c58:	5f784f49 	svcpl	0x00784f49
    2c5c:	20474552 	subcs	r4, r7, r2, asr r5
    2c60:	4720292a 	strmi	r2, [r0, -sl, lsr #18]!
    2c64:	414f4950 	cmpmi	pc, r0, asr r9	; <UNPREDICTABLE>
    2c68:	5341425f 	movtpl	r4, #4703	; 0x125f
    2c6c:	5f002945 	svcpl	0x00002945
    2c70:	4453425f 	ldrbmi	r4, [r3], #-607	; 0xfffffda1
    2c74:	5349565f 	movtpl	r5, #38495	; 0x965f
    2c78:	454c4249 	strbmi	r4, [ip, #-585]	; 0xfffffdb7
    2c7c:	49003120 	stmdbmi	r0, {r5, r8, ip, sp}
    2c80:	4c5f544e 	cfldrdmi	mvd5, [pc], {78}	; 0x4e
    2c84:	54534145 	ldrbpl	r4, [r3], #-325	; 0xfffffebb
    2c88:	4d5f3631 	ldclmi	6, cr3, [pc, #-196]	; 2bcc <_Min_Stack_Size+0x27cc>
    2c8c:	28204e49 	stmdacs	r0!, {r0, r3, r6, r9, sl, fp, lr}
    2c90:	495f5f2d 	ldmdbmi	pc, {r0, r2, r3, r5, r8, r9, sl, fp, ip, lr}^	; <UNPREDICTABLE>
    2c94:	4c5f544e 	cfldrdmi	mvd5, [pc], {78}	; 0x4e
    2c98:	54534145 	ldrbpl	r4, [r3], #-325	; 0xfffffebb
    2c9c:	4d5f3631 	ldclmi	6, cr3, [pc, #-196]	; 2be0 <_Min_Stack_Size+0x27e0>
    2ca0:	5f5f5841 	svcpl	0x005f5841
    2ca4:	31202d20 			; <UNDEFINED> instruction: 0x31202d20
    2ca8:	58450029 	stmdapl	r5, {r0, r3, r5}^
    2cac:	50303154 	eorspl	r3, r0, r4, asr r1
    2cb0:	20303144 	eorscs	r3, r0, r4, asr #2
    2cb4:	49504728 	ldmdbmi	r0, {r3, r5, r8, r9, sl, lr}^
    2cb8:	4f435f4f 	svcmi	0x00435f4f
    2cbc:	4749464e 	strbmi	r4, [r9, -lr, asr #12]
    2cc0:	7b29745f 	blvc	a5fe44 <_Min_Stack_Size+0xa5fa44>
    2cc4:	49545845 	ldmdbmi	r4, {r0, r2, r6, fp, ip, lr}^
    2cc8:	472c3031 			; <UNDEFINED> instruction: 0x472c3031
    2ccc:	444f4950 	strbmi	r4, [pc], #-2384	; 2cd4 <_Min_Stack_Size+0x28d4>
    2cd0:	4e49502c 	cdpmi	0, 4, cr5, cr9, cr12, {1}
    2cd4:	2c30315f 	ldfcss	f3, [r0], #-380	; 0xfffffe84
    2cd8:	31545845 	cmpcc	r4, r5, asr #16
    2cdc:	52495f30 	subpl	r5, r9, #48, 30	; 0xc0
    2ce0:	45007d51 	strmi	r7, [r0, #-3409]	; 0xfffff2af
    2ce4:	32315458 	eorscc	r5, r1, #88, 8	; 0x58000000
    2ce8:	32314350 	eorscc	r4, r1, #80, 6	; 0x40000001
    2cec:	50472820 	subpl	r2, r7, r0, lsr #16
    2cf0:	435f4f49 	cmpmi	pc, #292	; 0x124
    2cf4:	49464e4f 	stmdbmi	r6, {r0, r1, r2, r3, r6, r9, sl, fp, lr}^
    2cf8:	29745f47 	ldmdbcs	r4!, {r0, r1, r2, r6, r8, r9, sl, fp, ip, lr}^
    2cfc:	5458457b 	ldrbpl	r4, [r8], #-1403	; 0xfffffa85
    2d00:	2c323149 	ldfcss	f3, [r2], #-292	; 0xfffffedc
    2d04:	4f495047 	svcmi	0x00495047
    2d08:	49502c43 	ldmdbmi	r0, {r0, r1, r6, sl, fp, sp}^
    2d0c:	32315f4e 	eorscc	r5, r1, #312	; 0x138
    2d10:	5458452c 	ldrbpl	r4, [r8], #-1324	; 0xfffffad4
    2d14:	495f3231 	ldmdbmi	pc, {r0, r4, r5, r9, ip, sp}^	; <UNPREDICTABLE>
    2d18:	007d5152 	rsbseq	r5, sp, r2, asr r1
    2d1c:	46555f5f 	usaxmi	r5, r5, pc	; <UNPREDICTABLE>
    2d20:	54434152 	strbpl	r4, [r3], #-338	; 0xfffffeae
    2d24:	58414d5f 	stmdapl	r1, {r0, r1, r2, r3, r4, r6, r8, sl, fp, lr}^
    2d28:	30205f5f 	eorcc	r5, r0, pc, asr pc
    2d2c:	46464658 			; <UNDEFINED> instruction: 0x46464658
    2d30:	312d5046 			; <UNDEFINED> instruction: 0x312d5046
    2d34:	00525536 	subseq	r5, r2, r6, lsr r5
    2d38:	695f5f5f 	ldmdbvs	pc, {r0, r1, r2, r3, r4, r6, r8, r9, sl, fp, ip, lr}^	; <UNPREDICTABLE>
    2d3c:	6c5f746e 	cfldrdvs	mvd7, [pc], {110}	; 0x6e
    2d40:	74736165 	ldrbtvc	r6, [r3], #-357	; 0xfffffe9b
    2d44:	745f3436 	ldrbvc	r3, [pc], #-1078	; 2d4c <_Min_Stack_Size+0x294c>
    2d48:	6665645f 			; <UNDEFINED> instruction: 0x6665645f
    2d4c:	64656e69 	strbtvs	r6, [r5], #-3689	; 0xfffff197
    2d50:	5f003120 	svcpl	0x00003120
    2d54:	544e495f 	strbpl	r4, [lr], #-2399	; 0xfffff6a1
    2d58:	41454c5f 	cmpmi	r5, pc, asr ip
    2d5c:	32335453 	eorscc	r5, r3, #1392508928	; 0x53000000
    2d60:	58414d5f 	stmdapl	r1, {r0, r1, r2, r3, r4, r6, r8, sl, fp, lr}^
    2d64:	30205f5f 	eorcc	r5, r0, pc, asr pc
    2d68:	66663778 			; <UNDEFINED> instruction: 0x66663778
    2d6c:	66666666 	strbtvs	r6, [r6], -r6, ror #12
    2d70:	5f004c66 	svcpl	0x00004c66
    2d74:	5246535f 	subpl	r5, r6, #2080374785	; 0x7c000001
    2d78:	5f544341 	svcpl	0x00544341
    2d7c:	54494249 	strbpl	r4, [r9], #-585	; 0xfffffdb7
    2d80:	30205f5f 	eorcc	r5, r0, pc, asr pc
    2d84:	54415f00 	strbpl	r5, [r1], #-3840	; 0xfffff100
    2d88:	454c4946 	strbmi	r4, [ip, #-2374]	; 0xfffff6ba
    2d8c:	554f535f 	strbpl	r5, [pc, #-863]	; 2a35 <_Min_Stack_Size+0x2635>
    2d90:	20454352 	subcs	r4, r5, r2, asr r3
    2d94:	5f5f0031 	svcpl	0x005f0031
    2d98:	49445453 	stmdbmi	r4, {r0, r1, r4, r6, sl, ip, lr}^
    2d9c:	455f544e 	ldrbmi	r5, [pc, #-1102]	; 2956 <_Min_Stack_Size+0x2556>
    2da0:	78285058 	stmdavc	r8!, {r3, r4, r6, ip, lr}
    2da4:	5f5f2029 	svcpl	0x005f2029
    2da8:	78232320 	stmdavc	r3!, {r5, r8, r9, sp}
    2dac:	5f232320 	svcpl	0x00232320
    2db0:	5f5f005f 	svcpl	0x005f005f
    2db4:	28505845 	ldmdacs	r0, {r0, r2, r6, fp, ip, lr}^
    2db8:	5f202978 	svcpl	0x00202978
    2dbc:	2323205f 			; <UNDEFINED> instruction: 0x2323205f
    2dc0:	23232078 			; <UNDEFINED> instruction: 0x23232078
    2dc4:	5f005f5f 	svcpl	0x00005f5f
    2dc8:	5459425f 	ldrbpl	r4, [r9], #-607	; 0xfffffda1
    2dcc:	524f5f45 	subpl	r5, pc, #276	; 0x114
    2dd0:	5f524544 	svcpl	0x00524544
    2dd4:	5f5f205f 	svcpl	0x005f205f
    2dd8:	4544524f 	strbmi	r5, [r4, #-591]	; 0xfffffdb1
    2ddc:	494c5f52 	stmdbmi	ip, {r1, r4, r6, r8, r9, sl, fp, ip, lr}^
    2de0:	454c5454 	strbmi	r5, [ip, #-1108]	; 0xfffffbac
    2de4:	444e455f 	strbmi	r4, [lr], #-1375	; 0xfffffaa1
    2de8:	5f4e4149 	svcpl	0x004e4149
    2dec:	5f5f005f 	svcpl	0x005f005f
    2df0:	33544c46 	cmpcc	r4, #17920	; 0x4600
    2df4:	50455f32 	subpl	r5, r5, r2, lsr pc
    2df8:	4f4c4953 	svcmi	0x004c4953
    2dfc:	205f5f4e 	subscs	r5, pc, lr, asr #30
    2e00:	39312e31 	ldmdbcc	r1!, {r0, r4, r5, r9, sl, fp, sp}
    2e04:	32393032 	eorscc	r3, r9, #50	; 0x32
    2e08:	35353938 	ldrcc	r3, [r5, #-2360]!	; 0xfffff6c8
    2e0c:	31383730 	teqcc	r8, r0, lsr r7
    2e10:	2d653532 	cfstr64cs	mvdx3, [r5, #-200]!	; 0xffffff38
    2e14:	32334637 	eorscc	r4, r3, #57671680	; 0x3700000
    2e18:	4c5f5f00 	mrrcmi	15, 0, r5, pc, cr0	; <UNPREDICTABLE>
    2e1c:	43415246 	movtmi	r5, #4678	; 0x1246
    2e20:	50455f54 	subpl	r5, r5, r4, asr pc
    2e24:	4f4c4953 	svcmi	0x004c4953
    2e28:	205f5f4e 	subscs	r5, pc, lr, asr #30
    2e2c:	50317830 	eorspl	r7, r1, r0, lsr r8
    2e30:	4c31332d 	ldcmi	3, cr3, [r1], #-180	; 0xffffff4c
    2e34:	564e0052 			; <UNDEFINED> instruction: 0x564e0052
    2e38:	495f4349 	ldmdbmi	pc, {r0, r3, r6, r8, r9, lr}^	; <UNPREDICTABLE>
    2e3c:	31524553 	cmpcc	r2, r3, asr r5
    2e40:	28282a20 	stmdacs	r8!, {r5, r9, fp, sp}
    2e44:	69737576 	ldmdbvs	r3!, {r1, r2, r4, r5, r6, r8, sl, ip, sp, lr}^
    2e48:	3233746e 	eorscc	r7, r3, #1845493760	; 0x6e000000
    2e4c:	2a20745f 	bcs	81ffd0 <_Min_Stack_Size+0x81fbd0>
    2e50:	4e282029 	cdpmi	0, 2, cr2, cr8, cr9, {1}
    2e54:	5f434956 	svcpl	0x00434956
    2e58:	45534142 	ldrbmi	r4, [r3, #-322]	; 0xfffffebe
    2e5c:	3078302b 	rsbscc	r3, r8, fp, lsr #32
    2e60:	00292934 	eoreq	r2, r9, r4, lsr r9
    2e64:	49545845 	ldmdbmi	r4, {r0, r2, r6, fp, ip, lr}^
    2e68:	00312031 	eorseq	r2, r1, r1, lsr r0
    2e6c:	46555f5f 	usaxmi	r5, r5, pc	; <UNPREDICTABLE>
    2e70:	54434152 	strbpl	r4, [r3], #-338	; 0xfffffeae
    2e74:	4942465f 	stmdbmi	r2, {r0, r1, r2, r3, r4, r6, r9, sl, lr}^
    2e78:	205f5f54 	subscs	r5, pc, r4, asr pc	; <UNPREDICTABLE>
    2e7c:	5f003631 	svcpl	0x00003631
    2e80:	5144555f 	cmppl	r4, pc, asr r5
    2e84:	4942465f 	stmdbmi	r2, {r0, r1, r2, r3, r4, r6, r9, sl, lr}^
    2e88:	205f5f54 	subscs	r5, pc, r4, asr pc	; <UNPREDICTABLE>
    2e8c:	5f003436 	svcpl	0x00003436
    2e90:	4c42445f 	cfstrdmi	mvd4, [r2], {95}	; 0x5f
    2e94:	524f4e5f 	subpl	r4, pc, #1520	; 0x5f0
    2e98:	414d5f4d 	cmpmi	sp, sp, asr #30
    2e9c:	205f5f58 	subscs	r5, pc, r8, asr pc	; <UNPREDICTABLE>
    2ea0:	6f642828 	svcvs	0x00642828
    2ea4:	656c6275 	strbvs	r6, [ip, #-629]!	; 0xfffffd8b
    2ea8:	372e3129 	strcc	r3, [lr, -r9, lsr #2]!
    2eac:	39363739 	ldmdbcc	r6!, {r0, r3, r4, r5, r8, r9, sl, ip, sp}
    2eb0:	34333133 	ldrtcc	r3, [r3], #-307	; 0xfffffecd
    2eb4:	33323638 	teqcc	r2, #56, 12	; 0x3800000
    2eb8:	65373531 	ldrvs	r3, [r7, #-1329]!	; 0xfffffacf
    2ebc:	3830332b 	ldmdacc	r0!, {r0, r1, r3, r5, r8, r9, ip, sp}
    2ec0:	5f00294c 	svcpl	0x0000294c
    2ec4:	746e695f 	strbtvc	r6, [lr], #-2399	; 0xfffff6a1
    2ec8:	7361665f 	cmnvc	r1, #99614720	; 0x5f00000
    2ecc:	5f363174 	svcpl	0x00363174
    2ed0:	65645f74 	strbvs	r5, [r4, #-3956]!	; 0xfffff08c
    2ed4:	656e6966 	strbvs	r6, [lr, #-2406]!	; 0xfffff69a
    2ed8:	00312064 	eorseq	r2, r1, r4, rrx
    2edc:	444c5f5f 	strbmi	r5, [ip], #-3935	; 0xfffff0a1
    2ee0:	4d5f4c42 	ldclmi	12, cr4, [pc, #-264]	; 2de0 <_Min_Stack_Size+0x29e0>
    2ee4:	315f5841 	cmpcc	pc, r1, asr #16
    2ee8:	58455f30 	stmdapl	r5, {r4, r5, r8, r9, sl, fp, ip, lr}^
    2eec:	205f5f50 	subscs	r5, pc, r0, asr pc	; <UNPREDICTABLE>
    2ef0:	00383033 	eorseq	r3, r8, r3, lsr r0
    2ef4:	42445f5f 	submi	r5, r4, #380	; 0x17c
    2ef8:	45445f4c 	strbmi	r5, [r4, #-3916]	; 0xfffff0b4
    2efc:	4d524f4e 	ldclmi	15, cr4, [r2, #-312]	; 0xfffffec8
    2f00:	4e494d5f 	mcrmi	13, 2, r4, cr9, cr15, {2}
    2f04:	28205f5f 	stmdacs	r0!, {r0, r1, r2, r3, r4, r6, r8, r9, sl, fp, ip, lr}
    2f08:	756f6428 	strbvc	r6, [pc, #-1064]!	; 2ae8 <_Min_Stack_Size+0x26e8>
    2f0c:	29656c62 	stmdbcs	r5!, {r1, r5, r6, sl, fp, sp, lr}^
    2f10:	34392e34 	ldrtcc	r2, [r9], #-3636	; 0xfffff1cc
    2f14:	36353630 			; <UNDEFINED> instruction: 0x36353630
    2f18:	34383534 	ldrtcc	r3, [r8], #-1332	; 0xfffffacc
    2f1c:	36343231 			; <UNDEFINED> instruction: 0x36343231
    2f20:	2d653435 	cfstrdcs	mvd3, [r5, #-212]!	; 0xffffff2c
    2f24:	4c343233 	lfmmi	f3, 4, [r4], #-204	; 0xffffff34
    2f28:	4e490029 	cdpmi	0, 4, cr0, cr9, cr9, {1}
    2f2c:	5f343654 	svcpl	0x00343654
    2f30:	2058414d 	subscs	r4, r8, sp, asr #2
    2f34:	495f5f28 	ldmdbmi	pc, {r3, r5, r8, r9, sl, fp, ip, lr}^	; <UNPREDICTABLE>
    2f38:	3436544e 	ldrtcc	r5, [r6], #-1102	; 0xfffffbb2
    2f3c:	58414d5f 	stmdapl	r1, {r0, r1, r2, r3, r4, r6, r8, sl, fp, lr}^
    2f40:	00295f5f 	eoreq	r5, r9, pc, asr pc
    2f44:	334d5453 	movtcc	r5, #54355	; 0xd453
    2f48:	30314632 	eorscc	r4, r1, r2, lsr r6
    2f4c:	54364333 	ldrtpl	r4, [r6], #-819	; 0xfffffccd
    2f50:	00312078 	eorseq	r2, r1, r8, ror r0
    2f54:	49545845 	ldmdbmi	r4, {r0, r2, r6, fp, ip, lr}^
    2f58:	00362036 	eorseq	r2, r6, r6, lsr r0
    2f5c:	31545845 	cmpcc	r4, r5, asr #16
    2f60:	31415031 	cmpcc	r1, r1, lsr r0
    2f64:	47282031 			; <UNDEFINED> instruction: 0x47282031
    2f68:	5f4f4950 	svcpl	0x004f4950
    2f6c:	464e4f43 	strbmi	r4, [lr], -r3, asr #30
    2f70:	745f4749 	ldrbvc	r4, [pc], #-1865	; 2f78 <_Min_Stack_Size+0x2b78>
    2f74:	58457b29 	stmdapl	r5, {r0, r3, r5, r8, r9, fp, ip, sp, lr}^
    2f78:	31314954 	teqcc	r1, r4, asr r9
    2f7c:	4950472c 	ldmdbmi	r0, {r2, r3, r5, r8, r9, sl, lr}^
    2f80:	502c414f 	eorpl	r4, ip, pc, asr #2
    2f84:	315f4e49 	cmpcc	pc, r9, asr #28
    2f88:	58452c31 	stmdapl	r5, {r0, r4, r5, sl, fp, sp}^
    2f8c:	5f313154 	svcpl	0x00313154
    2f90:	7d515249 	lfmvc	f5, 2, [r1, #-292]	; 0xfffffedc
    2f94:	4e5f5f00 	cdpmi	15, 5, cr5, cr15, cr0, {0}
    2f98:	494c5745 	stmdbmi	ip, {r0, r2, r6, r8, r9, sl, ip, lr}^
    2f9c:	494d5f42 	stmdbmi	sp, {r1, r6, r8, r9, sl, fp, ip, lr}^
    2fa0:	5f524f4e 	svcpl	0x00524f4e
    2fa4:	0032205f 	eorseq	r2, r2, pc, asr r0
    2fa8:	49545845 	ldmdbmi	r4, {r0, r2, r6, fp, ip, lr}^
    2fac:	52495f32 	subpl	r5, r9, #50, 30	; 0xc8
    2fb0:	6e614851 	mcrvs	8, 3, r4, cr1, cr1, {2}
    2fb4:	72656c64 	rsbvc	r6, r5, #100, 24	; 0x6400
    2fb8:	465f5f00 	ldrbmi	r5, [pc], -r0, lsl #30
    2fbc:	3436544c 	ldrtcc	r5, [r6], #-1100	; 0xfffffbb4
    2fc0:	5341485f 	movtpl	r4, #6239	; 0x185f
    2fc4:	4955515f 	ldmdbmi	r5, {r0, r1, r2, r3, r4, r6, r8, ip, lr}^
    2fc8:	4e5f5445 	cdpmi	4, 5, cr5, cr15, cr5, {2}
    2fcc:	5f5f4e41 	svcpl	0x005f4e41
    2fd0:	55003120 	strpl	r3, [r0, #-288]	; 0xfffffee0
    2fd4:	33544e49 	cmpcc	r4, #1168	; 0x490
    2fd8:	28435f32 	stmdacs	r3, {r1, r4, r5, r8, r9, sl, fp, ip, lr}^
    2fdc:	5f202978 	svcpl	0x00202978
    2fe0:	4e49555f 	mcrmi	5, 2, r5, cr9, cr15, {2}
    2fe4:	5f323354 	svcpl	0x00323354
    2fe8:	29782843 	ldmdbcs	r8!, {r0, r1, r6, fp, sp}^
    2fec:	49564e00 	ldmdbmi	r6, {r9, sl, fp, lr}^
    2ff0:	58455f43 	stmdapl	r5, {r0, r1, r6, r8, r9, sl, fp, ip, lr}^
    2ff4:	5f364954 	svcpl	0x00364954
    2ff8:	4e282044 	cdpmi	0, 2, cr2, cr8, cr4, {2}
    2ffc:	5f434956 	svcpl	0x00434956
    3000:	52455349 	subpl	r5, r5, #603979777	; 0x24000001
    3004:	7e3d2630 	mrcvc	6, 1, r2, cr13, cr0, {1}
    3008:	3c3c3128 	ldfccs	f3, [ip], #-160	; 0xffffff60
    300c:	36545845 	ldrbcc	r5, [r4], -r5, asr #16
    3010:	5152495f 	cmppl	r2, pc, asr r9
    3014:	5f002929 	svcpl	0x00002929
    3018:	4c4c555f 	cfstr64mi	mvdx5, [ip], {95}	; 0x5f
    301c:	55434341 	strbpl	r4, [r3, #-833]	; 0xfffffcbf
    3020:	414d5f4d 	cmpmi	sp, sp, asr #30
    3024:	205f5f58 	subscs	r5, pc, r8, asr pc	; <UNPREDICTABLE>
    3028:	46465830 			; <UNDEFINED> instruction: 0x46465830
    302c:	46464646 	strbmi	r4, [r6], -r6, asr #12
    3030:	46464646 	strbmi	r4, [r6], -r6, asr #12
    3034:	46464646 	strbmi	r4, [r6], -r6, asr #12
    3038:	2d504646 	ldclcs	6, cr4, [r0, #-280]	; 0xfffffee8
    303c:	4c553233 	lfmmi	f3, 2, [r5], {51}	; 0x33
    3040:	5f004b4c 	svcpl	0x00004b4c
    3044:	4153555f 	cmpmi	r3, pc, asr r5
    3048:	4d554343 	ldclmi	3, cr4, [r5, #-268]	; 0xfffffef4
    304c:	4942495f 	stmdbmi	r2, {r0, r1, r2, r3, r4, r6, r8, fp, lr}^
    3050:	205f5f54 	subscs	r5, pc, r4, asr pc	; <UNPREDICTABLE>
    3054:	4e490038 	mcrmi	0, 2, r0, cr9, cr8, {1}
    3058:	41465f54 	cmpmi	r6, r4, asr pc
    305c:	5f385453 	svcpl	0x00385453
    3060:	204e494d 	subcs	r4, lr, sp, asr #18
    3064:	5f5f2d28 	svcpl	0x005f2d28
    3068:	5f544e49 	svcpl	0x00544e49
    306c:	54534146 	ldrbpl	r4, [r3], #-326	; 0xfffffeba
    3070:	414d5f38 	cmpmi	sp, r8, lsr pc
    3074:	205f5f58 	subscs	r5, pc, r8, asr pc	; <UNPREDICTABLE>
    3078:	2931202d 	ldmdbcs	r1!, {r0, r2, r3, r5, sp}
    307c:	465f5f00 	ldrbmi	r5, [pc], -r0, lsl #30
    3080:	3436544c 	ldrtcc	r5, [r6], #-1100	; 0xfffffbb4
    3084:	5341485f 	movtpl	r4, #6239	; 0x185f
    3088:	4e45445f 	mcrmi	4, 2, r4, cr5, cr15, {2}
    308c:	5f4d524f 	svcpl	0x004d524f
    3090:	0031205f 	eorseq	r2, r1, pc, asr r0
    3094:	4c465f5f 	mcrrmi	15, 5, r5, r6, cr15
    3098:	49445f54 	stmdbmi	r4, {r2, r4, r6, r8, r9, sl, fp, ip, lr}^
    309c:	205f5f47 	subscs	r5, pc, r7, asr #30
    30a0:	5f5f0036 	svcpl	0x005f0036
    30a4:	544e4955 	strbpl	r4, [lr], #-2389	; 0xfffff6ab
    30a8:	5f58414d 	svcpl	0x0058414d
    30ac:	45505954 	ldrbmi	r5, [r0, #-2388]	; 0xfffff6ac
    30b0:	6c205f5f 	stcvs	15, cr5, [r0], #-380	; 0xfffffe84
    30b4:	20676e6f 	rsbcs	r6, r7, pc, ror #28
    30b8:	676e6f6c 	strbvs	r6, [lr, -ip, ror #30]!
    30bc:	736e7520 	cmnvc	lr, #32, 10	; 0x8000000
    30c0:	656e6769 	strbvs	r6, [lr, #-1897]!	; 0xfffff897
    30c4:	6e692064 	cdpvs	0, 6, cr2, cr9, cr4, {3}
    30c8:	2e2e0074 	mcrcs	0, 1, r0, cr14, cr4, {3}
    30cc:	41434d2f 	cmpmi	r3, pc, lsr #26
    30d0:	58452f4c 	stmdapl	r5, {r2, r3, r6, r8, r9, sl, fp, sp}^
    30d4:	445f4954 	ldrbmi	r4, [pc], #-2388	; 30dc <_Min_Stack_Size+0x2cdc>
    30d8:	65766972 	ldrbvs	r6, [r6, #-2418]!	; 0xfffff68e
    30dc:	00632e72 	rsbeq	r2, r3, r2, ror lr
    30e0:	54555f5f 	ldrbpl	r5, [r5], #-3935	; 0xfffff0a1
    30e4:	42495f41 	submi	r5, r9, #260	; 0x104
    30e8:	5f5f5449 	svcpl	0x005f5449
    30ec:	00343620 	eorseq	r3, r4, r0, lsr #12
    30f0:	48435f5f 	stmdami	r3, {r0, r1, r2, r3, r4, r6, r8, r9, sl, fp, ip, lr}^
    30f4:	425f5241 	subsmi	r5, pc, #268435460	; 0x10000004
    30f8:	5f5f5449 	svcpl	0x005f5449
    30fc:	41003820 	tstmi	r0, r0, lsr #16
    3100:	6f6c616e 	svcvs	0x006c616e
    3104:	5f5f0067 	svcpl	0x005f0067
    3108:	5f544c46 	svcpl	0x00544c46
    310c:	4c415645 	mcrrmi	6, 4, r5, r1, cr5
    3110:	54454d5f 	strbpl	r4, [r5], #-3423	; 0xfffff2a1
    3114:	5f444f48 	svcpl	0x00444f48
    3118:	0030205f 	eorseq	r2, r0, pc, asr r0
    311c:	4f504947 	svcmi	0x00504947
    3120:	535f5f00 	cmppl	pc, #0, 30
    3124:	52414843 	subpl	r4, r1, #4390912	; 0x430000
    3128:	58414d5f 	stmdapl	r1, {r0, r1, r2, r3, r4, r6, r8, sl, fp, lr}^
    312c:	30205f5f 	eorcc	r5, r0, pc, asr pc
    3130:	00663778 	rsbeq	r3, r6, r8, ror r7
    3134:	4f495047 	svcmi	0x00495047
    3138:	28282042 	stmdacs	r8!, {r1, r6, sp}
    313c:	4f495047 	svcmi	0x00495047
    3140:	45525f78 	ldrbmi	r5, [r2, #-3960]	; 0xfffff088
    3144:	292a2047 	stmdbcs	sl!, {r0, r1, r2, r6, sp}
    3148:	49504720 	ldmdbmi	r0, {r5, r8, r9, sl, lr}^
    314c:	425f424f 	subsmi	r4, pc, #-268435452	; 0xf0000004
    3150:	29455341 	stmdbcs	r5, {r0, r6, r8, r9, ip, lr}^
    3154:	495f5f00 	ldmdbmi	pc, {r8, r9, sl, fp, ip, lr}^	; <UNPREDICTABLE>
    3158:	465f544e 	ldrbmi	r5, [pc], -lr, asr #8
    315c:	38545341 	ldmdacc	r4, {r0, r6, r8, r9, ip, lr}^
    3160:	4449575f 	strbmi	r5, [r9], #-1887	; 0xfffff8a1
    3164:	5f5f4854 	svcpl	0x005f4854
    3168:	00323320 	eorseq	r3, r2, r0, lsr #6
    316c:	54535f5f 	ldrbpl	r5, [r3], #-3935	; 0xfffff0a1
    3170:	555f4344 	ldrbpl	r4, [pc, #-836]	; 2e34 <_Min_Stack_Size+0x2a34>
    3174:	315f4654 	cmpcc	pc, r4, asr r6	; <UNPREDICTABLE>
    3178:	205f5f36 	subscs	r5, pc, r6, lsr pc	; <UNPREDICTABLE>
    317c:	5f5f0031 	svcpl	0x005f0031
    3180:	5f4d5241 	svcpl	0x004d5241
    3184:	54414546 	strbpl	r4, [r1], #-1350	; 0xfffffaba
    3188:	5f455255 	svcpl	0x00455255
    318c:	4552444c 	ldrbmi	r4, [r2, #-1100]	; 0xfffffbb4
    3190:	58450058 	stmdapl	r5, {r3, r4, r6}^
    3194:	41503254 	cmpmi	r0, r4, asr r2
    3198:	47282032 			; <UNDEFINED> instruction: 0x47282032
    319c:	5f4f4950 	svcpl	0x004f4950
    31a0:	464e4f43 	strbmi	r4, [lr], -r3, asr #30
    31a4:	745f4749 	ldrbvc	r4, [pc], #-1865	; 31ac <_Min_Stack_Size+0x2dac>
    31a8:	58457b29 	stmdapl	r5, {r0, r3, r5, r8, r9, fp, ip, sp, lr}^
    31ac:	2c324954 			; <UNDEFINED> instruction: 0x2c324954
    31b0:	4f495047 	svcmi	0x00495047
    31b4:	49502c41 	ldmdbmi	r0, {r0, r6, sl, fp, sp}^
    31b8:	2c325f4e 	ldccs	15, cr5, [r2], #-312	; 0xfffffec8
    31bc:	32545845 	subscc	r5, r4, #4521984	; 0x450000
    31c0:	5152495f 	cmppl	r2, pc, asr r9
    31c4:	5f5f007d 	svcpl	0x005f007d
    31c8:	5f515155 	svcpl	0x00515155
    31cc:	54494246 	strbpl	r4, [r9], #-582	; 0xfffffdba
    31d0:	38205f5f 	stmdacc	r0!, {r0, r1, r2, r3, r4, r6, r8, r9, sl, fp, ip, lr}
    31d4:	575f5f00 	ldrbpl	r5, [pc, -r0, lsl #30]
    31d8:	5f544e49 	svcpl	0x00544e49
    31dc:	45505954 	ldrbmi	r5, [r0, #-2388]	; 0xfffff6ac
    31e0:	75205f5f 	strvc	r5, [r0, #-3935]!	; 0xfffff0a1
    31e4:	6769736e 	strbvs	r7, [r9, -lr, ror #6]!
    31e8:	2064656e 	rsbcs	r6, r4, lr, ror #10
    31ec:	00746e69 	rsbseq	r6, r4, r9, ror #28
    31f0:	52415f5f 	subpl	r5, r1, #380	; 0x17c
    31f4:	50465f4d 	subpl	r5, r6, sp, asr #30
    31f8:	415f3631 	cmpmi	pc, r1, lsr r6	; <UNPREDICTABLE>
    31fc:	00534752 	subseq	r4, r3, r2, asr r7
    3200:	43475f5f 	movtmi	r5, #32607	; 0x7f5f
    3204:	45495f43 	strbmi	r5, [r9, #-3907]	; 0xfffff0bd
    3208:	35355f43 	ldrcc	r5, [r5, #-3907]!	; 0xfffff0bd
    320c:	00302039 	eorseq	r2, r0, r9, lsr r0
    3210:	4349564e 	movtmi	r5, #38478	; 0x964e
    3214:	5458455f 	ldrbpl	r4, [r8], #-1375	; 0xfffffaa1
    3218:	455f3749 	ldrbmi	r3, [pc, #-1865]	; 2ad7 <_Min_Stack_Size+0x26d7>
    321c:	4e28204e 	cdpmi	0, 2, cr2, cr8, cr14, {2}
    3220:	5f434956 	svcpl	0x00434956
    3224:	52455349 	subpl	r5, r5, #603979777	; 0x24000001
    3228:	283d7c30 	ldmdacs	sp!, {r4, r5, sl, fp, ip, sp, lr}
    322c:	453c3c31 	ldrmi	r3, [ip, #-3121]!	; 0xfffff3cf
    3230:	5f375458 	svcpl	0x00375458
    3234:	29515249 	ldmdbcs	r1, {r0, r3, r6, r9, ip, lr}^
    3238:	68630029 	stmdavs	r3!, {r0, r3, r5}^
    323c:	2b207261 	blcs	81fbc8 <_Min_Stack_Size+0x81f7c8>
    3240:	5f5f0030 	svcpl	0x005f0030
    3244:	4152464c 	cmpmi	r2, ip, asr #12
    3248:	4d5f5443 	cfldrdmi	mvd5, [pc, #-268]	; 3144 <_Min_Stack_Size+0x2d44>
    324c:	5f5f5841 	svcpl	0x005f5841
    3250:	37583020 	ldrbcc	r3, [r8, -r0, lsr #32]
    3254:	46464646 	strbmi	r4, [r6], -r6, asr #12
    3258:	50464646 	subpl	r4, r6, r6, asr #12
    325c:	4c31332d 	ldcmi	3, cr3, [r1], #-180	; 0xffffff4c
    3260:	5f5f0052 	svcpl	0x005f0052
    3264:	455a4953 	ldrbmi	r4, [sl, #-2387]	; 0xfffff6ad
    3268:	505f464f 	subspl	r4, pc, pc, asr #12
    326c:	49445254 	stmdbmi	r4, {r2, r4, r6, r9, ip, lr}^
    3270:	545f4646 	ldrbpl	r4, [pc], #-1606	; 3278 <_Min_Stack_Size+0x2e78>
    3274:	34205f5f 	strtcc	r5, [r0], #-3935	; 0xfffff0a1
    3278:	54584500 	ldrbpl	r4, [r8], #-1280	; 0xfffffb00
    327c:	20313149 	eorscs	r3, r1, r9, asr #2
    3280:	5f003131 	svcpl	0x00003131
    3284:	4454535f 	ldrbmi	r5, [r4], #-863	; 0xfffffca1
    3288:	205f5f43 	subscs	r5, pc, r3, asr #30
    328c:	5f5f0031 	svcpl	0x005f0031
    3290:	746e695f 	strbtvc	r6, [lr], #-2399	; 0xfffff6a1
    3294:	61656c5f 	cmnvs	r5, pc, asr ip
    3298:	5f387473 	svcpl	0x00387473
    329c:	65645f74 	strbvs	r5, [r4, #-3956]!	; 0xfffff08c
    32a0:	656e6966 	strbvs	r6, [lr, #-2406]!	; 0xfffff69a
    32a4:	00312064 	eorseq	r2, r1, r4, rrx
    32a8:	52415f5f 	subpl	r5, r1, #380	; 0x17c
    32ac:	45465f4d 	strbmi	r5, [r6, #-3917]	; 0xfffff0b3
    32b0:	52555441 	subspl	r5, r5, #1090519040	; 0x41000000
    32b4:	44495f45 	strbmi	r5, [r9], #-3909	; 0xfffff0bb
    32b8:	31205649 			; <UNDEFINED> instruction: 0x31205649
    32bc:	465f5f00 	ldrbmi	r5, [pc], -r0, lsl #30
    32c0:	54414f4c 	strbpl	r4, [r1], #-3916	; 0xfffff0b4
    32c4:	524f575f 	subpl	r5, pc, #24903680	; 0x17c0000
    32c8:	524f5f44 	subpl	r5, pc, #68, 30	; 0x110
    32cc:	5f524544 	svcpl	0x00524544
    32d0:	5f5f205f 	svcpl	0x005f205f
    32d4:	4544524f 	strbmi	r5, [r4, #-591]	; 0xfffffdb1
    32d8:	494c5f52 	stmdbmi	ip, {r1, r4, r6, r8, r9, sl, fp, ip, lr}^
    32dc:	454c5454 	strbmi	r5, [ip, #-1108]	; 0xfffffbac
    32e0:	444e455f 	strbmi	r4, [lr], #-1375	; 0xfffffaa1
    32e4:	5f4e4149 	svcpl	0x004e4149
    32e8:	5f5f005f 	svcpl	0x005f005f
    32ec:	544e4955 	strbpl	r4, [lr], #-2389	; 0xfffff6ab
    32f0:	59545f38 	ldmdbpl	r4, {r3, r4, r5, r8, r9, sl, fp, ip, lr}^
    32f4:	5f5f4550 	svcpl	0x005f4550
    32f8:	736e7520 	cmnvc	lr, #32, 10	; 0x8000000
    32fc:	656e6769 	strbvs	r6, [lr, #-1897]!	; 0xfffff897
    3300:	68632064 	stmdavs	r3!, {r2, r5, r6, sp}^
    3304:	5f007261 	svcpl	0x00007261
    3308:	746e695f 	strbtvc	r6, [lr], #-2399	; 0xfffff6a1
    330c:	7361665f 	cmnvc	r1, #99614720	; 0x5f00000
    3310:	745f3874 	ldrbvc	r3, [pc], #-2164	; 3318 <_Min_Stack_Size+0x2f18>
    3314:	6665645f 			; <UNDEFINED> instruction: 0x6665645f
    3318:	64656e69 	strbtvs	r6, [r5], #-3689	; 0xfffff197
    331c:	5f003120 	svcpl	0x00003120
    3320:	4e49555f 	mcrmi	5, 2, r5, cr9, cr15, {2}
    3324:	454c5f54 	strbmi	r5, [ip, #-3924]	; 0xfffff0ac
    3328:	38545341 	ldmdacc	r4, {r0, r6, r8, r9, ip, lr}^
    332c:	5059545f 	subspl	r5, r9, pc, asr r4
    3330:	205f5f45 	subscs	r5, pc, r5, asr #30
    3334:	69736e75 	ldmdbvs	r3!, {r0, r2, r4, r5, r6, r9, sl, fp, sp, lr}^
    3338:	64656e67 	strbtvs	r6, [r5], #-3687	; 0xfffff199
    333c:	61686320 	cmnvs	r8, r0, lsr #6
    3340:	564e0072 			; <UNDEFINED> instruction: 0x564e0072
    3344:	455f4349 	ldrbmi	r4, [pc, #-841]	; 3003 <_Min_Stack_Size+0x2c03>
    3348:	35495458 	strbcc	r5, [r9, #-1112]	; 0xfffffba8
    334c:	204e455f 	subcs	r4, lr, pc, asr r5
    3350:	49564e28 	ldmdbmi	r6, {r3, r5, r9, sl, fp, lr}^
    3354:	53495f43 	movtpl	r5, #40771	; 0x9f43
    3358:	7c305245 	lfmvc	f5, 4, [r0], #-276	; 0xfffffeec
    335c:	3c31283d 	ldccc	8, cr2, [r1], #-244	; 0xffffff0c
    3360:	5458453c 	ldrbpl	r4, [r8], #-1340	; 0xfffffac4
    3364:	52495f35 	subpl	r5, r9, #53, 30	; 0xd4
    3368:	00292951 	eoreq	r2, r9, r1, asr r9
    336c:	49545845 	ldmdbmi	r4, {r0, r2, r6, fp, ip, lr}^
    3370:	31203331 			; <UNDEFINED> instruction: 0x31203331
    3374:	564e0033 			; <UNDEFINED> instruction: 0x564e0033
    3378:	495f4349 	ldmdbmi	pc, {r0, r3, r6, r8, r9, lr}^	; <UNPREDICTABLE>
    337c:	30524553 	subscc	r4, r2, r3, asr r5
    3380:	28282a20 	stmdacs	r8!, {r5, r9, fp, sp}
    3384:	69737576 	ldmdbvs	r3!, {r1, r2, r4, r5, r6, r8, sl, ip, sp, lr}^
    3388:	3233746e 	eorscc	r7, r3, #1845493760	; 0x6e000000
    338c:	2a20745f 	bcs	820510 <_Min_Stack_Size+0x820110>
    3390:	4e282029 	cdpmi	0, 2, cr2, cr8, cr9, {1}
    3394:	5f434956 	svcpl	0x00434956
    3398:	45534142 	ldrbmi	r4, [r3, #-322]	; 0xfffffebe
    339c:	3078302b 	rsbscc	r3, r8, fp, lsr #32
    33a0:	00292930 	eoreq	r2, r9, r0, lsr r9
    33a4:	31545845 	cmpcc	r4, r5, asr #16
    33a8:	31445032 	cmpcc	r4, r2, lsr r0
    33ac:	47282032 			; <UNDEFINED> instruction: 0x47282032
    33b0:	5f4f4950 	svcpl	0x004f4950
    33b4:	464e4f43 	strbmi	r4, [lr], -r3, asr #30
    33b8:	745f4749 	ldrbvc	r4, [pc], #-1865	; 33c0 <_Min_Stack_Size+0x2fc0>
    33bc:	58457b29 	stmdapl	r5, {r0, r3, r5, r8, r9, fp, ip, sp, lr}^
    33c0:	32314954 	eorscc	r4, r1, #84, 18	; 0x150000
    33c4:	4950472c 	ldmdbmi	r0, {r2, r3, r5, r8, r9, sl, lr}^
    33c8:	502c444f 	eorpl	r4, ip, pc, asr #8
    33cc:	315f4e49 	cmpcc	pc, r9, asr #28
    33d0:	58452c32 	stmdapl	r5, {r1, r4, r5, sl, fp, sp}^
    33d4:	5f323154 	svcpl	0x00323154
    33d8:	7d515249 	lfmvc	f5, 2, [r1, #-292]	; 0xfffffedc
    33dc:	415f5f00 	cmpmi	pc, r0, lsl #30
    33e0:	415f4d52 	cmpmi	pc, r2, asr sp	; <UNPREDICTABLE>
    33e4:	5f484352 	svcpl	0x00484352
    33e8:	464f5250 			; <UNDEFINED> instruction: 0x464f5250
    33ec:	00454c49 	subeq	r4, r5, r9, asr #24
    33f0:	50544e49 	subspl	r4, r4, r9, asr #28
    33f4:	4d5f5254 	lfmmi	f5, 2, [pc, #-336]	; 32ac <_Min_Stack_Size+0x2eac>
    33f8:	28205841 	stmdacs	r0!, {r0, r6, fp, ip, lr}
    33fc:	4e495f5f 	mcrmi	15, 2, r5, cr9, cr15, {2}
    3400:	52545054 	subspl	r5, r4, #84	; 0x54
    3404:	58414d5f 	stmdapl	r1, {r0, r1, r2, r3, r4, r6, r8, sl, fp, lr}^
    3408:	00295f5f 	eoreq	r5, r9, pc, asr pc
    340c:	53555f5f 	cmppl	r5, #380	; 0x17c
    3410:	42465f41 	submi	r5, r6, #260	; 0x104
    3414:	5f5f5449 	svcpl	0x005f5449
    3418:	00363120 	eorseq	r3, r6, r0, lsr #2
    341c:	4e495f5f 	mcrmi	15, 2, r5, cr9, cr15, {2}
    3420:	41465f54 	cmpmi	r6, r4, asr pc
    3424:	32335453 	eorscc	r5, r3, #1392508928	; 0x53000000
    3428:	5059545f 	subspl	r5, r9, pc, asr r4
    342c:	205f5f45 	subscs	r5, pc, r5, asr #30
    3430:	00746e69 	rsbseq	r6, r4, r9, ror #28
    3434:	4c465f5f 	mcrrmi	15, 5, r5, r6, cr15
    3438:	58323354 	ldmdapl	r2!, {r2, r4, r6, r8, r9, ip, sp}
    343c:	4e494d5f 	mcrmi	13, 2, r4, cr9, cr15, {2}
    3440:	5058455f 	subspl	r4, r8, pc, asr r5
    3444:	28205f5f 	stmdacs	r0!, {r0, r1, r2, r3, r4, r6, r8, r9, sl, fp, ip, lr}
    3448:	3230312d 	eorscc	r3, r0, #1073741835	; 0x4000000b
    344c:	5f002931 	svcpl	0x00002931
    3450:	544c465f 	strbpl	r4, [ip], #-1631	; 0xfffff9a1
    3454:	5f583233 	svcpl	0x00583233
    3458:	49535045 	ldmdbmi	r3, {r0, r2, r6, ip, lr}^
    345c:	5f4e4f4c 	svcpl	0x004e4f4c
    3460:	2e32205f 	mrccs	0, 1, r2, cr2, cr15, {2}
    3464:	34303232 	ldrtcc	r3, [r0], #-562	; 0xfffffdce
    3468:	34303634 	ldrtcc	r3, [r0], #-1588	; 0xfffff9cc
    346c:	30353239 	eorscc	r3, r5, r9, lsr r2
    3470:	31333133 	teqcc	r3, r3, lsr r1
    3474:	36312d65 	ldrtcc	r2, [r1], -r5, ror #26
    3478:	78323346 	ldmdavc	r2!, {r1, r2, r6, r8, r9, ip, sp}
    347c:	414c4600 	cmpmi	ip, r0, lsl #12
    3480:	4d5f4853 	ldclmi	8, cr4, [pc, #-332]	; 333c <_Min_Stack_Size+0x2f3c>
    3484:	524f4d45 	subpl	r4, pc, #4416	; 0x1140
    3488:	41425f59 	cmpmi	r2, r9, asr pc
    348c:	30204553 	eorcc	r4, r0, r3, asr r5
    3490:	30383078 	eorscc	r3, r8, r8, ror r0
    3494:	30303030 	eorscc	r3, r0, r0, lsr r0
    3498:	004c5530 	subeq	r5, ip, r0, lsr r5
    349c:	54415f5f 	strbpl	r5, [r1], #-3935	; 0xfffff0a1
    34a0:	454c4946 	strbmi	r4, [ip, #-2374]	; 0xfffff6ba
    34a4:	5349565f 	movtpl	r5, #38495	; 0x965f
    34a8:	454c4249 	strbmi	r4, [ip, #-585]	; 0xfffffdb7
    34ac:	45003120 	strmi	r3, [r0, #-288]	; 0xfffffee0
    34b0:	31495458 	cmpcc	r9, r8, asr r4
    34b4:	35312035 	ldrcc	r2, [r1, #-53]!	; 0xffffffcb
    34b8:	73795300 	cmnvc	r9, #0, 6
    34bc:	6b636954 	blvs	18dda14 <_Min_Stack_Size+0x18dd614>
    34c0:	5341425f 	movtpl	r4, #4703	; 0x125f
    34c4:	78302045 	ldmdavc	r0!, {r0, r2, r6, sp}
    34c8:	30303045 	eorscc	r3, r0, r5, asr #32
    34cc:	30313045 	eorscc	r3, r1, r5, asr #32
    34d0:	504e4900 	subpl	r4, lr, r0, lsl #18
    34d4:	505f5455 	subspl	r5, pc, r5, asr r4	; <UNPREDICTABLE>
    34d8:	5f5f0044 	svcpl	0x005f0044
    34dc:	5f4d5241 	svcpl	0x004d5241
    34e0:	455a4953 	ldrbmi	r4, [sl, #-2387]	; 0xfffff6ad
    34e4:	4d5f464f 	ldclmi	6, cr4, [pc, #-316]	; 33b0 <_Min_Stack_Size+0x2fb0>
    34e8:	4d494e49 	stclmi	14, cr4, [r9, #-292]	; 0xfffffedc
    34ec:	455f4c41 	ldrbmi	r4, [pc, #-3137]	; 28b3 <_Min_Stack_Size+0x24b3>
    34f0:	204d554e 	subcs	r5, sp, lr, asr #10
    34f4:	5f5f0031 	svcpl	0x005f0031
    34f8:	33544c46 	cmpcc	r4, #17920	; 0x4600
    34fc:	4e5f5832 	mrcmi	8, 2, r5, cr15, cr2, {1}
    3500:	5f4d524f 	svcpl	0x004d524f
    3504:	5f58414d 	svcpl	0x0058414d
    3508:	2e31205f 	mrccs	0, 1, r2, cr1, cr15, {2}
    350c:	36373937 			; <UNDEFINED> instruction: 0x36373937
    3510:	33313339 	teqcc	r1, #-469762048	; 0xe4000000
    3514:	32363834 	eorscc	r3, r6, #52, 16	; 0x340000
    3518:	37353133 			; <UNDEFINED> instruction: 0x37353133
    351c:	30332b65 	eorscc	r2, r3, r5, ror #22
    3520:	32334638 	eorscc	r4, r3, #56, 12	; 0x3800000
    3524:	5f5f0078 	svcpl	0x005f0078
    3528:	5f6d7261 	svcpl	0x006d7261
    352c:	0031205f 	eorseq	r2, r1, pc, asr r0
    3530:	4c465f5f 	mcrrmi	15, 5, r5, r6, cr15
    3534:	5f323354 	svcpl	0x00323354
    3538:	5f4e494d 	svcpl	0x004e494d
    353c:	455f3031 	ldrbmi	r3, [pc, #-49]	; 3513 <_Min_Stack_Size+0x3113>
    3540:	5f5f5058 	svcpl	0x005f5058
    3544:	332d2820 			; <UNDEFINED> instruction: 0x332d2820
    3548:	49002937 	stmdbmi	r0, {r0, r1, r2, r4, r5, r8, fp, sp}
    354c:	5455504e 	ldrbpl	r5, [r5], #-78	; 0xffffffb2
    3550:	0055505f 	subseq	r5, r5, pc, asr r0
    3554:	4f494641 	svcmi	0x00494641
    3558:	41282820 			; <UNDEFINED> instruction: 0x41282820
    355c:	784f4946 	stmdavc	pc, {r1, r2, r6, r8, fp, lr}^	; <UNPREDICTABLE>
    3560:	4745525f 	smlsldmi	r5, r5, pc, r2	; <UNPREDICTABLE>
    3564:	20292a20 	eorcs	r2, r9, r0, lsr #20
    3568:	4f494641 	svcmi	0x00494641
    356c:	5341425f 	movtpl	r4, #4703	; 0x125f
    3570:	00292045 	eoreq	r2, r9, r5, asr #32
    3574:	31544e49 	cmpcc	r4, r9, asr #28
    3578:	494d5f36 	stmdbmi	sp, {r1, r2, r4, r5, r8, r9, sl, fp, ip, lr}^
    357c:	2d28204e 	stccs	0, cr2, [r8, #-312]!	; 0xfffffec8
    3580:	4e495f5f 	mcrmi	15, 2, r5, cr9, cr15, {2}
    3584:	5f363154 	svcpl	0x00363154
    3588:	5f58414d 	svcpl	0x0058414d
    358c:	202d205f 	eorcs	r2, sp, pc, asr r0
    3590:	5f002931 	svcpl	0x00002931
    3594:	4d52415f 	ldfmie	f4, [r2, #-380]	; 0xfffffe84
    3598:	3150465f 	cmpcc	r0, pc, asr r6
    359c:	4f465f36 	svcmi	0x00465f36
    35a0:	54414d52 	strbpl	r4, [r1], #-3410	; 0xfffff2ae
    35a4:	544c415f 	strbpl	r4, [ip], #-351	; 0xfffffea1
    35a8:	414e5245 	cmpmi	lr, r5, asr #4
    35ac:	45564954 	ldrbmi	r4, [r6, #-2388]	; 0xfffff6ac
    35b0:	4c5f5f00 	mrrcmi	15, 0, r5, pc, cr0	; <UNPREDICTABLE>
    35b4:	5f4c4244 	svcpl	0x004c4244
    35b8:	4d524f4e 	ldclmi	15, cr4, [r2, #-312]	; 0xfffffec8
    35bc:	58414d5f 	stmdapl	r1, {r0, r1, r2, r3, r4, r6, r8, sl, fp, lr}^
    35c0:	31205f5f 			; <UNDEFINED> instruction: 0x31205f5f
    35c4:	3739372e 	ldrcc	r3, [r9, -lr, lsr #14]!
    35c8:	31333936 	teqcc	r3, r6, lsr r9
    35cc:	36383433 			; <UNDEFINED> instruction: 0x36383433
    35d0:	35313332 	ldrcc	r3, [r1, #-818]!	; 0xfffffcce
    35d4:	332b6537 			; <UNDEFINED> instruction: 0x332b6537
    35d8:	004c3830 	subeq	r3, ip, r0, lsr r8
    35dc:	43414d5f 	movtmi	r4, #7519	; 0x1d5f
    35e0:	454e4948 	strbmi	r4, [lr, #-2376]	; 0xfffff6b8
    35e4:	45445f5f 	strbmi	r5, [r4, #-3935]	; 0xfffff0a1
    35e8:	4c554146 	ldfmie	f4, [r5], {70}	; 0x46
    35ec:	59545f54 	ldmdbpl	r4, {r2, r4, r6, r8, r9, sl, fp, ip, lr}^
    35f0:	5f534550 	svcpl	0x00534550
    35f4:	47002048 	strmi	r2, [r0, -r8, asr #32]
    35f8:	434f4950 	movtmi	r4, #63824	; 0xf950
    35fc:	47282820 	strmi	r2, [r8, -r0, lsr #16]!
    3600:	784f4950 	stmdavc	pc, {r4, r6, r8, fp, lr}^	; <UNPREDICTABLE>
    3604:	4745525f 	smlsldmi	r5, r5, pc, r2	; <UNPREDICTABLE>
    3608:	20292a20 	eorcs	r2, r9, r0, lsr #20
    360c:	4f495047 	svcmi	0x00495047
    3610:	41425f43 	cmpmi	r2, r3, asr #30
    3614:	00294553 	eoreq	r4, r9, r3, asr r5
    3618:	31545845 	cmpcc	r4, r5, asr #16
    361c:	31445034 	cmpcc	r4, r4, lsr r0
    3620:	47282034 			; <UNDEFINED> instruction: 0x47282034
    3624:	5f4f4950 	svcpl	0x004f4950
    3628:	464e4f43 	strbmi	r4, [lr], -r3, asr #30
    362c:	745f4749 	ldrbvc	r4, [pc], #-1865	; 3634 <_Min_Stack_Size+0x3234>
    3630:	58457b29 	stmdapl	r5, {r0, r3, r5, r8, r9, fp, ip, sp, lr}^
    3634:	34314954 	ldrtcc	r4, [r1], #-2388	; 0xfffff6ac
    3638:	4950472c 	ldmdbmi	r0, {r2, r3, r5, r8, r9, sl, lr}^
    363c:	502c444f 	eorpl	r4, ip, pc, asr #8
    3640:	315f4e49 	cmpcc	pc, r9, asr #28
    3644:	58452c34 	stmdapl	r5, {r2, r4, r5, sl, fp, sp}^
    3648:	5f343154 	svcpl	0x00343154
    364c:	7d515249 	lfmvc	f5, 2, [r1, #-292]	; 0xfffffedc
    3650:	545f5f00 	ldrbpl	r5, [pc], #-3840	; 3658 <_Min_Stack_Size+0x3258>
    3654:	42495f41 	submi	r5, r9, #260	; 0x104
    3658:	5f5f5449 	svcpl	0x005f5449
    365c:	00343620 	eorseq	r3, r4, r0, lsr #12
    3660:	334d5453 	movtcc	r5, #54355	; 0xd453
    3664:	00312032 	eorseq	r2, r1, r2, lsr r0
    3668:	454c5f5f 	strbmi	r5, [ip, #-3935]	; 0xfffff0a1
    366c:	36545341 	ldrbcc	r5, [r4], -r1, asr #6
    3670:	6c222034 	stcvs	0, cr2, [r2], #-208	; 0xffffff30
    3674:	4500226c 	strmi	r2, [r0, #-620]	; 0xfffffd94
    3678:	50385458 	eorspl	r5, r8, r8, asr r4
    367c:	28203842 	stmdacs	r0!, {r1, r6, fp, ip, sp}
    3680:	4f495047 	svcmi	0x00495047
    3684:	4e4f435f 	mcrmi	3, 2, r4, cr15, cr15, {2}
    3688:	5f474946 	svcpl	0x00474946
    368c:	457b2974 	ldrbmi	r2, [fp, #-2420]!	; 0xfffff68c
    3690:	38495458 	stmdacc	r9, {r3, r4, r6, sl, ip, lr}^
    3694:	4950472c 	ldmdbmi	r0, {r2, r3, r5, r8, r9, sl, lr}^
    3698:	502c424f 	eorpl	r4, ip, pc, asr #4
    369c:	385f4e49 	ldmdacc	pc, {r0, r3, r6, r9, sl, fp, lr}^	; <UNPREDICTABLE>
    36a0:	5458452c 	ldrbpl	r4, [r8], #-1324	; 0xfffffad4
    36a4:	52495f38 	subpl	r5, r9, #56, 30	; 0xe0
    36a8:	45007d51 	strmi	r7, [r0, #-3409]	; 0xfffff2af
    36ac:	50345458 	eorspl	r5, r4, r8, asr r4
    36b0:	28203444 	stmdacs	r0!, {r2, r6, sl, ip, sp}
    36b4:	4f495047 	svcmi	0x00495047
    36b8:	4e4f435f 	mcrmi	3, 2, r4, cr15, cr15, {2}
    36bc:	5f474946 	svcpl	0x00474946
    36c0:	457b2974 	ldrbmi	r2, [fp, #-2420]!	; 0xfffff68c
    36c4:	34495458 	strbcc	r5, [r9], #-1112	; 0xfffffba8
    36c8:	4950472c 	ldmdbmi	r0, {r2, r3, r5, r8, r9, sl, lr}^
    36cc:	502c444f 	eorpl	r4, ip, pc, asr #8
    36d0:	345f4e49 	ldrbcc	r4, [pc], #-3657	; 36d8 <_Min_Stack_Size+0x32d8>
    36d4:	5458452c 	ldrbpl	r4, [r8], #-1324	; 0xfffffad4
    36d8:	52495f34 	subpl	r5, r9, #52, 30	; 0xd0
    36dc:	5f007d51 	svcpl	0x00007d51
    36e0:	4d52415f 	ldfmie	f4, [r2, #-380]	; 0xfffffe84
    36e4:	4145465f 	cmpmi	r5, pc, asr r6
    36e8:	45525554 	ldrbmi	r5, [r2, #-1364]	; 0xfffffaac
    36ec:	4452515f 	ldrbmi	r5, [r2], #-351	; 0xfffffea1
    36f0:	5f00584d 	svcpl	0x0000584d
    36f4:	4d52415f 	ldfmie	f4, [r2, #-380]	; 0xfffffe84
    36f8:	4352415f 	cmpmi	r2, #-1073741801	; 0xc0000017
    36fc:	53495f48 	movtpl	r5, #40776	; 0x9f48
    3700:	48545f41 	ldmdami	r4, {r0, r6, r8, r9, sl, fp, ip, lr}^
    3704:	20424d55 	subcs	r4, r2, r5, asr sp
    3708:	554f0032 	strbpl	r0, [pc, #-50]	; 36de <_Min_Stack_Size+0x32de>
    370c:	54555054 	ldrbpl	r5, [r5], #-84	; 0xffffffac
    3710:	00444f5f 	subeq	r4, r4, pc, asr pc
    3714:	4f4c5f5f 	svcmi	0x004c5f5f
    3718:	4c5f474e 	mrrcmi	7, 4, r4, pc, cr14	; <UNPREDICTABLE>
    371c:	5f474e4f 	svcpl	0x00474e4f
    3720:	5f58414d 	svcpl	0x0058414d
    3724:	7830205f 	ldmdavc	r0!, {r0, r1, r2, r3, r4, r6, sp}
    3728:	66666637 			; <UNDEFINED> instruction: 0x66666637
    372c:	66666666 	strbtvs	r6, [r6], -r6, ror #12
    3730:	66666666 	strbtvs	r6, [r6], -r6, ror #12
    3734:	66666666 	strbtvs	r6, [r6], -r6, ror #12
    3738:	45004c4c 	strmi	r4, [r0, #-3148]	; 0xfffff3b4
    373c:	545f5458 	ldrbpl	r5, [pc], #-1112	; 3744 <_Min_Stack_Size+0x3344>
    3740:	47474952 	smlsldmi	r4, r7, r2, r9
    3744:	5f005245 	svcpl	0x00005245
    3748:	4e49575f 	mcrmi	7, 2, r5, cr9, cr15, {2}
    374c:	49575f54 	ldmdbmi	r7, {r2, r4, r6, r8, r9, sl, fp, ip, lr}^
    3750:	5f485444 	svcpl	0x00485444
    3754:	3233205f 	eorscc	r2, r3, #95	; 0x5f
    3758:	6e6f6c00 	cdpvs	12, 6, cr6, cr15, cr0, {0}
    375c:	68730067 	ldmdavs	r3!, {r0, r1, r2, r5, r6}^
    3760:	0074726f 	rsbseq	r7, r4, pc, ror #4
    3764:	33545845 	cmpcc	r4, #4521984	; 0x450000
    3768:	20334250 	eorscs	r4, r3, r0, asr r2
    376c:	49504728 	ldmdbmi	r0, {r3, r5, r8, r9, sl, lr}^
    3770:	4f435f4f 	svcmi	0x00435f4f
    3774:	4749464e 	strbmi	r4, [r9, -lr, asr #12]
    3778:	7b29745f 	blvc	a608fc <_Min_Stack_Size+0xa604fc>
    377c:	49545845 	ldmdbmi	r4, {r0, r2, r6, fp, ip, lr}^
    3780:	50472c33 	subpl	r2, r7, r3, lsr ip
    3784:	2c424f49 	mcrrcs	15, 4, r4, r2, cr9
    3788:	5f4e4950 	svcpl	0x004e4950
    378c:	58452c33 	stmdapl	r5, {r0, r1, r4, r5, sl, fp, sp}^
    3790:	495f3354 	ldmdbmi	pc, {r2, r4, r6, r8, r9, ip, sp}^	; <UNPREDICTABLE>
    3794:	007d5152 	rsbseq	r5, sp, r2, asr r1
    3798:	544e4955 	strbpl	r4, [lr], #-2389	; 0xfffff6ab
    379c:	5f58414d 	svcpl	0x0058414d
    37a0:	29782843 	ldmdbcs	r8!, {r0, r1, r6, fp, sp}^
    37a4:	555f5f20 	ldrbpl	r5, [pc, #-3872]	; 288c <_Min_Stack_Size+0x248c>
    37a8:	4d544e49 	ldclmi	14, cr4, [r4, #-292]	; 0xfffffedc
    37ac:	435f5841 	cmpmi	pc, #4259840	; 0x410000
    37b0:	00297828 	eoreq	r7, r9, r8, lsr #16
    37b4:	46555f5f 	usaxmi	r5, r5, pc	; <UNPREDICTABLE>
    37b8:	54434152 	strbpl	r4, [r3], #-338	; 0xfffffeae
    37bc:	4942495f 	stmdbmi	r2, {r0, r1, r2, r3, r4, r6, r8, fp, lr}^
    37c0:	205f5f54 	subscs	r5, pc, r4, asr pc	; <UNPREDICTABLE>
    37c4:	5f5f0030 	svcpl	0x005f0030
    37c8:	5f4d5241 	svcpl	0x004d5241
    37cc:	49423233 	stmdbmi	r2, {r0, r1, r4, r5, r9, ip, sp}^
    37d0:	54535f54 	ldrbpl	r5, [r3], #-3924	; 0xfffff0ac
    37d4:	20455441 	subcs	r5, r5, r1, asr #8
    37d8:	564e0031 			; <UNDEFINED> instruction: 0x564e0031
    37dc:	445f4349 	ldrbmi	r4, [pc], #-841	; 37e4 <_Min_Stack_Size+0x33e4>
    37e0:	42415349 	submi	r5, r1, #603979777	; 0x24000001
    37e4:	4e00454c 	cfsh32mi	mvfx4, mvfx0, #44
    37e8:	5f434956 	svcpl	0x00434956
    37ec:	49545845 	ldmdbmi	r4, {r0, r2, r6, fp, ip, lr}^
    37f0:	445f3131 	ldrbmi	r3, [pc], #-305	; 37f8 <_Min_Stack_Size+0x33f8>
    37f4:	564e2820 	strbpl	r2, [lr], -r0, lsr #16
    37f8:	495f4349 	ldmdbmi	pc, {r0, r3, r6, r8, r9, lr}^	; <UNPREDICTABLE>
    37fc:	31524553 	cmpcc	r2, r3, asr r5
    3800:	287e3d26 	ldmdacs	lr!, {r1, r2, r5, r8, sl, fp, ip, sp}^
    3804:	383c3c31 	ldmdacc	ip!, {r0, r4, r5, sl, fp, ip, sp}
    3808:	5f002929 	svcpl	0x00002929
    380c:	544e495f 	strbpl	r4, [lr], #-2399	; 0xfffff6a1
    3810:	28435f38 	stmdacs	r3, {r3, r4, r5, r8, r9, sl, fp, ip, lr}^
    3814:	63202963 			; <UNDEFINED> instruction: 0x63202963
    3818:	4c5f5f00 	mrrcmi	15, 0, r5, pc, cr0	; <UNPREDICTABLE>
    381c:	43415246 	movtmi	r5, #4678	; 0x1246
    3820:	42495f54 	submi	r5, r9, #84, 30	; 0x150
    3824:	5f5f5449 	svcpl	0x005f5449
    3828:	5f003020 	svcpl	0x00003020
    382c:	4c42445f 	cfstrdmi	mvd4, [r2], {95}	; 0x5f
    3830:	4e494d5f 	mcrmi	13, 2, r4, cr9, cr15, {2}
    3834:	5058455f 	subspl	r4, r8, pc, asr r5
    3838:	28205f5f 	stmdacs	r0!, {r0, r1, r2, r3, r4, r6, r8, r9, sl, fp, ip, lr}
    383c:	3230312d 	eorscc	r3, r0, #1073741835	; 0x4000000b
    3840:	5f002931 	svcpl	0x00002931
    3844:	42444c5f 	submi	r4, r4, #24320	; 0x5f00
    3848:	41485f4c 	cmpmi	r8, ip, asr #30
    384c:	45445f53 	strbmi	r5, [r4, #-3923]	; 0xfffff0ad
    3850:	4d524f4e 	ldclmi	15, cr4, [r2, #-312]	; 0xfffffec8
    3854:	31205f5f 			; <UNDEFINED> instruction: 0x31205f5f
    3858:	53595300 	cmppl	r9, #0, 6
    385c:	4d454d5f 	stclmi	13, cr4, [r5, #-380]	; 0xfffffe84
    3860:	5f59524f 	svcpl	0x0059524f
    3864:	45534142 	ldrbmi	r4, [r3, #-322]	; 0xfffffebe
    3868:	31783020 	cmncc	r8, r0, lsr #32
    386c:	46464646 	strbmi	r4, [r6], -r6, asr #12
    3870:	55303030 	ldrpl	r3, [r0, #-48]!	; 0xffffffd0
    3874:	5845004c 	stmdapl	r5, {r2, r3, r6}^
    3878:	41503554 	cmpmi	r0, r4, asr r5
    387c:	47282035 			; <UNDEFINED> instruction: 0x47282035
    3880:	5f4f4950 	svcpl	0x004f4950
    3884:	464e4f43 	strbmi	r4, [lr], -r3, asr #30
    3888:	745f4749 	ldrbvc	r4, [pc], #-1865	; 3890 <_Min_Stack_Size+0x3490>
    388c:	58457b29 	stmdapl	r5, {r0, r3, r5, r8, r9, fp, ip, sp, lr}^
    3890:	2c354954 			; <UNDEFINED> instruction: 0x2c354954
    3894:	4f495047 	svcmi	0x00495047
    3898:	49502c41 	ldmdbmi	r0, {r0, r6, sl, fp, sp}^
    389c:	2c355f4e 	ldccs	15, cr5, [r5], #-312	; 0xfffffec8
    38a0:	35545845 	ldrbcc	r5, [r4, #-2117]	; 0xfffff7bb
    38a4:	5152495f 	cmppl	r2, pc, asr r9
    38a8:	564e007d 			; <UNDEFINED> instruction: 0x564e007d
    38ac:	455f4349 	ldrbmi	r4, [pc, #-841]	; 356b <_Min_Stack_Size+0x316b>
    38b0:	33495458 	movtcc	r5, #37976	; 0x9458
    38b4:	2820445f 	stmdacs	r0!, {r0, r1, r2, r3, r4, r6, sl, lr}
    38b8:	4349564e 	movtmi	r5, #38478	; 0x964e
    38bc:	4553495f 	ldrbmi	r4, [r3, #-2399]	; 0xfffff6a1
    38c0:	3d263052 	stccc	0, cr3, [r6, #-328]!	; 0xfffffeb8
    38c4:	3c31287e 	ldccc	8, cr2, [r1], #-504	; 0xfffffe08
    38c8:	5458453c 	ldrbpl	r4, [r8], #-1340	; 0xfffffac4
    38cc:	52495f33 	subpl	r5, r9, #51, 30	; 0xcc
    38d0:	00292951 	eoreq	r2, r9, r1, asr r9
    38d4:	31545845 	cmpcc	r4, r5, asr #16
    38d8:	52495f34 	subpl	r5, r9, #52, 30	; 0xd0
    38dc:	30342051 	eorscc	r2, r4, r1, asr r0
    38e0:	465f5f00 	ldrbmi	r5, [pc], -r0, lsl #30
    38e4:	3233544c 	eorscc	r5, r3, #76, 8	; 0x4c000000
    38e8:	4749445f 	smlsldmi	r4, r9, pc, r4	; <UNPREDICTABLE>
    38ec:	36205f5f 	qsaxcc	r5, r0, pc	; <UNPREDICTABLE>
    38f0:	54584500 	ldrbpl	r4, [r8], #-1280	; 0xfffffb00
    38f4:	35425035 	strbcc	r5, [r2, #-53]	; 0xffffffcb
    38f8:	50472820 	subpl	r2, r7, r0, lsr #16
    38fc:	435f4f49 	cmpmi	pc, #292	; 0x124
    3900:	49464e4f 	stmdbmi	r6, {r0, r1, r2, r3, r6, r9, sl, fp, lr}^
    3904:	29745f47 	ldmdbcs	r4!, {r0, r1, r2, r6, r8, r9, sl, fp, ip, lr}^
    3908:	5458457b 	ldrbpl	r4, [r8], #-1403	; 0xfffffa85
    390c:	472c3549 	strmi	r3, [ip, -r9, asr #10]!
    3910:	424f4950 	submi	r4, pc, #80, 18	; 0x140000
    3914:	4e49502c 	cdpmi	0, 4, cr5, cr9, cr12, {1}
    3918:	452c355f 	strmi	r3, [ip, #-1375]!	; 0xfffffaa1
    391c:	5f355458 	svcpl	0x00355458
    3920:	7d515249 	lfmvc	f5, 2, [r1, #-292]	; 0xfffffedc
    3924:	54584500 	ldrbpl	r4, [r8], #-1280	; 0xfffffb00
    3928:	39203949 	stmdbcc	r0!, {r0, r3, r6, r8, fp, ip, sp}
    392c:	4d5f5f00 	ldclmi	15, cr5, [pc, #-0]	; 3934 <_Min_Stack_Size+0x3534>
    3930:	5f435349 	svcpl	0x00435349
    3934:	49534956 	ldmdbmi	r3, {r1, r2, r4, r6, r8, fp, lr}^
    3938:	20454c42 	subcs	r4, r5, r2, asr #24
    393c:	49550031 	ldmdbmi	r5, {r0, r4, r5}^
    3940:	465f544e 	ldrbmi	r5, [pc], -lr, asr #8
    3944:	36545341 	ldrbcc	r5, [r4], -r1, asr #6
    3948:	414d5f34 	cmpmi	sp, r4, lsr pc
    394c:	5f282058 	svcpl	0x00282058
    3950:	4e49555f 	mcrmi	5, 2, r5, cr9, cr15, {2}
    3954:	41465f54 	cmpmi	r6, r4, asr pc
    3958:	34365453 	ldrtcc	r5, [r6], #-1107	; 0xfffffbad
    395c:	58414d5f 	stmdapl	r1, {r0, r1, r2, r3, r4, r6, r8, sl, fp, lr}^
    3960:	00295f5f 	eoreq	r5, r9, pc, asr pc
    3964:	31545845 	cmpcc	r4, r5, asr #16
    3968:	20314350 	eorscs	r4, r1, r0, asr r3
    396c:	49504728 	ldmdbmi	r0, {r3, r5, r8, r9, sl, lr}^
    3970:	4f435f4f 	svcmi	0x00435f4f
    3974:	4749464e 	strbmi	r4, [r9, -lr, asr #12]
    3978:	7b29745f 	blvc	a60afc <_Min_Stack_Size+0xa606fc>
    397c:	49545845 	ldmdbmi	r4, {r0, r2, r6, fp, ip, lr}^
    3980:	50472c31 	subpl	r2, r7, r1, lsr ip
    3984:	2c434f49 	mcrrcs	15, 4, r4, r3, cr9
    3988:	5f4e4950 	svcpl	0x004e4950
    398c:	58452c31 	stmdapl	r5, {r0, r4, r5, sl, fp, sp}^
    3990:	495f3154 	ldmdbmi	pc, {r2, r4, r6, r8, ip, sp}^	; <UNPREDICTABLE>
    3994:	007d5152 	rsbseq	r5, sp, r2, asr r1
    3998:	45495753 	strbmi	r5, [r9, #-1875]	; 0xfffff8ad
    399c:	5f5f0052 	svcpl	0x005f0052
    39a0:	45564148 	ldrbmi	r4, [r6, #-328]	; 0xfffffeb8
    39a4:	4550535f 	ldrbmi	r5, [r0, #-863]	; 0xfffffca1
    39a8:	414c5543 	cmpmi	ip, r3, asr #10
    39ac:	4e4f4954 			; <UNDEFINED> instruction: 0x4e4f4954
    39b0:	4641535f 			; <UNDEFINED> instruction: 0x4641535f
    39b4:	41565f45 	cmpmi	r6, r5, asr #30
    39b8:	2045554c 	subcs	r5, r5, ip, asr #10
    39bc:	5f5f0031 	svcpl	0x005f0031
    39c0:	43434153 	movtmi	r4, #12627	; 0x3153
    39c4:	465f4d55 			; <UNDEFINED> instruction: 0x465f4d55
    39c8:	5f544942 	svcpl	0x00544942
    39cc:	0037205f 	eorseq	r2, r7, pc, asr r0
    39d0:	4c41434d 	mcrrmi	3, 4, r4, r1, cr13
    39d4:	5458455f 	ldrbpl	r4, [r8], #-1375	; 0xfffffaa1
    39d8:	6e695f49 	cdpvs	15, 6, cr5, cr9, cr9, {2}
    39dc:	5f007469 	svcpl	0x00007469
    39e0:	4343415f 	movtmi	r4, #12639	; 0x315f
    39e4:	4d5f4d55 	ldclmi	13, cr4, [pc, #-340]	; 3898 <_Min_Stack_Size+0x3498>
    39e8:	5f5f4e49 	svcpl	0x005f4e49
    39ec:	302d2820 	eorcc	r2, sp, r0, lsr #16
    39f0:	31503158 	cmpcc	r0, r8, asr r1
    39f4:	302d4b35 	eorcc	r4, sp, r5, lsr fp
    39f8:	31503158 	cmpcc	r0, r8, asr r1
    39fc:	00294b35 	eoreq	r4, r9, r5, lsr fp
    3a00:	52415f5f 	subpl	r5, r1, #380	; 0x17c
    3a04:	45465f4d 	strbmi	r5, [r6, #-3917]	; 0xfffff0b3
    3a08:	52555441 	subspl	r5, r5, #1090519040	; 0x41000000
    3a0c:	52435f45 	subpl	r5, r3, #276	; 0x114
    3a10:	4f545059 	svcmi	0x00545059
    3a14:	495f5f00 	ldmdbmi	pc, {r8, r9, sl, fp, ip, lr}^	; <UNPREDICTABLE>
    3a18:	4c5f544e 	cfldrdmi	mvd5, [pc], {78}	; 0x4e
    3a1c:	54534145 	ldrbpl	r4, [r3], #-325	; 0xfffffebb
    3a20:	545f3233 	ldrbpl	r3, [pc], #-563	; 3a28 <_Min_Stack_Size+0x3628>
    3a24:	5f455059 	svcpl	0x00455059
    3a28:	6f6c205f 	svcvs	0x006c205f
    3a2c:	6920676e 	stmdbvs	r0!, {r1, r2, r3, r5, r6, r8, r9, sl, sp, lr}
    3a30:	4e00746e 	cdpmi	4, 0, cr7, cr0, cr14, {3}
    3a34:	5f434956 	svcpl	0x00434956
    3a38:	49545845 	ldmdbmi	r4, {r0, r2, r6, fp, ip, lr}^
    3a3c:	445f3231 	ldrbmi	r3, [pc], #-561	; 3a44 <_Min_Stack_Size+0x3644>
    3a40:	564e2820 	strbpl	r2, [lr], -r0, lsr #16
    3a44:	495f4349 	ldmdbmi	pc, {r0, r3, r6, r8, r9, lr}^	; <UNPREDICTABLE>
    3a48:	31524553 	cmpcc	r2, r3, asr r5
    3a4c:	287e3d26 	ldmdacs	lr!, {r1, r2, r5, r8, sl, fp, ip, sp}^
    3a50:	383c3c31 	ldmdacc	ip!, {r0, r4, r5, sl, fp, ip, sp}
    3a54:	45002929 	strmi	r2, [r0, #-2345]	; 0xfffff6d7
    3a58:	50325458 	eorspl	r5, r2, r8, asr r4
    3a5c:	28203242 	stmdacs	r0!, {r1, r6, r9, ip, sp}
    3a60:	4f495047 	svcmi	0x00495047
    3a64:	4e4f435f 	mcrmi	3, 2, r4, cr15, cr15, {2}
    3a68:	5f474946 	svcpl	0x00474946
    3a6c:	457b2974 	ldrbmi	r2, [fp, #-2420]!	; 0xfffff68c
    3a70:	32495458 	subcc	r5, r9, #88, 8	; 0x58000000
    3a74:	4950472c 	ldmdbmi	r0, {r2, r3, r5, r8, r9, sl, lr}^
    3a78:	502c424f 	eorpl	r4, ip, pc, asr #4
    3a7c:	325f4e49 	subscc	r4, pc, #1168	; 0x490
    3a80:	5458452c 	ldrbpl	r4, [r8], #-1324	; 0xfffffad4
    3a84:	52495f32 	subpl	r5, r9, #50, 30	; 0xc8
    3a88:	4e007d51 	mcrmi	13, 0, r7, cr0, cr1, {2}
    3a8c:	5f434956 	svcpl	0x00434956
    3a90:	49545845 	ldmdbmi	r4, {r0, r2, r6, fp, ip, lr}^
    3a94:	4e455f34 	mcrmi	15, 2, r5, cr5, cr4, {1}
    3a98:	564e2820 	strbpl	r2, [lr], -r0, lsr #16
    3a9c:	495f4349 	ldmdbmi	pc, {r0, r3, r6, r8, r9, lr}^	; <UNPREDICTABLE>
    3aa0:	30524553 	subscc	r4, r2, r3, asr r5
    3aa4:	31283d7c 			; <UNDEFINED> instruction: 0x31283d7c
    3aa8:	58453c3c 	stmdapl	r5, {r2, r3, r4, r5, sl, fp, ip, sp}^
    3aac:	495f3454 	ldmdbmi	pc, {r2, r4, r6, sl, ip, sp}^	; <UNPREDICTABLE>
    3ab0:	29295152 	stmdbcs	r9!, {r1, r4, r6, r8, ip, lr}
    3ab4:	54584500 	ldrbpl	r4, [r8], #-1280	; 0xfffffb00
    3ab8:	6f635f49 	svcvs	0x00635f49
    3abc:	6769666e 	strbvs	r6, [r9, -lr, ror #12]!
    3ac0:	4f00745f 	svcmi	0x0000745f
    3ac4:	55505455 	ldrbpl	r5, [r0, #-1109]	; 0xfffffbab
    3ac8:	50505f54 	subspl	r5, r0, r4, asr pc
    3acc:	54584500 	ldrbpl	r4, [r8], #-1280	; 0xfffffb00
    3ad0:	44503531 	ldrbmi	r3, [r0], #-1329	; 0xfffffacf
    3ad4:	28203531 	stmdacs	r0!, {r0, r4, r5, r8, sl, ip, sp}
    3ad8:	4f495047 	svcmi	0x00495047
    3adc:	4e4f435f 	mcrmi	3, 2, r4, cr15, cr15, {2}
    3ae0:	5f474946 	svcpl	0x00474946
    3ae4:	457b2974 	ldrbmi	r2, [fp, #-2420]!	; 0xfffff68c
    3ae8:	31495458 	cmpcc	r9, r8, asr r4
    3aec:	50472c35 	subpl	r2, r7, r5, lsr ip
    3af0:	2c444f49 	mcrrcs	15, 4, r4, r4, cr9
    3af4:	5f4e4950 	svcpl	0x004e4950
    3af8:	452c3531 	strmi	r3, [ip, #-1329]!	; 0xfffffacf
    3afc:	35315458 	ldrcc	r5, [r1, #-1112]!	; 0xfffffba8
    3b00:	5152495f 	cmppl	r2, pc, asr r9
    3b04:	5047007d 	subpl	r0, r7, sp, ror r0
    3b08:	20444f49 	subcs	r4, r4, r9, asr #30
    3b0c:	50472828 	subpl	r2, r7, r8, lsr #16
    3b10:	5f784f49 	svcpl	0x00784f49
    3b14:	20474552 	subcs	r4, r7, r2, asr r5
    3b18:	4720292a 	strmi	r2, [r0, -sl, lsr #18]!
    3b1c:	444f4950 	strbmi	r4, [pc], #-2384	; 3b24 <_Min_Stack_Size+0x3724>
    3b20:	5341425f 	movtpl	r4, #4703	; 0x125f
    3b24:	5f002945 	svcpl	0x00002945
    3b28:	4f54415f 	svcmi	0x0054415f
    3b2c:	5f43494d 	svcpl	0x0043494d
    3b30:	55514341 	ldrbpl	r4, [r1, #-833]	; 0xfffffcbf
    3b34:	20455249 	subcs	r5, r5, r9, asr #4
    3b38:	5f5f0032 	svcpl	0x005f0032
    3b3c:	36544c46 	ldrbcc	r4, [r4], -r6, asr #24
    3b40:	53495f34 	movtpl	r5, #40756	; 0x9f34
    3b44:	4345495f 	movtmi	r4, #22879	; 0x595f
    3b48:	3530365f 	ldrcc	r3, [r0, #-1631]!	; 0xfffff9a1
    3b4c:	5f5f3935 	svcpl	0x005f3935
    3b50:	5f003220 	svcpl	0x00003220
    3b54:	57454e5f 	smlsldpl	r4, r5, pc, lr	; <UNPREDICTABLE>
    3b58:	5f42494c 	svcpl	0x0042494c
    3b5c:	43544150 	cmpmi	r4, #80, 2
    3b60:	56454c48 	strbpl	r4, [r5], -r8, asr #24
    3b64:	5f5f4c45 	svcpl	0x005f4c45
    3b68:	5f003020 	svcpl	0x00003020
    3b6c:	44524f5f 	ldrbmi	r4, [r2], #-3935	; 0xfffff0a1
    3b70:	4c5f5245 	lfmmi	f5, 2, [pc], {69}	; 0x45
    3b74:	4c545449 	cfldrdmi	mvd5, [r4], {73}	; 0x49
    3b78:	4e455f45 	cdpmi	15, 4, cr5, cr5, cr5, {2}
    3b7c:	4e414944 	vmlsmi.f16	s9, s2, s8	; <UNPREDICTABLE>
    3b80:	31205f5f 			; <UNDEFINED> instruction: 0x31205f5f
    3b84:	00343332 	eorseq	r3, r4, r2, lsr r3
    3b88:	4c465f5f 	mcrrmi	15, 5, r5, r6, cr15
    3b8c:	4f4e5f54 	svcmi	0x004e5f54
    3b90:	4d5f4d52 	ldclmi	13, cr4, [pc, #-328]	; 3a50 <_Min_Stack_Size+0x3650>
    3b94:	5f5f5841 	svcpl	0x005f5841
    3b98:	342e3320 	strtcc	r3, [lr], #-800	; 0xfffffce0
    3b9c:	32383230 	eorscc	r3, r8, #48, 4
    3ba0:	36363433 			; <UNDEFINED> instruction: 0x36363433
    3ba4:	32353833 	eorscc	r3, r5, #3342336	; 0x330000
    3ba8:	65363838 	ldrvs	r3, [r6, #-2104]!	; 0xfffff7c8
    3bac:	4638332b 	ldrtmi	r3, [r8], -fp, lsr #6
    3bb0:	54584500 	ldrbpl	r4, [r8], #-1280	; 0xfffffb00
    3bb4:	43503031 	cmpmi	r0, #49	; 0x31
    3bb8:	28203031 	stmdacs	r0!, {r0, r4, r5, ip, sp}
    3bbc:	4f495047 	svcmi	0x00495047
    3bc0:	4e4f435f 	mcrmi	3, 2, r4, cr15, cr15, {2}
    3bc4:	5f474946 	svcpl	0x00474946
    3bc8:	457b2974 	ldrbmi	r2, [fp, #-2420]!	; 0xfffff68c
    3bcc:	31495458 	cmpcc	r9, r8, asr r4
    3bd0:	50472c30 	subpl	r2, r7, r0, lsr ip
    3bd4:	2c434f49 	mcrrcs	15, 4, r4, r3, cr9
    3bd8:	5f4e4950 	svcpl	0x004e4950
    3bdc:	452c3031 	strmi	r3, [ip, #-49]!	; 0xffffffcf
    3be0:	30315458 	eorscc	r5, r1, r8, asr r4
    3be4:	5152495f 	cmppl	r2, pc, asr r9
    3be8:	4955007d 	ldmdbmi	r5, {r0, r2, r3, r4, r5, r6}^
    3bec:	4c5f544e 	cfldrdmi	mvd5, [pc], {78}	; 0x4e
    3bf0:	54534145 	ldrbpl	r4, [r3], #-325	; 0xfffffebb
    3bf4:	4d5f3436 	cfldrdmi	mvd3, [pc, #-216]	; 3b24 <_Min_Stack_Size+0x3724>
    3bf8:	28205841 	stmdacs	r0!, {r0, r6, fp, ip, lr}
    3bfc:	49555f5f 	ldmdbmi	r5, {r0, r1, r2, r3, r4, r6, r8, r9, sl, fp, ip, lr}^
    3c00:	4c5f544e 	cfldrdmi	mvd5, [pc], {78}	; 0x4e
    3c04:	54534145 	ldrbpl	r4, [r3], #-325	; 0xfffffebb
    3c08:	4d5f3436 	cfldrdmi	mvd3, [pc, #-216]	; 3b38 <_Min_Stack_Size+0x3738>
    3c0c:	5f5f5841 	svcpl	0x005f5841
    3c10:	5f5f0029 	svcpl	0x005f0029
    3c14:	5f544c46 	svcpl	0x00544c46
    3c18:	5f4e494d 	svcpl	0x004e494d
    3c1c:	455f3031 	ldrbmi	r3, [pc, #-49]	; 3bf3 <_Min_Stack_Size+0x37f3>
    3c20:	5f5f5058 	svcpl	0x005f5058
    3c24:	332d2820 			; <UNDEFINED> instruction: 0x332d2820
    3c28:	5f002937 	svcpl	0x00002937
    3c2c:	414c555f 	cmpmi	ip, pc, asr r5
    3c30:	4d554343 	ldclmi	3, cr4, [r5, #-268]	; 0xfffffef4
    3c34:	4942495f 	stmdbmi	r2, {r0, r1, r2, r3, r4, r6, r8, fp, lr}^
    3c38:	205f5f54 	subscs	r5, pc, r4, asr pc	; <UNPREDICTABLE>
    3c3c:	5f003233 	svcpl	0x00003233
    3c40:	5248535f 	subpl	r5, r8, #2080374785	; 0x7c000001
    3c44:	414d5f54 	cmpmi	sp, r4, asr pc
    3c48:	205f5f58 	subscs	r5, pc, r8, asr pc	; <UNPREDICTABLE>
    3c4c:	66377830 			; <UNDEFINED> instruction: 0x66377830
    3c50:	5f006666 	svcpl	0x00006666
    3c54:	42444c5f 	submi	r4, r4, #24320	; 0x5f00
    3c58:	53495f4c 	movtpl	r5, #40780	; 0x9f4c
    3c5c:	4345495f 	movtmi	r4, #22879	; 0x595f
    3c60:	3530365f 	ldrcc	r3, [r0, #-1631]!	; 0xfffff9a1
    3c64:	5f5f3935 	svcpl	0x005f3935
    3c68:	5f003220 	svcpl	0x00003220
    3c6c:	4c4c555f 	cfstr64mi	mvdx5, [ip], {95}	; 0x5f
    3c70:	55434341 	strbpl	r4, [r3, #-833]	; 0xfffffcbf
    3c74:	50455f4d 	subpl	r5, r5, sp, asr #30
    3c78:	4f4c4953 	svcmi	0x004c4953
    3c7c:	205f5f4e 	subscs	r5, pc, lr, asr #30
    3c80:	50317830 	eorspl	r7, r1, r0, lsr r8
    3c84:	5532332d 	ldrpl	r3, [r2, #-813]!	; 0xfffffcd3
    3c88:	004b4c4c 	subeq	r4, fp, ip, asr #24
    3c8c:	51445f5f 	cmppl	r4, pc, asr pc
    3c90:	4942465f 	stmdbmi	r2, {r0, r1, r2, r3, r4, r6, r9, sl, lr}^
    3c94:	205f5f54 	subscs	r5, pc, r4, asr pc	; <UNPREDICTABLE>
    3c98:	5f003336 	svcpl	0x00003336
    3c9c:	554e475f 	strbpl	r4, [lr, #-1887]	; 0xfffff8a1
    3ca0:	5349565f 	movtpl	r5, #38495	; 0x965f
    3ca4:	454c4249 	strbmi	r4, [ip, #-585]	; 0xfffffdb7
    3ca8:	5f003020 	svcpl	0x00003020
    3cac:	4341535f 	movtmi	r5, #4959	; 0x135f
    3cb0:	5f4d5543 	svcpl	0x004d5543
    3cb4:	54494249 	strbpl	r4, [r9], #-585	; 0xfffffdb7
    3cb8:	38205f5f 	stmdacc	r0!, {r0, r1, r2, r3, r4, r6, r8, r9, sl, fp, ip, lr}
    3cbc:	54584500 	ldrbpl	r4, [r8], #-1280	; 0xfffffb00
    3cc0:	43503331 	cmpmi	r0, #-1006632960	; 0xc4000000
    3cc4:	28203331 	stmdacs	r0!, {r0, r4, r5, r8, r9, ip, sp}
    3cc8:	4f495047 	svcmi	0x00495047
    3ccc:	4e4f435f 	mcrmi	3, 2, r4, cr15, cr15, {2}
    3cd0:	5f474946 	svcpl	0x00474946
    3cd4:	457b2974 	ldrbmi	r2, [fp, #-2420]!	; 0xfffff68c
    3cd8:	31495458 	cmpcc	r9, r8, asr r4
    3cdc:	50472c33 	subpl	r2, r7, r3, lsr ip
    3ce0:	2c434f49 	mcrrcs	15, 4, r4, r3, cr9
    3ce4:	5f4e4950 	svcpl	0x004e4950
    3ce8:	452c3331 	strmi	r3, [ip, #-817]!	; 0xfffffccf
    3cec:	33315458 	teqcc	r1, #88, 8	; 0x58000000
    3cf0:	5152495f 	cmppl	r2, pc, asr r9
    3cf4:	5845007d 	stmdapl	r5, {r0, r2, r3, r4, r5, r6}^
    3cf8:	42503054 	subsmi	r3, r0, #84	; 0x54
    3cfc:	47282030 			; <UNDEFINED> instruction: 0x47282030
    3d00:	5f4f4950 	svcpl	0x004f4950
    3d04:	464e4f43 	strbmi	r4, [lr], -r3, asr #30
    3d08:	745f4749 	ldrbvc	r4, [pc], #-1865	; 3d10 <_Min_Stack_Size+0x3910>
    3d0c:	58457b29 	stmdapl	r5, {r0, r3, r5, r8, r9, fp, ip, sp, lr}^
    3d10:	2c304954 			; <UNDEFINED> instruction: 0x2c304954
    3d14:	4f495047 	svcmi	0x00495047
    3d18:	49502c42 	ldmdbmi	r0, {r1, r6, sl, fp, sp}^
    3d1c:	2c305f4e 	ldccs	15, cr5, [r0], #-312	; 0xfffffec8
    3d20:	30545845 	subscc	r5, r4, r5, asr #16
    3d24:	5152495f 	cmppl	r2, pc, asr r9
    3d28:	5f5f007d 	svcpl	0x005f007d
    3d2c:	5f514855 	svcpl	0x00514855
    3d30:	54494249 	strbpl	r4, [r9], #-585	; 0xfffffdb7
    3d34:	30205f5f 	eorcc	r5, r0, pc, asr pc
    3d38:	475f5f00 	ldrbmi	r5, [pc, -r0, lsl #30]
    3d3c:	485f4343 	ldmdami	pc, {r0, r1, r6, r8, r9, lr}^	; <UNPREDICTABLE>
    3d40:	5f455641 	svcpl	0x00455641
    3d44:	434e5953 	movtmi	r5, #59731	; 0xe953
    3d48:	4d4f435f 	stclmi	3, cr4, [pc, #-380]	; 3bd4 <_Min_Stack_Size+0x37d4>
    3d4c:	45524150 	ldrbmi	r4, [r2, #-336]	; 0xfffffeb0
    3d50:	444e415f 	strbmi	r4, [lr], #-351	; 0xfffffea1
    3d54:	4157535f 	cmpmi	r7, pc, asr r3
    3d58:	20345f50 	eorscs	r5, r4, r0, asr pc
    3d5c:	5f5f0031 	svcpl	0x005f0031
    3d60:	5f544e49 	svcpl	0x00544e49
    3d64:	54534146 	ldrbpl	r4, [r3], #-326	; 0xfffffeba
    3d68:	545f3631 	ldrbpl	r3, [pc], #-1585	; 3d70 <_Min_Stack_Size+0x3970>
    3d6c:	5f455059 	svcpl	0x00455059
    3d70:	6e69205f 	mcrvs	0, 3, r2, cr9, cr15, {2}
    3d74:	555f0074 	ldrbpl	r0, [pc, #-116]	; 3d08 <_Min_Stack_Size+0x3908>
    3d78:	4d544e49 	ldclmi	14, cr4, [r4, #-292]	; 0xfffffedc
    3d7c:	545f5841 	ldrbpl	r5, [pc], #-2113	; 3d84 <_Min_Stack_Size+0x3984>
    3d80:	4345445f 	movtmi	r4, #21599	; 0x545f
    3d84:	4552414c 	ldrbmi	r4, [r2, #-332]	; 0xfffffeb4
    3d88:	5f002044 	svcpl	0x00002044
    3d8c:	4341535f 	movtmi	r5, #4959	; 0x135f
    3d90:	5f4d5543 	svcpl	0x004d5543
    3d94:	5f4e494d 	svcpl	0x004e494d
    3d98:	2d28205f 	stccs	0, cr2, [r8, #-380]!	; 0xfffffe84
    3d9c:	50315830 	eorspl	r5, r1, r0, lsr r8
    3da0:	2d4b4837 	stclcs	8, cr4, [fp, #-220]	; 0xffffff24
    3da4:	50315830 	eorspl	r5, r1, r0, lsr r8
    3da8:	294b4837 	stmdbcs	fp, {r0, r1, r2, r4, r5, fp, lr}^
    3dac:	555f5f00 	ldrbpl	r5, [pc, #-3840]	; 2eb4 <_Min_Stack_Size+0x2ab4>
    3db0:	4152464c 	cmpmi	r2, ip, asr #12
    3db4:	4d5f5443 	cfldrdmi	mvd5, [pc, #-268]	; 3cb0 <_Min_Stack_Size+0x38b0>
    3db8:	5f5f5841 	svcpl	0x005f5841
    3dbc:	46583020 	ldrbmi	r3, [r8], -r0, lsr #32
    3dc0:	46464646 	strbmi	r4, [r6], -r6, asr #12
    3dc4:	50464646 	subpl	r4, r6, r6, asr #12
    3dc8:	5532332d 	ldrpl	r3, [r2, #-813]!	; 0xfffffcd3
    3dcc:	5f00524c 	svcpl	0x0000524c
    3dd0:	4e49555f 	mcrmi	5, 2, r5, cr9, cr15, {2}
    3dd4:	454c5f54 	strbmi	r5, [ip, #-3924]	; 0xfffff0ac
    3dd8:	31545341 	cmpcc	r4, r1, asr #6
    3ddc:	59545f36 	ldmdbpl	r4, {r1, r2, r4, r5, r8, r9, sl, fp, ip, lr}^
    3de0:	5f5f4550 	svcpl	0x005f4550
    3de4:	6f687320 	svcvs	0x00687320
    3de8:	75207472 	strvc	r7, [r0, #-1138]!	; 0xfffffb8e
    3dec:	6769736e 	strbvs	r7, [r9, -lr, ror #6]!
    3df0:	2064656e 	rsbcs	r6, r4, lr, ror #10
    3df4:	00746e69 	rsbseq	r6, r4, r9, ror #28
    3df8:	52415f5f 	subpl	r5, r1, #380	; 0x17c
    3dfc:	45465f4d 	strbmi	r5, [r6, #-3917]	; 0xfffff0b3
    3e00:	52555441 	subspl	r5, r5, #1090519040	; 0x41000000
    3e04:	4d465f45 	stclmi	15, cr5, [r6, #-276]	; 0xfffffeec
    3e08:	5f5f0041 	svcpl	0x005f0041
    3e0c:	4343414c 	movtmi	r4, #12620	; 0x314c
    3e10:	4d5f4d55 	ldclmi	13, cr4, [pc, #-340]	; 3cc4 <_Min_Stack_Size+0x38c4>
    3e14:	5f5f5841 	svcpl	0x005f5841
    3e18:	37583020 	ldrbcc	r3, [r8, -r0, lsr #32]
    3e1c:	46464646 	strbmi	r4, [r6], -r6, asr #12
    3e20:	46464646 	strbmi	r4, [r6], -r6, asr #12
    3e24:	46464646 	strbmi	r4, [r6], -r6, asr #12
    3e28:	50464646 	subpl	r4, r6, r6, asr #12
    3e2c:	4c31332d 	ldcmi	3, cr3, [r1], #-180	; 0xffffff4c
    3e30:	5f5f004b 	svcpl	0x005f004b
    3e34:	52414843 	subpl	r4, r1, #4390912	; 0x430000
    3e38:	545f3631 	ldrbpl	r3, [pc], #-1585	; 3e40 <_Min_Stack_Size+0x3a40>
    3e3c:	5f455059 	svcpl	0x00455059
    3e40:	6873205f 	ldmdavs	r3!, {r0, r1, r2, r3, r4, r6, sp}^
    3e44:	2074726f 	rsbscs	r7, r4, pc, ror #4
    3e48:	69736e75 	ldmdbvs	r3!, {r0, r2, r4, r5, r6, r9, sl, fp, sp, lr}^
    3e4c:	64656e67 	strbtvs	r6, [r5], #-3687	; 0xfffff199
    3e50:	746e6920 	strbtvc	r6, [lr], #-2336	; 0xfffff6e0
    3e54:	465f5f00 	ldrbmi	r5, [pc], -r0, lsl #30
    3e58:	3233544c 	eorscc	r5, r3, #76, 8	; 0x4c000000
    3e5c:	49445f58 	stmdbmi	r4, {r3, r4, r6, r8, r9, sl, fp, ip, lr}^
    3e60:	205f5f47 	subscs	r5, pc, r7, asr #30
    3e64:	45003531 	strmi	r3, [r0, #-1329]	; 0xfffffacf
    3e68:	50315458 	eorspl	r5, r1, r8, asr r4
    3e6c:	28203144 	stmdacs	r0!, {r2, r6, r8, ip, sp}
    3e70:	4f495047 	svcmi	0x00495047
    3e74:	4e4f435f 	mcrmi	3, 2, r4, cr15, cr15, {2}
    3e78:	5f474946 	svcpl	0x00474946
    3e7c:	457b2974 	ldrbmi	r2, [fp, #-2420]!	; 0xfffff68c
    3e80:	31495458 	cmpcc	r9, r8, asr r4
    3e84:	4950472c 	ldmdbmi	r0, {r2, r3, r5, r8, r9, sl, lr}^
    3e88:	502c444f 	eorpl	r4, ip, pc, asr #8
    3e8c:	315f4e49 	cmpcc	pc, r9, asr #28
    3e90:	5458452c 	ldrbpl	r4, [r8], #-1324	; 0xfffffad4
    3e94:	52495f31 	subpl	r5, r9, #49, 30	; 0xc4
    3e98:	5f007d51 	svcpl	0x00007d51
    3e9c:	5154555f 	cmppl	r4, pc, asr r5
    3ea0:	4942465f 	stmdbmi	r2, {r0, r1, r2, r3, r4, r6, r9, sl, lr}^
    3ea4:	205f5f54 	subscs	r5, pc, r4, asr pc	; <UNPREDICTABLE>
    3ea8:	00383231 	eorseq	r3, r8, r1, lsr r2
    3eac:	31545845 	cmpcc	r4, r5, asr #16
    3eb0:	31425031 	cmpcc	r2, r1, lsr r0
    3eb4:	47282031 			; <UNDEFINED> instruction: 0x47282031
    3eb8:	5f4f4950 	svcpl	0x004f4950
    3ebc:	464e4f43 	strbmi	r4, [lr], -r3, asr #30
    3ec0:	745f4749 	ldrbvc	r4, [pc], #-1865	; 3ec8 <_Min_Stack_Size+0x3ac8>
    3ec4:	58457b29 	stmdapl	r5, {r0, r3, r5, r8, r9, fp, ip, sp, lr}^
    3ec8:	31314954 	teqcc	r1, r4, asr r9
    3ecc:	4950472c 	ldmdbmi	r0, {r2, r3, r5, r8, r9, sl, lr}^
    3ed0:	502c424f 	eorpl	r4, ip, pc, asr #4
    3ed4:	315f4e49 	cmpcc	pc, r9, asr #28
    3ed8:	58452c31 	stmdapl	r5, {r0, r4, r5, sl, fp, sp}^
    3edc:	5f313154 	svcpl	0x00313154
    3ee0:	7d515249 	lfmvc	f5, 2, [r1, #-292]	; 0xfffffedc
    3ee4:	465f5f00 	ldrbmi	r5, [pc], -r0, lsl #30
    3ee8:	54494e49 	strbpl	r4, [r9], #-3657	; 0xfffff1b7
    3eec:	414d5f45 	cmpmi	sp, r5, asr #30
    3ef0:	4f5f4854 	svcmi	0x005f4854
    3ef4:	5f594c4e 	svcpl	0x00594c4e
    3ef8:	0030205f 	eorseq	r2, r0, pc, asr r0
    3efc:	4e495f5f 	mcrmi	15, 2, r5, cr9, cr15, {2}
    3f00:	41465f54 	cmpmi	r6, r4, asr pc
    3f04:	36315453 			; <UNDEFINED> instruction: 0x36315453
    3f08:	58414d5f 	stmdapl	r1, {r0, r1, r2, r3, r4, r6, r8, sl, fp, lr}^
    3f0c:	30205f5f 	eorcc	r5, r0, pc, asr pc
    3f10:	66663778 			; <UNDEFINED> instruction: 0x66663778
    3f14:	66666666 	strbtvs	r6, [r6], -r6, ror #12
    3f18:	5f5f0066 	svcpl	0x005f0066
    3f1c:	65766168 	ldrbvs	r6, [r6, #-360]!	; 0xfffffe98
    3f20:	6e6f6c5f 	mcrvs	12, 3, r6, cr15, cr15, {2}
    3f24:	6e6f6c67 	cdpvs	12, 6, cr6, cr15, cr7, {3}
    3f28:	20343667 	eorscs	r3, r4, r7, ror #12
    3f2c:	414d0031 	cmpmi	sp, r1, lsr r0
    3f30:	45005250 	strmi	r5, [r0, #-592]	; 0xfffffdb0
    3f34:	50375458 	eorspl	r5, r7, r8, asr r4
    3f38:	28203743 	stmdacs	r0!, {r0, r1, r6, r8, r9, sl, ip, sp}
    3f3c:	4f495047 	svcmi	0x00495047
    3f40:	4e4f435f 	mcrmi	3, 2, r4, cr15, cr15, {2}
    3f44:	5f474946 	svcpl	0x00474946
    3f48:	457b2974 	ldrbmi	r2, [fp, #-2420]!	; 0xfffff68c
    3f4c:	37495458 	smlsldcc	r5, r9, r8, r4
    3f50:	4950472c 	ldmdbmi	r0, {r2, r3, r5, r8, r9, sl, lr}^
    3f54:	502c434f 	eorpl	r4, ip, pc, asr #6
    3f58:	375f4e49 	ldrbcc	r4, [pc, -r9, asr #28]
    3f5c:	5458452c 	ldrbpl	r4, [r8], #-1324	; 0xfffffad4
    3f60:	52495f37 	subpl	r5, r9, #55, 30	; 0xdc
    3f64:	5f007d51 	svcpl	0x00007d51
    3f68:	5a49535f 	bpl	1258cec <_Min_Stack_Size+0x12588ec>
    3f6c:	5f464f45 	svcpl	0x00464f45
    3f70:	524f4853 	subpl	r4, pc, #5439488	; 0x530000
    3f74:	205f5f54 	subscs	r5, pc, r4, asr pc	; <UNPREDICTABLE>
    3f78:	555f0032 	ldrbpl	r0, [pc, #-50]	; 3f4e <_Min_Stack_Size+0x3b4e>
    3f7c:	50544e49 	subspl	r4, r4, r9, asr #28
    3f80:	545f5254 	ldrbpl	r5, [pc], #-596	; 3f88 <_Min_Stack_Size+0x3b88>
    3f84:	4345445f 	movtmi	r4, #21599	; 0x545f
    3f88:	4552414c 	ldrbmi	r4, [r2, #-332]	; 0xfffffeb4
    3f8c:	45002044 	strmi	r2, [r0, #-68]	; 0xffffffbc
    3f90:	34315458 	ldrtcc	r5, [r1], #-1112	; 0xfffffba8
    3f94:	34314250 	ldrtcc	r4, [r1], #-592	; 0xfffffdb0
    3f98:	50472820 	subpl	r2, r7, r0, lsr #16
    3f9c:	435f4f49 	cmpmi	pc, #292	; 0x124
    3fa0:	49464e4f 	stmdbmi	r6, {r0, r1, r2, r3, r6, r9, sl, fp, lr}^
    3fa4:	29745f47 	ldmdbcs	r4!, {r0, r1, r2, r6, r8, r9, sl, fp, ip, lr}^
    3fa8:	5458457b 	ldrbpl	r4, [r8], #-1403	; 0xfffffa85
    3fac:	2c343149 	ldfcss	f3, [r4], #-292	; 0xfffffedc
    3fb0:	4f495047 	svcmi	0x00495047
    3fb4:	49502c42 	ldmdbmi	r0, {r1, r6, sl, fp, sp}^
    3fb8:	34315f4e 	ldrtcc	r5, [r1], #-3918	; 0xfffff0b2
    3fbc:	5458452c 	ldrbpl	r4, [r8], #-1324	; 0xfffffad4
    3fc0:	495f3431 	ldmdbmi	pc, {r0, r4, r5, sl, ip, sp}^	; <UNPREDICTABLE>
    3fc4:	007d5152 	rsbseq	r5, sp, r2, asr r1
    3fc8:	5f434352 	svcpl	0x00434352
    3fcc:	45534142 	ldrbmi	r4, [r3, #-322]	; 0xfffffebe
    3fd0:	34783020 	ldrbtcc	r3, [r8], #-32	; 0xffffffe0
    3fd4:	31323030 	teqcc	r2, r0, lsr r0
    3fd8:	00303030 	eorseq	r3, r0, r0, lsr r0
    3fdc:	4c555f5f 	mrrcmi	15, 5, r5, r5, cr15	; <UNPREDICTABLE>
    3fe0:	55434341 	strbpl	r4, [r3, #-833]	; 0xfffffcbf
    3fe4:	414d5f4d 	cmpmi	sp, sp, asr #30
    3fe8:	205f5f58 	subscs	r5, pc, r8, asr pc	; <UNPREDICTABLE>
    3fec:	46465830 			; <UNDEFINED> instruction: 0x46465830
    3ff0:	46464646 	strbmi	r4, [r6], -r6, asr #12
    3ff4:	46464646 	strbmi	r4, [r6], -r6, asr #12
    3ff8:	46464646 	strbmi	r4, [r6], -r6, asr #12
    3ffc:	2d504646 	ldclcs	6, cr4, [r0, #-280]	; 0xfffffee8
    4000:	4c553233 	lfmmi	f3, 2, [r5], {51}	; 0x33
    4004:	5845004b 	stmdapl	r5, {r0, r1, r3, r6}^
    4008:	495f3854 	ldmdbmi	pc, {r2, r4, r6, fp, ip, sp}^	; <UNPREDICTABLE>
    400c:	32205152 	eorcc	r5, r0, #-2147483628	; 0x80000014
    4010:	5f5f0033 	svcpl	0x005f0033
    4014:	52464c55 	subpl	r4, r6, #21760	; 0x5500
    4018:	5f544341 	svcpl	0x00544341
    401c:	5f4e494d 	svcpl	0x004e494d
    4020:	2e30205f 	mrccs	0, 1, r2, cr0, cr15, {2}
    4024:	524c5530 	subpl	r5, ip, #48, 10	; 0xc000000
    4028:	5a495300 	bpl	1258c30 <_Min_Stack_Size+0x1258830>
    402c:	414d5f45 	cmpmi	sp, r5, asr #30
    4030:	5f282058 	svcpl	0x00282058
    4034:	5a49535f 	bpl	1258db8 <_Min_Stack_Size+0x12589b8>
    4038:	414d5f45 	cmpmi	sp, r5, asr #30
    403c:	295f5f58 	ldmdbcs	pc, {r3, r4, r6, r8, r9, sl, fp, ip, lr}^	; <UNPREDICTABLE>
    4040:	445f5f00 	ldrbmi	r5, [pc], #-3840	; 4048 <_Min_Stack_Size+0x3c48>
    4044:	42495f51 	submi	r5, r9, #324	; 0x144
    4048:	5f5f5449 	svcpl	0x005f5449
    404c:	5f003020 	svcpl	0x00003020
    4050:	4d52415f 	ldfmie	f4, [r2, #-380]	; 0xfffffe84
    4054:	3146425f 	cmpcc	r6, pc, asr r2
    4058:	4f465f36 	svcmi	0x00465f36
    405c:	54414d52 	strbpl	r4, [r1], #-3410	; 0xfffff2ae
    4060:	544c415f 	strbpl	r4, [ip], #-351	; 0xfffffea1
    4064:	414e5245 	cmpmi	lr, r5, asr #4
    4068:	45564954 	ldrbmi	r4, [r6, #-2388]	; 0xfffff6ac
    406c:	495f5f00 	ldmdbmi	pc, {r8, r9, sl, fp, ip, lr}^	; <UNPREDICTABLE>
    4070:	3233544e 	eorscc	r5, r3, #1308622848	; 0x4e000000
    4074:	5059545f 	subspl	r5, r9, pc, asr r4
    4078:	205f5f45 	subscs	r5, pc, r5, asr #30
    407c:	676e6f6c 	strbvs	r6, [lr, -ip, ror #30]!
    4080:	746e6920 	strbtvc	r6, [lr], #-2336	; 0xfffff6e0
    4084:	4e495000 	cdpmi	0, 4, cr5, cr9, cr0, {0}
    4088:	6d756e5f 	ldclvs	14, cr6, [r5, #-380]!	; 0xfffffe84
    408c:	00726562 	rsbseq	r6, r2, r2, ror #10
    4090:	6e695f5f 	mcrvs	15, 3, r5, cr9, cr15, {2}
    4094:	5f303274 	svcpl	0x00303274
    4098:	322b205f 	eorcc	r2, fp, #95	; 0x5f
    409c:	4e495f00 	cdpmi	15, 4, cr5, cr9, cr0, {0}
    40a0:	5f343654 	svcpl	0x00343654
    40a4:	45445f54 	strbmi	r5, [r4, #-3924]	; 0xfffff0ac
    40a8:	52414c43 	subpl	r4, r1, #17152	; 0x4300
    40ac:	00204445 	eoreq	r4, r0, r5, asr #8
    40b0:	52415f5f 	subpl	r5, r1, #380	; 0x17c
    40b4:	454e5f4d 	strbmi	r5, [lr, #-3917]	; 0xfffff0b3
    40b8:	465f4e4f 	ldrbmi	r4, [pc], -pc, asr #28
    40bc:	5f5f0050 	svcpl	0x005f0050
    40c0:	5f515455 	svcpl	0x00515455
    40c4:	54494249 	strbpl	r4, [r9], #-585	; 0xfffffdb7
    40c8:	30205f5f 	eorcc	r5, r0, pc, asr pc
    40cc:	54584500 	ldrbpl	r4, [r8], #-1280	; 0xfffffb00
    40d0:	32203249 	eorcc	r3, r0, #-1879048188	; 0x90000004
    40d4:	535f5f00 	cmppl	pc, #0, 30
    40d8:	42465f41 	submi	r5, r6, #260	; 0x104
    40dc:	5f5f5449 	svcpl	0x005f5449
    40e0:	00353120 	eorseq	r3, r5, r0, lsr #2
    40e4:	34545845 	ldrbcc	r5, [r4], #-2117	; 0xfffff7bb
    40e8:	20344250 	eorscs	r4, r4, r0, asr r2
    40ec:	49504728 	ldmdbmi	r0, {r3, r5, r8, r9, sl, lr}^
    40f0:	4f435f4f 	svcmi	0x00435f4f
    40f4:	4749464e 	strbmi	r4, [r9, -lr, asr #12]
    40f8:	7b29745f 	blvc	a6127c <_Min_Stack_Size+0xa60e7c>
    40fc:	49545845 	ldmdbmi	r4, {r0, r2, r6, fp, ip, lr}^
    4100:	50472c34 	subpl	r2, r7, r4, lsr ip
    4104:	2c424f49 	mcrrcs	15, 4, r4, r2, cr9
    4108:	5f4e4950 	svcpl	0x004e4950
    410c:	58452c34 	stmdapl	r5, {r2, r4, r5, sl, fp, sp}^
    4110:	495f3454 	ldmdbmi	pc, {r2, r4, r6, sl, ip, sp}^	; <UNPREDICTABLE>
    4114:	007d5152 	rsbseq	r5, sp, r2, asr r1
    4118:	4c465f5f 	mcrrmi	15, 5, r5, r6, cr15
    411c:	58323354 	ldmdapl	r2!, {r2, r4, r6, r8, r9, ip, sp}
    4120:	58414d5f 	stmdapl	r1, {r0, r1, r2, r3, r4, r6, r8, sl, fp, lr}^
    4124:	31205f5f 			; <UNDEFINED> instruction: 0x31205f5f
    4128:	3739372e 	ldrcc	r3, [r9, -lr, lsr #14]!
    412c:	31333936 	teqcc	r3, r6, lsr r9
    4130:	36383433 			; <UNDEFINED> instruction: 0x36383433
    4134:	35313332 	ldrcc	r3, [r1, #-818]!	; 0xfffffcce
    4138:	332b6537 			; <UNDEFINED> instruction: 0x332b6537
    413c:	33463830 	movtcc	r3, #26672	; 0x6830
    4140:	4e007832 	mcrmi	8, 0, r7, cr0, cr2, {1}
    4144:	5f434956 	svcpl	0x00434956
    4148:	49545845 	ldmdbmi	r4, {r0, r2, r6, fp, ip, lr}^
    414c:	20445f30 	subcs	r5, r4, r0, lsr pc
    4150:	49564e28 	ldmdbmi	r6, {r3, r5, r9, sl, fp, lr}^
    4154:	53495f43 	movtpl	r5, #40771	; 0x9f43
    4158:	26305245 	ldrtcs	r5, [r0], -r5, asr #4
    415c:	31287e3d 			; <UNDEFINED> instruction: 0x31287e3d
    4160:	58453c3c 	stmdapl	r5, {r2, r3, r4, r5, sl, fp, ip, sp}^
    4164:	495f3054 	ldmdbmi	pc, {r2, r4, r6, ip, sp}^	; <UNPREDICTABLE>
    4168:	29295152 	stmdbcs	r9!, {r1, r4, r6, r8, ip, lr}
    416c:	415f5f00 	cmpmi	pc, r0, lsl #30
    4170:	455f4d52 	ldrbmi	r4, [pc, #-3410]	; 3426 <_Min_Stack_Size+0x3026>
    4174:	5f494241 	svcpl	0x00494241
    4178:	0031205f 	eorseq	r2, r1, pc, asr r0
    417c:	4c455f5f 	mcrrmi	15, 5, r5, r5, cr15
    4180:	205f5f46 	subscs	r5, pc, r6, asr #30
    4184:	5f5f0031 	svcpl	0x005f0031
    4188:	5f544c46 	svcpl	0x00544c46
    418c:	495f5349 	ldmdbmi	pc, {r0, r3, r6, r8, r9, ip, lr}^	; <UNPREDICTABLE>
    4190:	365f4345 	ldrbcc	r4, [pc], -r5, asr #6
    4194:	39353530 	ldmdbcc	r5!, {r4, r5, r8, sl, ip, sp}
    4198:	32205f5f 	eorcc	r5, r0, #380	; 0x17c
    419c:	545f5f00 	ldrbpl	r5, [pc], #-3840	; 41a4 <_Min_Stack_Size+0x3da4>
    41a0:	424d5548 	submi	r5, sp, #72, 10	; 0x12000000
    41a4:	5f5f4c45 	svcpl	0x005f4c45
    41a8:	45003120 	strmi	r3, [r0, #-288]	; 0xfffffee0
    41ac:	39495458 	stmdbcc	r9, {r3, r4, r6, sl, ip, lr}^
    41b0:	495f355f 	ldmdbmi	pc, {r0, r1, r2, r3, r4, r6, r8, sl, ip, sp}^	; <UNPREDICTABLE>
    41b4:	61485152 	cmpvs	r8, r2, asr r1
    41b8:	656c646e 	strbvs	r6, [ip, #-1134]!	; 0xfffffb92
    41bc:	58450072 	stmdapl	r5, {r1, r4, r5, r6}^
    41c0:	20374954 	eorscs	r4, r7, r4, asr r9
    41c4:	5f5f0037 	svcpl	0x005f0037
    41c8:	495f5151 	ldmdbmi	pc, {r0, r4, r6, r8, ip, lr}^	; <UNPREDICTABLE>
    41cc:	5f544942 	svcpl	0x00544942
    41d0:	0030205f 	eorseq	r2, r0, pc, asr r0
    41d4:	4349564e 	movtmi	r5, #38478	; 0x964e
    41d8:	5458455f 	ldrbpl	r4, [r8], #-1375	; 0xfffffaa1
    41dc:	5f313149 	svcpl	0x00313149
    41e0:	28204e45 	stmdacs	r0!, {r0, r2, r6, r9, sl, fp, lr}
    41e4:	4349564e 	movtmi	r5, #38478	; 0x964e
    41e8:	4553495f 	ldrbmi	r4, [r3, #-2399]	; 0xfffff6a1
    41ec:	3d7c3152 	ldfcce	f3, [ip, #-328]!	; 0xfffffeb8
    41f0:	3c3c3128 	ldfccs	f3, [ip], #-160	; 0xffffff60
    41f4:	00292938 	eoreq	r2, r9, r8, lsr r9
    41f8:	544e4955 	strbpl	r4, [lr], #-2389	; 0xfffff6ab
    41fc:	435f3436 	cmpmi	pc, #905969664	; 0x36000000
    4200:	20297828 	eorcs	r7, r9, r8, lsr #16
    4204:	49555f5f 	ldmdbmi	r5, {r0, r1, r2, r3, r4, r6, r8, r9, sl, fp, ip, lr}^
    4208:	3436544e 	ldrtcc	r5, [r6], #-1102	; 0xfffffbb2
    420c:	7828435f 	stmdavc	r8!, {r0, r1, r2, r3, r4, r6, r8, r9, lr}
    4210:	5f5f0029 	svcpl	0x005f0029
    4214:	43414c4c 	movtmi	r4, #7244	; 0x1c4c
    4218:	5f4d5543 	svcpl	0x004d5543
    421c:	54494246 	strbpl	r4, [r9], #-582	; 0xfffffdba
    4220:	33205f5f 			; <UNDEFINED> instruction: 0x33205f5f
    4224:	5f5f0031 	svcpl	0x005f0031
    4228:	33544c46 	cmpcc	r4, #17920	; 0x4600
    422c:	4d5f5832 	ldclmi	8, cr5, [pc, #-200]	; 416c <_Min_Stack_Size+0x3d6c>
    4230:	315f4e49 	cmpcc	pc, r9, asr #28
    4234:	58455f30 	stmdapl	r5, {r4, r5, r8, r9, sl, fp, ip, lr}^
    4238:	205f5f50 	subscs	r5, pc, r0, asr pc	; <UNPREDICTABLE>
    423c:	30332d28 	eorscc	r2, r3, r8, lsr #26
    4240:	55002937 	strpl	r2, [r0, #-2359]	; 0xfffff6c9
    4244:	5f544e49 	svcpl	0x00544e49
    4248:	5341454c 	movtpl	r4, #5452	; 0x154c
    424c:	4d5f3854 	ldclmi	8, cr3, [pc, #-336]	; 4104 <_Min_Stack_Size+0x3d04>
    4250:	28205841 	stmdacs	r0!, {r0, r6, fp, ip, lr}
    4254:	49555f5f 	ldmdbmi	r5, {r0, r1, r2, r3, r4, r6, r8, r9, sl, fp, ip, lr}^
    4258:	4c5f544e 	cfldrdmi	mvd5, [pc], {78}	; 0x4e
    425c:	54534145 	ldrbpl	r4, [r3], #-325	; 0xfffffebb
    4260:	414d5f38 	cmpmi	sp, r8, lsr pc
    4264:	295f5f58 	ldmdbcs	pc, {r3, r4, r6, r8, r9, sl, fp, ip, lr}^	; <UNPREDICTABLE>
    4268:	555f5f00 	ldrbpl	r5, [pc, #-3840]	; 3370 <_Min_Stack_Size+0x2f70>
    426c:	495f5153 	ldmdbmi	pc, {r0, r1, r4, r6, r8, ip, lr}^	; <UNPREDICTABLE>
    4270:	5f544942 	svcpl	0x00544942
    4274:	0030205f 	eorseq	r2, r0, pc, asr r0
    4278:	4e475f5f 	mcrmi	15, 2, r5, cr7, cr15, {2}
    427c:	4d5f4355 	ldclmi	3, cr4, [pc, #-340]	; 4130 <_Min_Stack_Size+0x3d30>
    4280:	524f4e49 	subpl	r4, pc, #1168	; 0x490
    4284:	33205f5f 			; <UNDEFINED> instruction: 0x33205f5f
    4288:	555f5f00 	ldrbpl	r5, [pc, #-3840]	; 3390 <_Min_Stack_Size+0x2f90>
    428c:	5f544e49 	svcpl	0x00544e49
    4290:	5341454c 	movtpl	r4, #5452	; 0x154c
    4294:	5f323354 	svcpl	0x00323354
    4298:	45505954 	ldrbmi	r5, [r0, #-2388]	; 0xfffff6ac
    429c:	6c205f5f 	stcvs	15, cr5, [r0], #-380	; 0xfffffe84
    42a0:	20676e6f 	rsbcs	r6, r7, pc, ror #28
    42a4:	69736e75 	ldmdbvs	r3!, {r0, r2, r4, r5, r6, r9, sl, fp, sp, lr}^
    42a8:	64656e67 	strbtvs	r6, [r5], #-3687	; 0xfffff199
    42ac:	746e6920 	strbtvc	r6, [lr], #-2336	; 0xfffff6e0
    42b0:	54584500 	ldrbpl	r4, [r8], #-1280	; 0xfffffb00
    42b4:	495f3131 	ldmdbmi	pc, {r0, r4, r5, r8, ip, sp}^	; <UNPREDICTABLE>
    42b8:	34205152 	strtcc	r5, [r0], #-338	; 0xfffffeae
    42bc:	5f5f0030 	svcpl	0x005f0030
    42c0:	5f4d5241 	svcpl	0x004d5241
    42c4:	54414546 	strbpl	r4, [r1], #-1350	; 0xfffffaba
    42c8:	5f455255 	svcpl	0x00455255
    42cc:	454d554e 	strbmi	r5, [sp, #-1358]	; 0xfffffab2
    42d0:	5f434952 	svcpl	0x00434952
    42d4:	4d58414d 	ldfmie	f4, [r8, #-308]	; 0xfffffecc
    42d8:	5f004e49 	svcpl	0x00004e49
    42dc:	544e495f 	strbpl	r4, [lr], #-2399	; 0xfffff6a1
    42e0:	5f58414d 	svcpl	0x0058414d
    42e4:	45505954 	ldrbmi	r5, [r0, #-2388]	; 0xfffff6ac
    42e8:	6c205f5f 	stcvs	15, cr5, [r0], #-380	; 0xfffffe84
    42ec:	20676e6f 	rsbcs	r6, r7, pc, ror #28
    42f0:	676e6f6c 	strbvs	r6, [lr, -ip, ror #30]!
    42f4:	746e6920 	strbtvc	r6, [lr], #-2336	; 0xfffff6e0
    42f8:	475f5f00 	ldrbmi	r5, [pc, -r0, lsl #30]
    42fc:	415f4343 	cmpmi	pc, r3, asr #6
    4300:	494d4f54 	stmdbmi	sp, {r2, r4, r6, r8, r9, sl, fp, lr}^
    4304:	4e495f43 	cdpmi	15, 4, cr5, cr9, cr3, {2}
    4308:	4f4c5f54 	svcmi	0x004c5f54
    430c:	465f4b43 	ldrbmi	r4, [pc], -r3, asr #22
    4310:	20454552 	subcs	r4, r5, r2, asr r5
    4314:	58450032 	stmdapl	r5, {r1, r4, r5}^
    4318:	50353154 	eorspl	r3, r5, r4, asr r1
    431c:	20353143 	eorscs	r3, r5, r3, asr #2
    4320:	49504728 	ldmdbmi	r0, {r3, r5, r8, r9, sl, lr}^
    4324:	4f435f4f 	svcmi	0x00435f4f
    4328:	4749464e 	strbmi	r4, [r9, -lr, asr #12]
    432c:	7b29745f 	blvc	a614b0 <_Min_Stack_Size+0xa610b0>
    4330:	49545845 	ldmdbmi	r4, {r0, r2, r6, fp, ip, lr}^
    4334:	472c3531 			; <UNDEFINED> instruction: 0x472c3531
    4338:	434f4950 	movtmi	r4, #63824	; 0xf950
    433c:	4e49502c 	cdpmi	0, 4, cr5, cr9, cr12, {1}
    4340:	2c35315f 	ldfcss	f3, [r5], #-380	; 0xfffffe84
    4344:	31545845 	cmpcc	r4, r5, asr #16
    4348:	52495f35 	subpl	r5, r9, #53, 30	; 0xd4
    434c:	4e007d51 	mcrmi	13, 0, r7, cr0, cr1, {2}
    4350:	5f434956 	svcpl	0x00434956
    4354:	52454349 	subpl	r4, r5, #603979777	; 0x24000001
    4358:	282a2031 	stmdacs	sl!, {r0, r4, r5, sp}
    435c:	73757628 	cmnvc	r5, #40, 12	; 0x2800000
    4360:	33746e69 	cmncc	r4, #1680	; 0x690
    4364:	20745f32 	rsbscs	r5, r4, r2, lsr pc
    4368:	2820292a 	stmdacs	r0!, {r1, r3, r5, r8, fp, sp}
    436c:	4349564e 	movtmi	r5, #38478	; 0x964e
    4370:	5341425f 	movtpl	r4, #4703	; 0x125f
    4374:	78302b45 	ldmdavc	r0!, {r0, r2, r6, r8, r9, fp, sp}
    4378:	29343830 	ldmdbcs	r4!, {r4, r5, fp, ip, sp}
    437c:	564e0029 	strbpl	r0, [lr], -r9, lsr #32
    4380:	455f4349 	ldrbmi	r4, [pc, #-841]	; 403f <_Min_Stack_Size+0x3c3f>
    4384:	38495458 	stmdacc	r9, {r3, r4, r6, sl, ip, lr}^
    4388:	204e455f 	subcs	r4, lr, pc, asr r5
    438c:	49564e28 	ldmdbmi	r6, {r3, r5, r9, sl, fp, lr}^
    4390:	53495f43 	movtpl	r5, #40771	; 0x9f43
    4394:	7c305245 	lfmvc	f5, 4, [r0], #-276	; 0xfffffeec
    4398:	3c31283d 	ldccc	8, cr2, [r1], #-244	; 0xffffff0c
    439c:	5458453c 	ldrbpl	r4, [r8], #-1340	; 0xfffffac4
    43a0:	52495f38 	subpl	r5, r9, #56, 30	; 0xe0
    43a4:	00292951 	eoreq	r2, r9, r1, asr r9
    43a8:	52415f5f 	subpl	r5, r1, #380	; 0x17c
    43ac:	45465f4d 	strbmi	r5, [r6, #-3917]	; 0xfffff0b3
    43b0:	52555441 	subspl	r5, r5, #1090519040	; 0x41000000
    43b4:	50465f45 	subpl	r5, r6, r5, asr #30
    43b8:	535f3631 	cmppl	pc, #51380224	; 0x3100000
    43bc:	414c4143 	cmpmi	ip, r3, asr #2
    43c0:	52415f52 	subpl	r5, r1, #328	; 0x148
    43c4:	4d485449 	cfstrdmi	mvd5, [r8, #-292]	; 0xfffffedc
    43c8:	43495445 	movtmi	r5, #37957	; 0x9445
    43cc:	555f5f00 	ldrbpl	r5, [pc, #-3840]	; 34d4 <_Min_Stack_Size+0x30d4>
    43d0:	43434153 	movtmi	r4, #12627	; 0x3153
    43d4:	455f4d55 	ldrbmi	r4, [pc, #-3413]	; 3687 <_Min_Stack_Size+0x3287>
    43d8:	4c495350 	mcrrmi	3, 5, r5, r9, cr0
    43dc:	5f5f4e4f 	svcpl	0x005f4e4f
    43e0:	31783020 	cmncc	r8, r0, lsr #32
    43e4:	55382d50 	ldrpl	r2, [r8, #-3408]!	; 0xfffff2b0
    43e8:	5f004b48 	svcpl	0x00004b48
    43ec:	4c42445f 	cfstrdmi	mvd4, [r2], {95}	; 0x5f
    43f0:	5341485f 	movtpl	r4, #6239	; 0x185f
    43f4:	4955515f 	ldmdbmi	r5, {r0, r1, r2, r3, r4, r6, r8, ip, lr}^
    43f8:	4e5f5445 	cdpmi	4, 5, cr5, cr15, cr5, {2}
    43fc:	5f5f4e41 	svcpl	0x005f4e41
    4400:	45003120 	strmi	r3, [r0, #-288]	; 0xfffffee0
    4404:	50395458 	eorspl	r5, r9, r8, asr r4
    4408:	28203941 	stmdacs	r0!, {r0, r6, r8, fp, ip, sp}
    440c:	4f495047 	svcmi	0x00495047
    4410:	4e4f435f 	mcrmi	3, 2, r4, cr15, cr15, {2}
    4414:	5f474946 	svcpl	0x00474946
    4418:	457b2974 	ldrbmi	r2, [fp, #-2420]!	; 0xfffff68c
    441c:	39495458 	stmdbcc	r9, {r3, r4, r6, sl, ip, lr}^
    4420:	4950472c 	ldmdbmi	r0, {r2, r3, r5, r8, r9, sl, lr}^
    4424:	502c414f 	eorpl	r4, ip, pc, asr #2
    4428:	395f4e49 	ldmdbcc	pc, {r0, r3, r6, r9, sl, fp, lr}^	; <UNPREDICTABLE>
    442c:	5458452c 	ldrbpl	r4, [r8], #-1324	; 0xfffffad4
    4430:	52495f39 	subpl	r5, r9, #57, 30	; 0xe4
    4434:	50007d51 	andpl	r7, r0, r1, asr sp
    4438:	4654414c 	ldrbmi	r4, [r4], -ip, asr #2
    443c:	5f4d524f 	svcpl	0x004d524f
    4440:	45505954 	ldrbmi	r5, [r0, #-2388]	; 0xfffff6ac
    4444:	5f485f53 	svcpl	0x00485f53
    4448:	4e490020 	cdpmi	0, 4, cr0, cr9, cr0, {1}
    444c:	5f323354 	svcpl	0x00323354
    4450:	29782843 	ldmdbcs	r8!, {r0, r1, r6, fp, sp}^
    4454:	495f5f20 	ldmdbmi	pc, {r5, r8, r9, sl, fp, ip, lr}^	; <UNPREDICTABLE>
    4458:	3233544e 	eorscc	r5, r3, #1308622848	; 0x4e000000
    445c:	7828435f 	stmdavc	r8!, {r0, r1, r2, r3, r4, r6, r8, r9, lr}
    4460:	49550029 	ldmdbmi	r5, {r0, r3, r5}^
    4464:	465f544e 	ldrbmi	r5, [pc], -lr, asr #8
    4468:	31545341 	cmpcc	r4, r1, asr #6
    446c:	414d5f36 	cmpmi	sp, r6, lsr pc
    4470:	5f282058 	svcpl	0x00282058
    4474:	4e49555f 	mcrmi	5, 2, r5, cr9, cr15, {2}
    4478:	41465f54 	cmpmi	r6, r4, asr pc
    447c:	36315453 			; <UNDEFINED> instruction: 0x36315453
    4480:	58414d5f 	stmdapl	r1, {r0, r1, r2, r3, r4, r6, r8, sl, fp, lr}^
    4484:	00295f5f 	eoreq	r5, r9, pc, asr pc
    4488:	4c4c5f5f 	mcrrmi	15, 5, r5, ip, cr15
    448c:	43415246 	movtmi	r5, #4678	; 0x1246
    4490:	414d5f54 	cmpmi	sp, r4, asr pc
    4494:	205f5f58 	subscs	r5, pc, r8, asr pc	; <UNPREDICTABLE>
    4498:	46375830 			; <UNDEFINED> instruction: 0x46375830
    449c:	46464646 	strbmi	r4, [r6], -r6, asr #12
    44a0:	46464646 	strbmi	r4, [r6], -r6, asr #12
    44a4:	46464646 	strbmi	r4, [r6], -r6, asr #12
    44a8:	2d504646 	ldclcs	6, cr4, [r0, #-280]	; 0xfffffee8
    44ac:	4c4c3336 	mcrrmi	3, 3, r3, ip, cr6
    44b0:	49550052 	ldmdbmi	r5, {r1, r4, r6}^
    44b4:	4c5f544e 	cfldrdmi	mvd5, [pc], {78}	; 0x4e
    44b8:	54534145 	ldrbpl	r4, [r3], #-325	; 0xfffffebb
    44bc:	4d5f3233 	lfmmi	f3, 2, [pc, #-204]	; 43f8 <_Min_Stack_Size+0x3ff8>
    44c0:	28205841 	stmdacs	r0!, {r0, r6, fp, ip, lr}
    44c4:	49555f5f 	ldmdbmi	r5, {r0, r1, r2, r3, r4, r6, r8, r9, sl, fp, ip, lr}^
    44c8:	4c5f544e 	cfldrdmi	mvd5, [pc], {78}	; 0x4e
    44cc:	54534145 	ldrbpl	r4, [r3], #-325	; 0xfffffebb
    44d0:	4d5f3233 	lfmmi	f3, 2, [pc, #-204]	; 440c <_Min_Stack_Size+0x400c>
    44d4:	5f5f5841 	svcpl	0x005f5841
    44d8:	58450029 	stmdapl	r5, {r0, r3, r5}^
    44dc:	495f3054 	ldmdbmi	pc, {r2, r4, r6, ip, sp}^	; <UNPREDICTABLE>
    44e0:	36205152 			; <UNDEFINED> instruction: 0x36205152
    44e4:	475f5f00 	ldrbmi	r5, [pc, -r0, lsl #30]
    44e8:	5f43554e 	svcpl	0x0043554e
    44ec:	52455250 	subpl	r5, r5, #80, 4
    44f0:	5f5f5145 	svcpl	0x005f5145
    44f4:	2c616d28 	stclcs	13, cr6, [r1], #-160	; 0xffffff60
    44f8:	2029696d 	eorcs	r6, r9, sp, ror #18
    44fc:	4e475f5f 	mcrmi	15, 2, r5, cr7, cr15, {2}
    4500:	505f4355 	subspl	r4, pc, r5, asr r3	; <UNPREDICTABLE>
    4504:	45524552 	ldrbmi	r4, [r2, #-1362]	; 0xfffffaae
    4508:	616d2851 	cmnvs	sp, r1, asr r8
    450c:	696d202c 	stmdbvs	sp!, {r2, r3, r5, sp}^
    4510:	58450029 	stmdapl	r5, {r0, r3, r5}^
    4514:	525f4954 	subspl	r4, pc, #84, 18	; 0x150000
    4518:	5f004745 	svcpl	0x00004745
    451c:	544e495f 	strbpl	r4, [lr], #-2399	; 0xfffff6a1
    4520:	5f525450 	svcpl	0x00525450
    4524:	45505954 	ldrbmi	r5, [r0, #-2388]	; 0xfffff6ac
    4528:	69205f5f 	stmdbvs	r0!, {r0, r1, r2, r3, r4, r6, r8, r9, sl, fp, ip, lr}
    452c:	5f00746e 	svcpl	0x0000746e
    4530:	4e49555f 	mcrmi	5, 2, r5, cr9, cr15, {2}
    4534:	52545054 	subspl	r5, r4, #84	; 0x54
    4538:	5059545f 	subspl	r5, r9, pc, asr r4
    453c:	205f5f45 	subscs	r5, pc, r5, asr #30
    4540:	69736e75 	ldmdbvs	r3!, {r0, r2, r4, r5, r6, r9, sl, fp, sp, lr}^
    4544:	64656e67 	strbtvs	r6, [r5], #-3687	; 0xfffff199
    4548:	746e6920 	strbtvc	r6, [lr], #-2336	; 0xfffff6e0
    454c:	555f5f00 	ldrbpl	r5, [pc, #-3840]	; 3654 <_Min_Stack_Size+0x3254>
    4550:	4152464c 	cmpmi	r2, ip, asr #12
    4554:	455f5443 	ldrbmi	r5, [pc, #-1091]	; 4119 <_Min_Stack_Size+0x3d19>
    4558:	4c495350 	mcrrmi	3, 5, r5, r9, cr0
    455c:	5f5f4e4f 	svcpl	0x005f4e4f
    4560:	31783020 	cmncc	r8, r0, lsr #32
    4564:	32332d50 	eorscc	r2, r3, #80, 26	; 0x1400
    4568:	00524c55 	subseq	r4, r2, r5, asr ip
    456c:	45525f5f 	ldrbmi	r5, [r2, #-3935]	; 0xfffff0a1
    4570:	54534947 	ldrbpl	r4, [r3], #-2375	; 0xfffff6b9
    4574:	505f5245 	subspl	r5, pc, r5, asr #4
    4578:	49464552 	stmdbmi	r6, {r1, r4, r6, r8, sl, lr}^
    457c:	205f5f58 	subscs	r5, pc, r8, asr pc	; <UNPREDICTABLE>
    4580:	465f5f00 	ldrbmi	r5, [pc], -r0, lsl #30
    4584:	3233544c 	eorscc	r5, r3, #76, 8	; 0x4c000000
    4588:	58414d5f 	stmdapl	r1, {r0, r1, r2, r3, r4, r6, r8, sl, fp, lr}^
    458c:	33205f5f 			; <UNDEFINED> instruction: 0x33205f5f
    4590:	3230342e 	eorscc	r3, r0, #771751936	; 0x2e000000
    4594:	34333238 	ldrtcc	r3, [r3], #-568	; 0xfffffdc8
    4598:	38333636 	ldmdacc	r3!, {r1, r2, r4, r5, r9, sl, ip, sp}
    459c:	38383235 	ldmdacc	r8!, {r0, r2, r4, r5, r9, ip, sp}
    45a0:	332b6536 			; <UNDEFINED> instruction: 0x332b6536
    45a4:	32334638 	eorscc	r4, r3, #56, 12	; 0x3800000
    45a8:	445f5f00 	ldrbmi	r5, [pc], #-3840	; 45b0 <_Min_Stack_Size+0x41b0>
    45ac:	445f4c42 	ldrbmi	r4, [pc], #-3138	; 45b4 <_Min_Stack_Size+0x41b4>
    45b0:	5f5f4749 	svcpl	0x005f4749
    45b4:	00353120 	eorseq	r3, r5, r0, lsr #2
    45b8:	4e49555f 	mcrmi	5, 2, r5, cr9, cr15, {2}
    45bc:	5f363154 	svcpl	0x00363154
    45c0:	45445f54 	strbmi	r5, [r4, #-3924]	; 0xfffff0ac
    45c4:	52414c43 	subpl	r4, r1, #17152	; 0x4300
    45c8:	00204445 	eoreq	r4, r0, r5, asr #8
    45cc:	38545845 	ldmdacc	r4, {r0, r2, r6, fp, ip, lr}^
    45d0:	20384150 	eorscs	r4, r8, r0, asr r1
    45d4:	49504728 	ldmdbmi	r0, {r3, r5, r8, r9, sl, lr}^
    45d8:	4f435f4f 	svcmi	0x00435f4f
    45dc:	4749464e 	strbmi	r4, [r9, -lr, asr #12]
    45e0:	7b29745f 	blvc	a61764 <_Min_Stack_Size+0xa61364>
    45e4:	49545845 	ldmdbmi	r4, {r0, r2, r6, fp, ip, lr}^
    45e8:	50472c38 	subpl	r2, r7, r8, lsr ip
    45ec:	2c414f49 	mcrrcs	15, 4, r4, r1, cr9
    45f0:	5f4e4950 	svcpl	0x004e4950
    45f4:	58452c38 	stmdapl	r5, {r3, r4, r5, sl, fp, sp}^
    45f8:	495f3854 	ldmdbmi	pc, {r2, r4, r6, fp, ip, sp}^	; <UNPREDICTABLE>
    45fc:	007d5152 	rsbseq	r5, sp, r2, asr r1
    4600:	49535f5f 	ldmdbmi	r3, {r0, r1, r2, r3, r4, r6, r8, r9, sl, fp, ip, lr}^
    4604:	464f455a 			; <UNDEFINED> instruction: 0x464f455a
    4608:	5a49535f 	bpl	125938c <_Min_Stack_Size+0x1258f8c>
    460c:	5f545f45 	svcpl	0x00545f45
    4610:	0034205f 	eorseq	r2, r4, pc, asr r0
    4614:	49555f5f 	ldmdbmi	r5, {r0, r1, r2, r3, r4, r6, r8, r9, sl, fp, ip, lr}^
    4618:	3436544e 	ldrtcc	r5, [r6], #-1102	; 0xfffffbb2
    461c:	5059545f 	subspl	r5, r9, pc, asr r4
    4620:	205f5f45 	subscs	r5, pc, r5, asr #30
    4624:	676e6f6c 	strbvs	r6, [lr, -ip, ror #30]!
    4628:	6e6f6c20 	cdpvs	12, 6, cr6, cr15, cr0, {1}
    462c:	6e752067 	cdpvs	0, 7, cr2, cr5, cr7, {3}
    4630:	6e676973 			; <UNDEFINED> instruction: 0x6e676973
    4634:	69206465 	stmdbvs	r0!, {r0, r2, r5, r6, sl, sp, lr}
    4638:	5f00746e 	svcpl	0x0000746e
    463c:	544e495f 	strbpl	r4, [lr], #-2399	; 0xfffff6a1
    4640:	435f3436 	cmpmi	pc, #905969664	; 0x36000000
    4644:	20296328 	eorcs	r6, r9, r8, lsr #6
    4648:	23232063 			; <UNDEFINED> instruction: 0x23232063
    464c:	004c4c20 	subeq	r4, ip, r0, lsr #24
    4650:	444c5f5f 	strbmi	r5, [ip], #-3935	; 0xfffff0a1
    4654:	4d5f4c42 	ldclmi	12, cr4, [pc, #-264]	; 4554 <_Min_Stack_Size+0x4154>
    4658:	315f4e49 	cmpcc	pc, r9, asr #28
    465c:	58455f30 	stmdapl	r5, {r4, r5, r8, r9, sl, fp, ip, lr}^
    4660:	205f5f50 	subscs	r5, pc, r0, asr pc	; <UNPREDICTABLE>
    4664:	30332d28 	eorscc	r2, r3, r8, lsr #26
    4668:	45002937 	strmi	r2, [r0, #-2359]	; 0xfffff6c9
    466c:	50365458 	eorspl	r5, r6, r8, asr r4
    4670:	28203641 	stmdacs	r0!, {r0, r6, r9, sl, ip, sp}
    4674:	4f495047 	svcmi	0x00495047
    4678:	4e4f435f 	mcrmi	3, 2, r4, cr15, cr15, {2}
    467c:	5f474946 	svcpl	0x00474946
    4680:	457b2974 	ldrbmi	r2, [fp, #-2420]!	; 0xfffff68c
    4684:	36495458 			; <UNDEFINED> instruction: 0x36495458
    4688:	4950472c 	ldmdbmi	r0, {r2, r3, r5, r8, r9, sl, lr}^
    468c:	502c414f 	eorpl	r4, ip, pc, asr #2
    4690:	365f4e49 	ldrbcc	r4, [pc], -r9, asr #28
    4694:	5458452c 	ldrbpl	r4, [r8], #-1324	; 0xfffffad4
    4698:	52495f36 	subpl	r5, r9, #54, 30	; 0xd8
    469c:	46007d51 			; <UNDEFINED> instruction: 0x46007d51
    46a0:	494c4c41 	stmdbmi	ip, {r0, r6, sl, fp, lr}^
    46a4:	525f474e 	subspl	r4, pc, #20447232	; 0x1380000
    46a8:	49455349 	stmdbmi	r5, {r0, r3, r6, r8, r9, ip, lr}^
    46ac:	5300474e 	movwpl	r4, #1870	; 0x74e
    46b0:	5f4d4152 	svcpl	0x004d4152
    46b4:	4f4d454d 	svcmi	0x004d454d
    46b8:	425f5952 	subsmi	r5, pc, #1343488	; 0x148000
    46bc:	20455341 	subcs	r5, r5, r1, asr #6
    46c0:	30327830 	eorscc	r7, r2, r0, lsr r8
    46c4:	30303030 	eorscc	r3, r0, r0, lsr r0
    46c8:	4c553030 	mrrcmi	0, 3, r3, r5, cr0
    46cc:	49564e00 	ldmdbmi	r6, {r9, sl, fp, lr}^
    46d0:	58455f43 	stmdapl	r5, {r0, r1, r6, r8, r9, sl, fp, ip, lr}^
    46d4:	33314954 	teqcc	r1, #84, 18	; 0x150000
    46d8:	2820445f 	stmdacs	r0!, {r0, r1, r2, r3, r4, r6, sl, lr}
    46dc:	4349564e 	movtmi	r5, #38478	; 0x964e
    46e0:	4553495f 	ldrbmi	r4, [r3, #-2399]	; 0xfffff6a1
    46e4:	3d263152 	stfccs	f3, [r6, #-328]!	; 0xfffffeb8
    46e8:	3c31287e 	ldccc	8, cr2, [r1], #-504	; 0xfffffe08
    46ec:	2929383c 	stmdbcs	r9!, {r2, r3, r4, r5, fp, ip, sp}
    46f0:	49504700 	ldmdbmi	r0, {r8, r9, sl, lr}^
    46f4:	425f414f 	subsmi	r4, pc, #-1073741805	; 0xc0000013
    46f8:	20455341 	subcs	r5, r5, r1, asr #6
    46fc:	30347830 	eorscc	r7, r4, r0, lsr r8
    4700:	38303130 	ldmdacc	r0!, {r4, r5, r8, ip, sp}
    4704:	5f003030 	svcpl	0x00003030
    4708:	42444c5f 	submi	r4, r4, #24320	; 0x5f00
    470c:	494d5f4c 	stmdbmi	sp, {r2, r3, r6, r8, r9, sl, fp, ip, lr}^
    4710:	205f5f4e 	subscs	r5, pc, lr, asr #30
    4714:	32322e32 	eorscc	r2, r2, #800	; 0x320
    4718:	33373035 	teqcc	r7, #53	; 0x35
    471c:	35383538 	ldrcc	r3, [r8, #-1336]!	; 0xfffffac8
    4720:	30323730 	eorscc	r3, r2, r0, lsr r7
    4724:	2d653431 	cfstrdcs	mvd3, [r5, #-196]!	; 0xffffff3c
    4728:	4c383033 	ldcmi	0, cr3, [r8], #-204	; 0xffffff34
    472c:	54584500 	ldrbpl	r4, [r8], #-1280	; 0xfffffb00
    4730:	41503431 	cmpmi	r0, r1, lsr r4
    4734:	28203431 	stmdacs	r0!, {r0, r4, r5, sl, ip, sp}
    4738:	4f495047 	svcmi	0x00495047
    473c:	4e4f435f 	mcrmi	3, 2, r4, cr15, cr15, {2}
    4740:	5f474946 	svcpl	0x00474946
    4744:	457b2974 	ldrbmi	r2, [fp, #-2420]!	; 0xfffff68c
    4748:	31495458 	cmpcc	r9, r8, asr r4
    474c:	50472c34 	subpl	r2, r7, r4, lsr ip
    4750:	2c414f49 	mcrrcs	15, 4, r4, r1, cr9
    4754:	5f4e4950 	svcpl	0x004e4950
    4758:	452c3431 	strmi	r3, [ip, #-1073]!	; 0xfffffbcf
    475c:	34315458 	ldrtcc	r5, [r1], #-1112	; 0xfffffba8
    4760:	5152495f 	cmppl	r2, pc, asr r9
    4764:	5f5f007d 	svcpl	0x005f007d
    4768:	5f4d5241 	svcpl	0x004d5241
    476c:	54414546 	strbpl	r4, [r1], #-1350	; 0xfffffaba
    4770:	5f455255 	svcpl	0x00455255
    4774:	00454443 	subeq	r4, r5, r3, asr #8
    4778:	43415f5f 	movtmi	r5, #8031	; 0x1f5f
    477c:	5f4d5543 	svcpl	0x004d5543
    4780:	54494249 	strbpl	r4, [r9], #-585	; 0xfffffdb7
    4784:	31205f5f 			; <UNDEFINED> instruction: 0x31205f5f
    4788:	5f5f0036 	svcpl	0x005f0036
    478c:	47474942 	strbmi	r4, [r7, -r2, asr #18]
    4790:	5f545345 	svcpl	0x00545345
    4794:	47494c41 	strbmi	r4, [r9, -r1, asr #24]
    4798:	4e454d4e 	cdpmi	13, 4, cr4, cr5, cr14, {2}
    479c:	205f5f54 	subscs	r5, pc, r4, asr pc	; <UNPREDICTABLE>
    47a0:	6e750038 	mrcvs	0, 3, r0, cr5, cr8, {1}
    47a4:	6e676973 			; <UNDEFINED> instruction: 0x6e676973
    47a8:	4e006465 	cdpmi	4, 0, cr6, cr0, cr5, {3}
    47ac:	5f434956 	svcpl	0x00434956
    47b0:	49545845 	ldmdbmi	r4, {r0, r2, r6, fp, ip, lr}^
    47b4:	455f3431 	ldrbmi	r3, [pc, #-1073]	; 438b <_Min_Stack_Size+0x3f8b>
    47b8:	4e28204e 	cdpmi	0, 2, cr2, cr8, cr14, {2}
    47bc:	5f434956 	svcpl	0x00434956
    47c0:	52455349 	subpl	r5, r5, #603979777	; 0x24000001
    47c4:	283d7c31 	ldmdacs	sp!, {r0, r4, r5, sl, fp, ip, sp, lr}
    47c8:	383c3c31 	ldmdacc	ip!, {r0, r4, r5, sl, fp, ip, sp}
    47cc:	45002929 	strmi	r2, [r0, #-2345]	; 0xfffff6d7
    47d0:	5f355458 	svcpl	0x00355458
    47d4:	20515249 	subscs	r5, r1, r9, asr #4
    47d8:	5f003332 	svcpl	0x00003332
    47dc:	4e49555f 	mcrmi	5, 2, r5, cr9, cr15, {2}
    47e0:	5f363154 	svcpl	0x00363154
    47e4:	29632843 	stmdbcs	r3!, {r0, r1, r6, fp, sp}^
    47e8:	5f006320 	svcpl	0x00006320
    47ec:	4144555f 	cmpmi	r4, pc, asr r5
    47f0:	4942495f 	stmdbmi	r2, {r0, r1, r2, r3, r4, r6, r8, fp, lr}^
    47f4:	205f5f54 	subscs	r5, pc, r4, asr pc	; <UNPREDICTABLE>
    47f8:	5f003233 	svcpl	0x00003233
    47fc:	41454c5f 	cmpmi	r5, pc, asr ip
    4800:	36315453 			; <UNDEFINED> instruction: 0x36315453
    4804:	22682220 	rsbcs	r2, r8, #32, 4
    4808:	4e5f5f00 	cdpmi	15, 5, cr5, cr15, cr0, {0}
    480c:	4e495f4f 	cdpmi	15, 4, cr5, cr9, cr15, {2}
    4810:	454e494c 	strbmi	r4, [lr, #-2380]	; 0xfffff6b4
    4814:	31205f5f 			; <UNDEFINED> instruction: 0x31205f5f
    4818:	544e4900 	strbpl	r4, [lr], #-2304	; 0xfffff700
    481c:	4d5f3436 	cfldrdmi	mvd3, [pc, #-216]	; 474c <_Min_Stack_Size+0x434c>
    4820:	28204e49 	stmdacs	r0!, {r0, r3, r6, r9, sl, fp, lr}
    4824:	495f5f2d 	ldmdbmi	pc, {r0, r2, r3, r5, r8, r9, sl, fp, ip, lr}^	; <UNPREDICTABLE>
    4828:	3436544e 	ldrtcc	r5, [r6], #-1102	; 0xfffffbb2
    482c:	58414d5f 	stmdapl	r1, {r0, r1, r2, r3, r4, r6, r8, sl, fp, lr}^
    4830:	2d205f5f 	stccs	15, cr5, [r0, #-380]!	; 0xfffffe84
    4834:	00293120 	eoreq	r3, r9, r0, lsr #2
    4838:	31545845 	cmpcc	r4, r5, asr #16
    483c:	31425035 	cmpcc	r2, r5, lsr r0
    4840:	47282035 			; <UNDEFINED> instruction: 0x47282035
    4844:	5f4f4950 	svcpl	0x004f4950
    4848:	464e4f43 	strbmi	r4, [lr], -r3, asr #30
    484c:	745f4749 	ldrbvc	r4, [pc], #-1865	; 4854 <_Min_Stack_Size+0x4454>
    4850:	58457b29 	stmdapl	r5, {r0, r3, r5, r8, r9, fp, ip, sp, lr}^
    4854:	35314954 	ldrcc	r4, [r1, #-2388]!	; 0xfffff6ac
    4858:	4950472c 	ldmdbmi	r0, {r2, r3, r5, r8, r9, sl, lr}^
    485c:	502c424f 	eorpl	r4, ip, pc, asr #4
    4860:	315f4e49 	cmpcc	pc, r9, asr #28
    4864:	58452c35 	stmdapl	r5, {r0, r2, r4, r5, sl, fp, sp}^
    4868:	5f353154 	svcpl	0x00353154
    486c:	7d515249 	lfmvc	f5, 2, [r1, #-292]	; 0xfffffedc
    4870:	415f5f00 	cmpmi	pc, r0, lsl #30
    4874:	494d4f54 	stmdbmi	sp, {r2, r4, r6, r8, r9, sl, fp, lr}^
    4878:	45525f43 	ldrbmi	r5, [r2, #-3907]	; 0xfffff0bd
    487c:	4558414c 	ldrbmi	r4, [r8, #-332]	; 0xfffffeb4
    4880:	00302044 	eorseq	r2, r0, r4, asr #32
    4884:	52415f5f 	subpl	r5, r1, #380	; 0x17c
    4888:	45465f4d 	strbmi	r5, [r6, #-3917]	; 0xfffff0b3
    488c:	52555441 	subspl	r5, r5, #1090519040	; 0x41000000
    4890:	4f435f45 	svcmi	0x00435f45
    4894:	434f5250 	movtmi	r5, #62032	; 0xf250
    4898:	445f5f00 	ldrbmi	r5, [pc], #-3840	; 48a0 <_Min_Stack_Size+0x44a0>
    489c:	485f4c42 	ldmdami	pc, {r1, r6, sl, fp, lr}^	; <UNPREDICTABLE>
    48a0:	495f5341 	ldmdbmi	pc, {r0, r6, r8, r9, ip, lr}^	; <UNPREDICTABLE>
    48a4:	4e49464e 	cdpmi	6, 4, cr4, cr9, cr14, {2}
    48a8:	5f595449 	svcpl	0x00595449
    48ac:	0031205f 	eorseq	r2, r1, pc, asr r0
    48b0:	49535f5f 	ldmdbmi	r3, {r0, r1, r2, r3, r4, r6, r8, r9, sl, fp, ip, lr}^
    48b4:	54415f47 	strbpl	r5, [r1], #-3911	; 0xfffff0b9
    48b8:	43494d4f 	movtmi	r4, #40271	; 0x9d4f
    48bc:	58414d5f 	stmdapl	r1, {r0, r1, r2, r3, r4, r6, r8, sl, fp, lr}^
    48c0:	30205f5f 	eorcc	r5, r0, pc, asr pc
    48c4:	66663778 			; <UNDEFINED> instruction: 0x66663778
    48c8:	66666666 	strbtvs	r6, [r6], -r6, ror #12
    48cc:	49550066 	ldmdbmi	r5, {r1, r2, r5, r6}^
    48d0:	3436544e 	ldrtcc	r5, [r6], #-1102	; 0xfffffbb2
    48d4:	58414d5f 	stmdapl	r1, {r0, r1, r2, r3, r4, r6, r8, sl, fp, lr}^
    48d8:	5f5f2820 	svcpl	0x005f2820
    48dc:	544e4955 	strbpl	r4, [lr], #-2389	; 0xfffff6ab
    48e0:	4d5f3436 	cfldrdmi	mvd3, [pc, #-216]	; 4810 <_Min_Stack_Size+0x4410>
    48e4:	5f5f5841 	svcpl	0x005f5841
    48e8:	58450029 	stmdapl	r5, {r0, r3, r5}^
    48ec:	41503354 	cmpmi	r0, r4, asr r3
    48f0:	47282033 			; <UNDEFINED> instruction: 0x47282033
    48f4:	5f4f4950 	svcpl	0x004f4950
    48f8:	464e4f43 	strbmi	r4, [lr], -r3, asr #30
    48fc:	745f4749 	ldrbvc	r4, [pc], #-1865	; 4904 <_Min_Stack_Size+0x4504>
    4900:	58457b29 	stmdapl	r5, {r0, r3, r5, r8, r9, fp, ip, sp, lr}^
    4904:	2c334954 			; <UNDEFINED> instruction: 0x2c334954
    4908:	4f495047 	svcmi	0x00495047
    490c:	49502c41 	ldmdbmi	r0, {r0, r6, sl, fp, sp}^
    4910:	2c335f4e 	ldccs	15, cr5, [r3], #-312	; 0xfffffec8
    4914:	33545845 	cmpcc	r4, #4521984	; 0x450000
    4918:	5152495f 	cmppl	r2, pc, asr r9
    491c:	5845007d 	stmdapl	r5, {r0, r2, r3, r4, r5, r6}^
    4920:	5f334954 	svcpl	0x00334954
    4924:	48515249 	ldmdami	r1, {r0, r3, r6, r9, ip, lr}^
    4928:	6c646e61 	stclvs	14, cr6, [r4], #-388	; 0xfffffe7c
    492c:	5f007265 	svcpl	0x00007265
    4930:	4553555f 	ldrbmi	r5, [r3, #-1375]	; 0xfffffaa1
    4934:	4e495f53 	mcrmi	15, 2, r5, cr9, cr3, {2}
    4938:	49465449 	stmdbmi	r6, {r0, r3, r6, sl, ip, lr}^
    493c:	5f5f494e 	svcpl	0x005f494e
    4940:	45003120 	strmi	r3, [r0, #-288]	; 0xfffffee0
    4944:	5f315458 	svcpl	0x00315458
    4948:	20515249 	subscs	r5, r1, r9, asr #4
    494c:	58450037 	stmdapl	r5, {r0, r1, r2, r4, r5}^
    4950:	41503154 	cmpmi	r0, r4, asr r1
    4954:	47282031 			; <UNDEFINED> instruction: 0x47282031
    4958:	5f4f4950 	svcpl	0x004f4950
    495c:	464e4f43 	strbmi	r4, [lr], -r3, asr #30
    4960:	745f4749 	ldrbvc	r4, [pc], #-1865	; 4968 <_Min_Stack_Size+0x4568>
    4964:	58457b29 	stmdapl	r5, {r0, r3, r5, r8, r9, fp, ip, sp, lr}^
    4968:	2c314954 			; <UNDEFINED> instruction: 0x2c314954
    496c:	4f495047 	svcmi	0x00495047
    4970:	49502c41 	ldmdbmi	r0, {r0, r6, sl, fp, sp}^
    4974:	2c315f4e 	ldccs	15, cr5, [r1], #-312	; 0xfffffec8
    4978:	31545845 	cmpcc	r4, r5, asr #16
    497c:	5152495f 	cmppl	r2, pc, asr r9
    4980:	5f5f007d 	svcpl	0x005f007d
    4984:	5f4c4244 	svcpl	0x004c4244
    4988:	49434544 	stmdbmi	r3, {r2, r6, r8, sl, lr}^
    498c:	5f4c414d 	svcpl	0x004c414d
    4990:	5f474944 	svcpl	0x00474944
    4994:	3731205f 			; <UNDEFINED> instruction: 0x3731205f
    4998:	685f5f00 	ldmdavs	pc, {r8, r9, sl, fp, ip, lr}^	; <UNPREDICTABLE>
    499c:	5f657661 	svcpl	0x00657661
    49a0:	676e6f6c 	strbvs	r6, [lr, -ip, ror #30]!
    49a4:	31203233 			; <UNDEFINED> instruction: 0x31203233
    49a8:	54584500 	ldrbpl	r4, [r8], #-1280	; 0xfffffb00
    49ac:	34435034 	strbcc	r5, [r3], #-52	; 0xffffffcc
    49b0:	50472820 	subpl	r2, r7, r0, lsr #16
    49b4:	435f4f49 	cmpmi	pc, #292	; 0x124
    49b8:	49464e4f 	stmdbmi	r6, {r0, r1, r2, r3, r6, r9, sl, fp, lr}^
    49bc:	29745f47 	ldmdbcs	r4!, {r0, r1, r2, r6, r8, r9, sl, fp, ip, lr}^
    49c0:	5458457b 	ldrbpl	r4, [r8], #-1403	; 0xfffffa85
    49c4:	472c3449 	strmi	r3, [ip, -r9, asr #8]!
    49c8:	434f4950 	movtmi	r4, #63824	; 0xf950
    49cc:	4e49502c 	cdpmi	0, 4, cr5, cr9, cr12, {1}
    49d0:	452c345f 	strmi	r3, [ip, #-1119]!	; 0xfffffba1
    49d4:	5f345458 	svcpl	0x00345458
    49d8:	7d515249 	lfmvc	f5, 2, [r1, #-292]	; 0xfffffedc
    49dc:	49564e00 	ldmdbmi	r6, {r9, sl, fp, lr}^
    49e0:	58455f43 	stmdapl	r5, {r0, r1, r6, r8, r9, sl, fp, ip, lr}^
    49e4:	5f304954 	svcpl	0x00304954
    49e8:	28204e45 	stmdacs	r0!, {r0, r2, r6, r9, sl, fp, lr}
    49ec:	4349564e 	movtmi	r5, #38478	; 0x964e
    49f0:	4553495f 	ldrbmi	r4, [r3, #-2399]	; 0xfffff6a1
    49f4:	3d7c3052 	ldclcc	0, cr3, [ip, #-328]!	; 0xfffffeb8
    49f8:	3c3c3128 	ldfccs	f3, [ip], #-160	; 0xffffff60
    49fc:	30545845 	subscc	r5, r4, r5, asr #16
    4a00:	5152495f 	cmppl	r2, pc, asr r9
    4a04:	5f002929 	svcpl	0x00002929
    4a08:	544e495f 	strbpl	r4, [lr], #-2399	; 0xfffff6a1
    4a0c:	4d5f3631 	ldclmi	6, cr3, [pc, #-196]	; 4950 <_Min_Stack_Size+0x4550>
    4a10:	5f5f5841 	svcpl	0x005f5841
    4a14:	37783020 	ldrbcc	r3, [r8, -r0, lsr #32]!
    4a18:	00666666 	rsbeq	r6, r6, r6, ror #12
    4a1c:	43475f5f 	movtmi	r5, #32607	; 0x7f5f
    4a20:	54415f43 	strbpl	r5, [r1], #-3907	; 0xfffff0bd
    4a24:	43494d4f 	movtmi	r4, #40271	; 0x9d4f
    4a28:	4148435f 	cmpmi	r8, pc, asr r3
    4a2c:	4f4c5f52 	svcmi	0x004c5f52
    4a30:	465f4b43 	ldrbmi	r4, [pc], -r3, asr #22
    4a34:	20454552 	subcs	r4, r5, r2, asr r5
    4a38:	5f5f0032 	svcpl	0x005f0032
    4a3c:	5f505353 	svcpl	0x00505353
    4a40:	54524f46 	ldrbpl	r4, [r2], #-3910	; 0xfffff0ba
    4a44:	5f594649 	svcpl	0x00594649
    4a48:	4556454c 	ldrbmi	r4, [r6, #-1356]	; 0xfffffab4
    4a4c:	0030204c 	eorseq	r2, r0, ip, asr #32
    4a50:	32545845 	subscc	r5, r4, #4521984	; 0x450000
    4a54:	20324350 	eorscs	r4, r2, r0, asr r3
    4a58:	49504728 	ldmdbmi	r0, {r3, r5, r8, r9, sl, lr}^
    4a5c:	4f435f4f 	svcmi	0x00435f4f
    4a60:	4749464e 	strbmi	r4, [r9, -lr, asr #12]
    4a64:	7b29745f 	blvc	a61be8 <_Min_Stack_Size+0xa617e8>
    4a68:	49545845 	ldmdbmi	r4, {r0, r2, r6, fp, ip, lr}^
    4a6c:	50472c32 	subpl	r2, r7, r2, lsr ip
    4a70:	2c434f49 	mcrrcs	15, 4, r4, r3, cr9
    4a74:	5f4e4950 	svcpl	0x004e4950
    4a78:	58452c32 	stmdapl	r5, {r1, r4, r5, sl, fp, sp}^
    4a7c:	495f3254 	ldmdbmi	pc, {r2, r4, r6, r9, ip, sp}^	; <UNPREDICTABLE>
    4a80:	007d5152 	rsbseq	r5, sp, r2, asr r1
    4a84:	53585f5f 	cmppl	r8, #380	; 0x17c
    4a88:	49565f49 	ldmdbmi	r6, {r0, r3, r6, r8, r9, sl, fp, ip, lr}^
    4a8c:	4c424953 	mcrrmi	9, 5, r4, r2, cr3	; <UNPREDICTABLE>
    4a90:	00302045 	eorseq	r2, r0, r5, asr #32
    4a94:	5054554f 	subspl	r5, r4, pc, asr #10
    4a98:	415f5455 	cmpmi	pc, r5, asr r4	; <UNPREDICTABLE>
    4a9c:	444f5f46 	strbmi	r5, [pc], #-3910	; 4aa4 <_Min_Stack_Size+0x46a4>
    4aa0:	52534200 	subspl	r4, r3, #0, 4
    4aa4:	5f5f0052 	svcpl	0x005f0052
    4aa8:	55434341 	strbpl	r4, [r3, #-833]	; 0xfffffcbf
    4aac:	42465f4d 	submi	r5, r6, #308	; 0x134
    4ab0:	5f5f5449 	svcpl	0x005f5449
    4ab4:	00353120 	eorseq	r3, r5, r0, lsr #2
    4ab8:	49535f5f 	ldmdbmi	r3, {r0, r1, r2, r3, r4, r6, r8, r9, sl, fp, ip, lr}^
    4abc:	54415f47 	strbpl	r5, [r1], #-3911	; 0xfffff0b9
    4ac0:	43494d4f 	movtmi	r4, #40271	; 0x9d4f
    4ac4:	4449575f 	strbmi	r5, [r9], #-1887	; 0xfffff8a1
    4ac8:	5f5f4854 	svcpl	0x005f4854
    4acc:	00323320 	eorseq	r3, r2, r0, lsr #6
    4ad0:	4c465f5f 	mcrrmi	15, 5, r5, r6, cr15
    4ad4:	5f343654 	svcpl	0x00343654
    4ad8:	49535045 	ldmdbmi	r3, {r0, r2, r6, ip, lr}^
    4adc:	5f4e4f4c 	svcpl	0x004e4f4c
    4ae0:	2e32205f 	mrccs	0, 1, r2, cr2, cr15, {2}
    4ae4:	34303232 	ldrtcc	r3, [r0], #-562	; 0xfffffdce
    4ae8:	34303634 	ldrtcc	r3, [r0], #-1588	; 0xfffff9cc
    4aec:	30353239 	eorscc	r3, r5, r9, lsr r2
    4af0:	31333133 	teqcc	r3, r3, lsr r1
    4af4:	36312d65 	ldrtcc	r2, [r1], -r5, ror #26
    4af8:	00343646 	eorseq	r3, r4, r6, asr #12
    4afc:	49545845 	ldmdbmi	r4, {r0, r2, r6, fp, ip, lr}^
    4b00:	52495f30 	subpl	r5, r9, #48, 30	; 0xc0
    4b04:	6e614851 	mcrvs	8, 3, r4, cr1, cr1, {2}
    4b08:	72656c64 	rsbvc	r6, r5, #100, 24	; 0x6400
    4b0c:	49564e00 	ldmdbmi	r6, {r9, sl, fp, lr}^
    4b10:	43495f43 	movtmi	r5, #40771	; 0x9f43
    4b14:	20325245 	eorscs	r5, r2, r5, asr #4
    4b18:	7628282a 	strtvc	r2, [r8], -sl, lsr #16
    4b1c:	6e697375 	mcrvs	3, 3, r7, cr9, cr5, {3}
    4b20:	5f323374 	svcpl	0x00323374
    4b24:	292a2074 	stmdbcs	sl!, {r2, r4, r5, r6, sp}
    4b28:	564e2820 	strbpl	r2, [lr], -r0, lsr #16
    4b2c:	425f4349 	subsmi	r4, pc, #603979777	; 0x24000001
    4b30:	2b455341 	blcs	115983c <_Min_Stack_Size+0x115943c>
    4b34:	38307830 	ldmdacc	r0!, {r4, r5, fp, ip, sp, lr}
    4b38:	00292938 	eoreq	r2, r9, r8, lsr r9
    4b3c:	4f494641 	svcmi	0x00494641
    4b40:	5458455f 	ldrbpl	r4, [r8], #-1375	; 0xfffffaa1
    4b44:	00524349 	subseq	r4, r2, r9, asr #6
    4b48:	4c555f5f 	mrrcmi	15, 5, r5, r5, cr15	; <UNPREDICTABLE>
    4b4c:	4343414c 	movtmi	r4, #12620	; 0x314c
    4b50:	495f4d55 	ldmdbmi	pc, {r0, r2, r4, r6, r8, sl, fp, lr}^	; <UNPREDICTABLE>
    4b54:	5f544942 	svcpl	0x00544942
    4b58:	3233205f 	eorscc	r2, r3, #95	; 0x5f
    4b5c:	415f5f00 	cmpmi	pc, r0, lsl #30
    4b60:	465f4d52 			; <UNDEFINED> instruction: 0x465f4d52
    4b64:	55544145 	ldrbpl	r4, [r4, #-325]	; 0xfffffebb
    4b68:	435f4552 	cmpmi	pc, #343932928	; 0x14800000
    4b6c:	32334352 	eorscc	r4, r3, #1207959553	; 0x48000001
    4b70:	555f5f00 	ldrbpl	r5, [pc, #-3840]	; 3c78 <_Min_Stack_Size+0x3878>
    4b74:	52464c4c 	subpl	r4, r6, #76, 24	; 0x4c00
    4b78:	5f544341 	svcpl	0x00544341
    4b7c:	49535045 	ldmdbmi	r3, {r0, r2, r6, ip, lr}^
    4b80:	5f4e4f4c 	svcpl	0x004e4f4c
    4b84:	7830205f 	ldmdavc	r0!, {r0, r1, r2, r3, r4, r6, sp}
    4b88:	362d5031 			; <UNDEFINED> instruction: 0x362d5031
    4b8c:	4c4c5534 	cfstr64mi	mvdx5, [ip], {52}	; 0x34
    4b90:	5f5f0052 	svcpl	0x005f0052
    4b94:	43445453 	movtmi	r5, #17491	; 0x4453
    4b98:	534f485f 	movtpl	r4, #63583	; 0xf85f
    4b9c:	5f444554 	svcpl	0x00444554
    4ba0:	0031205f 	eorseq	r2, r1, pc, asr r0
    4ba4:	49535f5f 	ldmdbmi	r3, {r0, r1, r2, r3, r4, r6, r8, r9, sl, fp, ip, lr}^
    4ba8:	464f455a 			; <UNDEFINED> instruction: 0x464f455a
    4bac:	4e49575f 	mcrmi	7, 2, r5, cr9, cr15, {2}
    4bb0:	5f545f54 	svcpl	0x00545f54
    4bb4:	0034205f 	eorseq	r2, r4, pc, asr r0
    4bb8:	52415f5f 	subpl	r5, r1, #380	; 0x17c
    4bbc:	45465f4d 	strbmi	r5, [r6, #-3917]	; 0xfffff0b3
    4bc0:	52555441 	subspl	r5, r5, #1090519040	; 0x41000000
    4bc4:	4e555f45 	cdpmi	15, 5, cr5, cr5, cr5, {2}
    4bc8:	47494c41 	strbmi	r4, [r9, -r1, asr #24]
    4bcc:	2044454e 	subcs	r4, r4, lr, asr #10
    4bd0:	5f5f0031 	svcpl	0x005f0031
    4bd4:	5f585847 	svcpl	0x00585847
    4bd8:	45505954 	ldrbmi	r5, [r0, #-2388]	; 0xfffff6ac
    4bdc:	4f464e49 	svcmi	0x00464e49
    4be0:	5551455f 	ldrbpl	r4, [r1, #-1375]	; 0xfffffaa1
    4be4:	54494c41 	strbpl	r4, [r9], #-3137	; 0xfffff3bf
    4be8:	4e495f59 	mcrmi	15, 2, r5, cr9, cr9, {2}
    4bec:	454e494c 	strbmi	r4, [lr, #-2380]	; 0xfffff6b4
    4bf0:	5f003020 	svcpl	0x00003020
    4bf4:	42444c5f 	submi	r4, r4, #24320	; 0x5f00
    4bf8:	45445f4c 	strbmi	r5, [r4, #-3916]	; 0xfffff0b4
    4bfc:	414d4943 	cmpmi	sp, r3, asr #18
    4c00:	49445f4c 	stmdbmi	r4, {r2, r3, r6, r8, r9, sl, fp, ip, lr}^
    4c04:	205f5f47 	subscs	r5, pc, r7, asr #30
    4c08:	5f003731 	svcpl	0x00003731
    4c0c:	43414c5f 	movtmi	r4, #7263	; 0x1c5f
    4c10:	5f4d5543 	svcpl	0x004d5543
    4c14:	5f4e494d 	svcpl	0x004e494d
    4c18:	2d28205f 	stccs	0, cr2, [r8, #-380]!	; 0xfffffe84
    4c1c:	50315830 	eorspl	r5, r1, r0, lsr r8
    4c20:	4b4c3133 	blmi	13110f4 <_Min_Stack_Size+0x1310cf4>
    4c24:	3158302d 	cmpcc	r8, sp, lsr #32
    4c28:	4c313350 	ldcmi	3, cr3, [r1], #-320	; 0xfffffec0
    4c2c:	5f00294b 	svcpl	0x0000294b
    4c30:	544e495f 	strbpl	r4, [lr], #-2399	; 0xfffff6a1
    4c34:	5341465f 	movtpl	r4, #5727	; 0x165f
    4c38:	4d5f3854 	ldclmi	8, cr3, [pc, #-336]	; 4af0 <_Min_Stack_Size+0x46f0>
    4c3c:	5f5f5841 	svcpl	0x005f5841
    4c40:	37783020 	ldrbcc	r3, [r8, -r0, lsr #32]!
    4c44:	66666666 	strbtvs	r6, [r6], -r6, ror #12
    4c48:	00666666 	rsbeq	r6, r6, r6, ror #12
    4c4c:	4c465f5f 	mcrrmi	15, 5, r5, r6, cr15
    4c50:	5f323354 	svcpl	0x00323354
    4c54:	5f534148 	svcpl	0x00534148
    4c58:	4f4e4544 	svcmi	0x004e4544
    4c5c:	5f5f4d52 	svcpl	0x005f4d52
    4c60:	5f003120 	svcpl	0x00003120
    4c64:	5341465f 	movtpl	r4, #5727	; 0x165f
    4c68:	00203854 	eoreq	r3, r0, r4, asr r8
    4c6c:	4c555f5f 	mrrcmi	15, 5, r5, r5, cr15	; <UNPREDICTABLE>
    4c70:	4343414c 	movtmi	r4, #12620	; 0x314c
    4c74:	4d5f4d55 	ldclmi	13, cr4, [pc, #-340]	; 4b28 <_Min_Stack_Size+0x4728>
    4c78:	5f5f4e49 	svcpl	0x005f4e49
    4c7c:	302e3020 	eorcc	r3, lr, r0, lsr #32
    4c80:	4b4c4c55 	blmi	1317ddc <_Min_Stack_Size+0x13179dc>
    4c84:	495f5f00 	ldmdbmi	pc, {r8, r9, sl, fp, ip, lr}^	; <UNPREDICTABLE>
    4c88:	465f544e 	ldrbmi	r5, [pc], -lr, asr #8
    4c8c:	33545341 	cmpcc	r4, #67108865	; 0x4000001
    4c90:	49575f32 	ldmdbmi	r7, {r1, r4, r5, r8, r9, sl, fp, ip, lr}^
    4c94:	5f485444 	svcpl	0x00485444
    4c98:	3233205f 	eorscc	r2, r3, #95	; 0x5f
    4c9c:	45505300 	ldrbmi	r5, [r0, #-768]	; 0xfffffd00
    4ca0:	325f4445 	subscc	r4, pc, #1157627904	; 0x45000000
    4ca4:	43564500 	cmpmi	r6, #0, 10
    4ca8:	5f5f0052 	svcpl	0x005f0052
    4cac:	33544e49 	cmpcc	r4, #1168	; 0x490
    4cb0:	6c222032 	stcvs	0, cr2, [r2], #-200	; 0xffffff38
    4cb4:	5f5f0022 	svcpl	0x005f0022
    4cb8:	5f4d5241 	svcpl	0x004d5241
    4cbc:	5f4d5341 	svcpl	0x004d5341
    4cc0:	544e5953 	strbpl	r5, [lr], #-2387	; 0xfffff6ad
    4cc4:	555f5841 	ldrbpl	r5, [pc, #-2113]	; 448b <_Min_Stack_Size+0x408b>
    4cc8:	4946494e 	stmdbmi	r6, {r1, r2, r3, r6, r8, fp, lr}^
    4ccc:	5f5f4445 	svcpl	0x005f4445
    4cd0:	5f003120 	svcpl	0x00003120
    4cd4:	4e49555f 	mcrmi	5, 2, r5, cr9, cr15, {2}
    4cd8:	5f323354 	svcpl	0x00323354
    4cdc:	45505954 	ldrbmi	r5, [r0, #-2388]	; 0xfffff6ac
    4ce0:	6c205f5f 	stcvs	15, cr5, [r0], #-380	; 0xfffffe84
    4ce4:	20676e6f 	rsbcs	r6, r7, pc, ror #28
    4ce8:	69736e75 	ldmdbvs	r3!, {r0, r2, r4, r5, r6, r9, sl, fp, sp, lr}^
    4cec:	64656e67 	strbtvs	r6, [r5], #-3687	; 0xfffff199
    4cf0:	746e6920 	strbtvc	r6, [lr], #-2336	; 0xfffff6e0
    4cf4:	544e4900 	strbpl	r4, [lr], #-2304	; 0xfffff700
    4cf8:	4d5f3233 	lfmmi	f3, 2, [pc, #-204]	; 4c34 <_Min_Stack_Size+0x4834>
    4cfc:	28205841 	stmdacs	r0!, {r0, r6, fp, ip, lr}
    4d00:	4e495f5f 	mcrmi	15, 2, r5, cr9, cr15, {2}
    4d04:	5f323354 	svcpl	0x00323354
    4d08:	5f58414d 	svcpl	0x0058414d
    4d0c:	5f00295f 	svcpl	0x0000295f
    4d10:	4d52415f 	ldfmie	f4, [r2, #-380]	; 0xfffffe84
    4d14:	4145465f 	cmpmi	r5, pc, asr r6
    4d18:	45525554 	ldrbmi	r5, [r2, #-1364]	; 0xfffffaac
    4d1c:	544f445f 	strbpl	r4, [pc], #-1119	; 4d24 <_Min_Stack_Size+0x4924>
    4d20:	444f5250 	strbmi	r5, [pc], #-592	; 4d28 <_Min_Stack_Size+0x4928>
    4d24:	54584500 	ldrbpl	r4, [r8], #-1280	; 0xfffffb00
    4d28:	52495f32 	subpl	r5, r9, #50, 30	; 0xc8
    4d2c:	00382051 	eorseq	r2, r8, r1, asr r0
    4d30:	4645445f 			; <UNDEFINED> instruction: 0x4645445f
    4d34:	544c5541 	strbpl	r5, [ip], #-1345	; 0xfffffabf
    4d38:	554f535f 	strbpl	r5, [pc, #-863]	; 49e1 <_Min_Stack_Size+0x45e1>
    4d3c:	00454352 	subeq	r4, r5, r2, asr r3
    4d40:	49545845 	ldmdbmi	r4, {r0, r2, r6, fp, ip, lr}^
    4d44:	315f3531 	cmpcc	pc, r1, lsr r5	; <UNPREDICTABLE>
    4d48:	52495f30 	subpl	r5, r9, #48, 30	; 0xc0
    4d4c:	6e614851 	mcrvs	8, 3, r4, cr1, cr1, {2}
    4d50:	72656c64 	rsbvc	r6, r5, #100, 24	; 0x6400
    4d54:	555f5f00 	ldrbpl	r5, [pc, #-3840]	; 3e5c <_Min_Stack_Size+0x3a5c>
    4d58:	52464c4c 	subpl	r4, r6, #76, 24	; 0x4c00
    4d5c:	5f544341 	svcpl	0x00544341
    4d60:	5f4e494d 	svcpl	0x004e494d
    4d64:	2e30205f 	mrccs	0, 1, r2, cr0, cr15, {2}
    4d68:	4c4c5530 	cfstr64mi	mvdx5, [ip], {48}	; 0x30
    4d6c:	495f0052 	ldmdbmi	pc, {r1, r4, r6}^	; <UNPREDICTABLE>
    4d70:	5f38544e 	svcpl	0x0038544e
    4d74:	45445f54 	strbmi	r5, [r4, #-3924]	; 0xfffff0ac
    4d78:	52414c43 	subpl	r4, r1, #17152	; 0x4300
    4d7c:	00204445 	eoreq	r4, r0, r5, asr #8
    4d80:	49535f5f 	ldmdbmi	r3, {r0, r1, r2, r3, r4, r6, r8, r9, sl, fp, ip, lr}^
    4d84:	464f455a 			; <UNDEFINED> instruction: 0x464f455a
    4d88:	544e495f 	strbpl	r4, [lr], #-2399	; 0xfffff6a1
    4d8c:	34205f5f 	strtcc	r5, [r0], #-3935	; 0xfffff0a1
    4d90:	4c5f5f00 	mrrcmi	15, 0, r5, pc, cr0	; <UNPREDICTABLE>
    4d94:	4152464c 	cmpmi	r2, ip, asr #12
    4d98:	495f5443 	ldmdbmi	pc, {r0, r1, r6, sl, ip, lr}^	; <UNPREDICTABLE>
    4d9c:	5f544942 	svcpl	0x00544942
    4da0:	0030205f 	eorseq	r2, r0, pc, asr r0
    4da4:	544e4955 	strbpl	r4, [lr], #-2389	; 0xfffff6ab
    4da8:	435f3631 	cmpmi	pc, #51380224	; 0x3100000
    4dac:	20297828 	eorcs	r7, r9, r8, lsr #16
    4db0:	49555f5f 	ldmdbmi	r5, {r0, r1, r2, r3, r4, r6, r8, r9, sl, fp, ip, lr}^
    4db4:	3631544e 	ldrtcc	r5, [r1], -lr, asr #8
    4db8:	7828435f 	stmdavc	r8!, {r0, r1, r2, r3, r4, r6, r8, r9, lr}
    4dbc:	5f5f0029 	svcpl	0x005f0029
    4dc0:	52464c4c 	subpl	r4, r6, #76, 24	; 0x4c00
    4dc4:	5f544341 	svcpl	0x00544341
    4dc8:	5f4e494d 	svcpl	0x004e494d
    4dcc:	2d28205f 	stccs	0, cr2, [r8, #-380]!	; 0xfffffe84
    4dd0:	4c352e30 	ldcmi	14, cr2, [r5], #-192	; 0xffffff40
    4dd4:	302d524c 	eorcc	r5, sp, ip, asr #4
    4dd8:	4c4c352e 	cfstr64mi	mvdx3, [ip], {46}	; 0x2e
    4ddc:	5f002952 	svcpl	0x00002952
    4de0:	5f535953 	svcpl	0x00535953
    4de4:	544e495f 	strbpl	r4, [lr], #-2399	; 0xfffff6a1
    4de8:	5f505553 	svcpl	0x00505553
    4dec:	5f002048 	svcpl	0x00002048
    4df0:	4341535f 	movtmi	r5, #4959	; 0x135f
    4df4:	5f4d5543 	svcpl	0x004d5543
    4df8:	49535045 	ldmdbmi	r3, {r0, r2, r6, ip, lr}^
    4dfc:	5f4e4f4c 	svcpl	0x004e4f4c
    4e00:	7830205f 	ldmdavc	r0!, {r0, r1, r2, r3, r4, r6, sp}
    4e04:	372d5031 			; <UNDEFINED> instruction: 0x372d5031
    4e08:	5f004b48 	svcpl	0x00004b48
    4e0c:	4343475f 	movtmi	r4, #14175	; 0x375f
    4e10:	4d53415f 	ldfmie	f4, [r3, #-380]	; 0xfffffe84
    4e14:	414c465f 	cmpmi	ip, pc, asr r6
    4e18:	554f5f47 	strbpl	r5, [pc, #-3911]	; 3ed9 <_Min_Stack_Size+0x3ad9>
    4e1c:	54555054 	ldrbpl	r5, [r5], #-84	; 0xffffffac
    4e20:	205f5f53 	subscs	r5, pc, r3, asr pc	; <UNPREDICTABLE>
    4e24:	5f5f0031 	svcpl	0x005f0031
    4e28:	455a4953 	ldrbmi	r4, [sl, #-2387]	; 0xfffff6ad
    4e2c:	575f464f 	ldrbpl	r4, [pc, -pc, asr #12]
    4e30:	52414843 	subpl	r4, r1, #4390912	; 0x430000
    4e34:	5f5f545f 	svcpl	0x005f545f
    4e38:	49003420 	stmdbmi	r0, {r5, sl, ip, sp}
    4e3c:	465f544e 	ldrbmi	r5, [pc], -lr, asr #8
    4e40:	36545341 	ldrbcc	r5, [r4], -r1, asr #6
    4e44:	414d5f34 	cmpmi	sp, r4, lsr pc
    4e48:	5f282058 	svcpl	0x00282058
    4e4c:	544e495f 	strbpl	r4, [lr], #-2399	; 0xfffff6a1
    4e50:	5341465f 	movtpl	r4, #5727	; 0x165f
    4e54:	5f343654 	svcpl	0x00343654
    4e58:	5f58414d 	svcpl	0x0058414d
    4e5c:	5f00295f 	svcpl	0x0000295f
    4e60:	49534f50 	ldmdbmi	r3, {r4, r6, r8, r9, sl, fp, lr}^
    4e64:	4f535f58 	svcmi	0x00535f58
    4e68:	45435255 	strbmi	r5, [r3, #-597]	; 0xfffffdab
    4e6c:	53003120 	movwpl	r3, #288	; 0x120
    4e70:	44454550 	strbmi	r4, [r5], #-1360	; 0xfffffab0
    4e74:	5f00745f 	svcpl	0x0000745f
    4e78:	4e49555f 	mcrmi	5, 2, r5, cr9, cr15, {2}
    4e7c:	41465f54 	cmpmi	r6, r4, asr pc
    4e80:	36315453 			; <UNDEFINED> instruction: 0x36315453
    4e84:	5059545f 	subspl	r5, r9, pc, asr r4
    4e88:	205f5f45 	subscs	r5, pc, r5, asr #30
    4e8c:	69736e75 	ldmdbvs	r3!, {r0, r2, r4, r5, r6, r9, sl, fp, sp, lr}^
    4e90:	64656e67 	strbtvs	r6, [r5], #-3687	; 0xfffff199
    4e94:	746e6920 	strbtvc	r6, [lr], #-2336	; 0xfffff6e0
    4e98:	555f5f00 	ldrbpl	r5, [pc, #-3840]	; 3fa0 <_Min_Stack_Size+0x3ba0>
    4e9c:	495f4148 	ldmdbmi	pc, {r3, r6, r8, lr}^	; <UNPREDICTABLE>
    4ea0:	5f544942 	svcpl	0x00544942
    4ea4:	0038205f 	eorseq	r2, r8, pc, asr r0
    4ea8:	43415f5f 	movtmi	r5, #8031	; 0x1f5f
    4eac:	5f4d5543 	svcpl	0x004d5543
    4eb0:	49535045 	ldmdbmi	r3, {r0, r2, r6, ip, lr}^
    4eb4:	5f4e4f4c 	svcpl	0x004e4f4c
    4eb8:	7830205f 	ldmdavc	r0!, {r0, r1, r2, r3, r4, r6, sp}
    4ebc:	312d5031 			; <UNDEFINED> instruction: 0x312d5031
    4ec0:	5f004b35 	svcpl	0x00004b35
    4ec4:	414c555f 	cmpmi	ip, pc, asr r5
    4ec8:	4d554343 	ldclmi	3, cr4, [r5, #-268]	; 0xfffffef4
    4ecc:	5350455f 	cmppl	r0, #398458880	; 0x17c00000
    4ed0:	4e4f4c49 	cdpmi	12, 4, cr4, cr15, cr9, {2}
    4ed4:	30205f5f 	eorcc	r5, r0, pc, asr pc
    4ed8:	2d503178 	ldfcse	f3, [r0, #-480]	; 0xfffffe20
    4edc:	4c553233 	lfmmi	f3, 2, [r5], {51}	; 0x33
    4ee0:	5f5f004b 	svcpl	0x005f004b
    4ee4:	4c42444c 	cfstrdmi	mvd4, [r2], {76}	; 0x4c
    4ee8:	4749445f 	smlsldmi	r4, r9, pc, r4	; <UNPREDICTABLE>
    4eec:	31205f5f 			; <UNDEFINED> instruction: 0x31205f5f
    4ef0:	5f5f0035 	svcpl	0x005f0035
    4ef4:	455a4953 	ldrbmi	r4, [sl, #-2387]	; 0xfffff6ad
    4ef8:	4449575f 	strbmi	r5, [r9], #-1887	; 0xfffff8a1
    4efc:	5f5f4854 	svcpl	0x005f4854
    4f00:	00323320 	eorseq	r3, r2, r0, lsr #6
    4f04:	31545845 	cmpcc	r4, r5, asr #16
    4f08:	31425030 	cmpcc	r2, r0, lsr r0
    4f0c:	47282030 			; <UNDEFINED> instruction: 0x47282030
    4f10:	5f4f4950 	svcpl	0x004f4950
    4f14:	464e4f43 	strbmi	r4, [lr], -r3, asr #30
    4f18:	745f4749 	ldrbvc	r4, [pc], #-1865	; 4f20 <_Min_Stack_Size+0x4b20>
    4f1c:	58457b29 	stmdapl	r5, {r0, r3, r5, r8, r9, fp, ip, sp, lr}^
    4f20:	30314954 	eorscc	r4, r1, r4, asr r9
    4f24:	4950472c 	ldmdbmi	r0, {r2, r3, r5, r8, r9, sl, lr}^
    4f28:	502c424f 	eorpl	r4, ip, pc, asr #4
    4f2c:	315f4e49 	cmpcc	pc, r9, asr #28
    4f30:	58452c30 	stmdapl	r5, {r4, r5, sl, fp, sp}^
    4f34:	5f303154 	svcpl	0x00303154
    4f38:	7d515249 	lfmvc	f5, 2, [r1, #-292]	; 0xfffffedc
    4f3c:	575f5f00 	ldrbpl	r5, [pc, -r0, lsl #30]
    4f40:	5f544e49 	svcpl	0x00544e49
    4f44:	5f4e494d 	svcpl	0x004e494d
    4f48:	5530205f 	ldrpl	r2, [r0, #-95]!	; 0xffffffa1
    4f4c:	43435200 	movtmi	r5, #12800	; 0x3200
    4f50:	52282820 	eorpl	r2, r8, #32, 16	; 0x200000
    4f54:	525f4343 	subspl	r4, pc, #201326593	; 0xc000001
    4f58:	2a204745 	bcs	816c74 <_Min_Stack_Size+0x816874>
    4f5c:	43522029 	cmpmi	r2, #41	; 0x29
    4f60:	41425f43 	cmpmi	r2, r3, asr #30
    4f64:	29204553 	stmdbcs	r0!, {r0, r1, r4, r6, r8, sl, lr}
    4f68:	465f5f00 	ldrbmi	r5, [pc], -r0, lsl #30
    4f6c:	3436544c 	ldrtcc	r5, [r6], #-1100	; 0xfffffbb4
    4f70:	4749445f 	smlsldmi	r4, r9, pc, r4	; <UNPREDICTABLE>
    4f74:	31205f5f 			; <UNDEFINED> instruction: 0x31205f5f
    4f78:	495f0035 	ldmdbmi	pc, {r0, r2, r4, r5}^	; <UNPREDICTABLE>
    4f7c:	3233544e 	eorscc	r5, r3, #1308622848	; 0x4e000000
    4f80:	5f51455f 	svcpl	0x0051455f
    4f84:	474e4f4c 	strbmi	r4, [lr, -ip, asr #30]
    4f88:	5f5f0020 	svcpl	0x005f0020
    4f8c:	544e4957 	strbpl	r4, [lr], #-2391	; 0xfffff6a9
    4f90:	58414d5f 	stmdapl	r1, {r0, r1, r2, r3, r4, r6, r8, sl, fp, lr}^
    4f94:	30205f5f 	eorcc	r5, r0, pc, asr pc
    4f98:	66666678 			; <UNDEFINED> instruction: 0x66666678
    4f9c:	66666666 	strbtvs	r6, [r6], -r6, ror #12
    4fa0:	5f005566 	svcpl	0x00005566
    4fa4:	544e495f 	strbpl	r4, [lr], #-2399	; 0xfffff6a1
    4fa8:	41454c5f 	cmpmi	r5, pc, asr ip
    4fac:	5f385453 	svcpl	0x00385453
    4fb0:	54444957 	strbpl	r4, [r4], #-2391	; 0xfffff6a9
    4fb4:	205f5f48 	subscs	r5, pc, r8, asr #30
    4fb8:	5f5f0038 	svcpl	0x005f0038
    4fbc:	5f544e49 	svcpl	0x00544e49
    4fc0:	5341454c 	movtpl	r4, #5452	; 0x154c
    4fc4:	5f363154 	svcpl	0x00363154
    4fc8:	45505954 	ldrbmi	r5, [r0, #-2388]	; 0xfffff6ac
    4fcc:	73205f5f 			; <UNDEFINED> instruction: 0x73205f5f
    4fd0:	74726f68 	ldrbtvc	r6, [r2], #-3944	; 0xfffff098
    4fd4:	746e6920 	strbtvc	r6, [lr], #-2336	; 0xfffff6e0
    4fd8:	515f5f00 	cmppl	pc, r0, lsl #30
    4fdc:	42465f51 	submi	r5, r6, #324	; 0x144
    4fe0:	5f5f5449 	svcpl	0x005f5449
    4fe4:	5f003720 	svcpl	0x00003720
    4fe8:	4c42445f 	cfstrdmi	mvd4, [r2], {95}	; 0x5f
    4fec:	58414d5f 	stmdapl	r1, {r0, r1, r2, r3, r4, r6, r8, sl, fp, lr}^
    4ff0:	28205f5f 	stmdacs	r0!, {r0, r1, r2, r3, r4, r6, r8, r9, sl, fp, ip, lr}
    4ff4:	756f6428 	strbvc	r6, [pc, #-1064]!	; 4bd4 <_Min_Stack_Size+0x47d4>
    4ff8:	29656c62 	stmdbcs	r5!, {r1, r5, r6, sl, fp, sp, lr}^
    4ffc:	39372e31 	ldmdbcc	r7!, {r0, r4, r5, r9, sl, fp, sp}
    5000:	33393637 	teqcc	r9, #57671680	; 0x3700000
    5004:	38343331 	ldmdacc	r4!, {r0, r4, r5, r8, r9, ip, sp}
    5008:	31333236 	teqcc	r3, r6, lsr r2
    500c:	2b653735 	blcs	1952ce8 <_Min_Stack_Size+0x19528e8>
    5010:	4c383033 	ldcmi	0, cr3, [r8], #-204	; 0xffffff34
    5014:	54530029 	ldrbpl	r0, [r3], #-41	; 0xffffffd7
    5018:	41565f4b 	cmpmi	r6, fp, asr #30
    501c:	2045554c 	subcs	r5, r5, ip, asr #10
    5020:	7628282a 	strtvc	r2, [r8], -sl, lsr #16
    5024:	6e697375 	mcrvs	3, 3, r7, cr9, cr5, {3}
    5028:	5f323374 	svcpl	0x00323374
    502c:	292a2074 	stmdbcs	sl!, {r2, r4, r5, r6, sp}
    5030:	79532820 	ldmdbvc	r3, {r5, fp, sp}^
    5034:	63695473 	cmnvs	r9, #1929379840	; 0x73000000
    5038:	41425f6b 	cmpmi	r2, fp, ror #30
    503c:	302b4553 	eorcc	r4, fp, r3, asr r5
    5040:	29343078 	ldmdbcs	r4!, {r3, r4, r5, r6, ip, sp}
    5044:	5f5f0029 	svcpl	0x005f0029
    5048:	33544c46 	cmpcc	r4, #17920	; 0x4600
    504c:	41485f32 	cmpmi	r8, r2, lsr pc
    5050:	4e495f53 	mcrmi	15, 2, r5, cr9, cr3, {2}
    5054:	494e4946 	stmdbmi	lr, {r1, r2, r6, r8, fp, lr}^
    5058:	5f5f5954 	svcpl	0x005f5954
    505c:	5f003120 	svcpl	0x00003120
    5060:	4f53495f 	svcmi	0x0053495f
    5064:	565f435f 			; <UNDEFINED> instruction: 0x565f435f
    5068:	42495349 	submi	r5, r9, #603979777	; 0x24000001
    506c:	3220454c 	eorcc	r4, r0, #76, 10	; 0x13000000
    5070:	00313130 	eorseq	r3, r1, r0, lsr r1
    5074:	68745f5f 	ldmdavs	r4!, {r0, r1, r2, r3, r4, r6, r8, r9, sl, fp, ip, lr}^
    5078:	5f626d75 	svcpl	0x00626d75
    507c:	0031205f 	eorseq	r2, r1, pc, asr r0
    5080:	54524f50 	ldrbpl	r4, [r2], #-3920	; 0xfffff0b0
    5084:	7465445f 	strbtvc	r4, [r5], #-1119	; 0xfffffba1
    5088:	6f746365 	svcvs	0x00746365
    508c:	29782872 	ldmdbcs	r8!, {r1, r4, r5, r6, fp, sp}^
    5090:	28202820 	stmdacs	r0!, {r5, fp, sp}
    5094:	473d3d78 			; <UNDEFINED> instruction: 0x473d3d78
    5098:	414f4950 	cmpmi	pc, r0, asr r9	; <UNPREDICTABLE>
    509c:	203f2029 	eorscs	r2, pc, r9, lsr #32
    50a0:	28203a30 	stmdacs	r0!, {r4, r5, r9, fp, ip, sp}
    50a4:	473d3d78 			; <UNDEFINED> instruction: 0x473d3d78
    50a8:	424f4950 	submi	r4, pc, #80, 18	; 0x140000
    50ac:	203f2029 	eorscs	r2, pc, r9, lsr #32
    50b0:	28203a31 	stmdacs	r0!, {r0, r4, r5, r9, fp, ip, sp}
    50b4:	473d3d78 			; <UNDEFINED> instruction: 0x473d3d78
    50b8:	434f4950 	movtmi	r4, #63824	; 0xf950
    50bc:	203f2029 	eorscs	r2, pc, r9, lsr #32
    50c0:	28203a33 	stmdacs	r0!, {r0, r1, r4, r5, r9, fp, ip, sp}
    50c4:	473d3d78 			; <UNDEFINED> instruction: 0x473d3d78
    50c8:	444f4950 	strbmi	r4, [pc], #-2384	; 50d0 <_Min_Stack_Size+0x4cd0>
    50cc:	203f2029 	eorscs	r2, pc, r9, lsr #32
    50d0:	20303a34 	eorscs	r3, r0, r4, lsr sl
    50d4:	5f5f0029 	svcpl	0x005f0029
    50d8:	454d5241 	strbmi	r5, [sp, #-577]	; 0xfffffdbf
    50dc:	205f5f4c 	subscs	r5, pc, ip, asr #30
    50e0:	564e0031 			; <UNDEFINED> instruction: 0x564e0031
    50e4:	425f4349 	subsmi	r4, pc, #603979777	; 0x24000001
    50e8:	20455341 	subcs	r5, r5, r1, asr #6
    50ec:	30457830 	subcc	r7, r5, r0, lsr r8
    50f0:	31453030 	cmpcc	r5, r0, lsr r0
    50f4:	5f003030 	svcpl	0x00003030
    50f8:	5f51485f 	svcpl	0x0051485f
    50fc:	54494246 	strbpl	r4, [r9], #-582	; 0xfffffdba
    5100:	31205f5f 			; <UNDEFINED> instruction: 0x31205f5f
    5104:	58450035 	stmdapl	r5, {r0, r2, r4, r5}^
    5108:	495f3354 	ldmdbmi	pc, {r2, r4, r6, r8, r9, ip, sp}^	; <UNPREDICTABLE>
    510c:	39205152 	stmdbcc	r0!, {r1, r4, r6, r8, ip, lr}
    5110:	535f5f00 	cmppl	pc, #0, 30
    5114:	5f455a49 	svcpl	0x00455a49
    5118:	5f58414d 	svcpl	0x0058414d
    511c:	7830205f 	ldmdavc	r0!, {r0, r1, r2, r3, r4, r6, sp}
    5120:	66666666 	strbtvs	r6, [r6], -r6, ror #12
    5124:	66666666 	strbtvs	r6, [r6], -r6, ror #12
    5128:	50470055 	subpl	r0, r7, r5, asr r0
    512c:	5f434f49 	svcpl	0x00434f49
    5130:	45534142 	ldrbmi	r4, [r3, #-322]	; 0xfffffebe
    5134:	34783020 	ldrbtcc	r3, [r8], #-32	; 0xffffffe0
    5138:	31313030 	teqcc	r1, r0, lsr r0
    513c:	00303030 	eorseq	r3, r0, r0, lsr r0
    5140:	52415f5f 	subpl	r5, r1, #380	; 0x17c
    5144:	52415f4d 	subpl	r5, r1, #308	; 0x134
    5148:	45004843 	strmi	r4, [r0, #-2115]	; 0xfffff7bd
    514c:	33315458 	teqcc	r1, #88, 8	; 0x58000000
    5150:	33314250 	teqcc	r1, #80, 4
    5154:	50472820 	subpl	r2, r7, r0, lsr #16
    5158:	435f4f49 	cmpmi	pc, #292	; 0x124
    515c:	49464e4f 	stmdbmi	r6, {r0, r1, r2, r3, r6, r9, sl, fp, lr}^
    5160:	29745f47 	ldmdbcs	r4!, {r0, r1, r2, r6, r8, r9, sl, fp, ip, lr}^
    5164:	5458457b 	ldrbpl	r4, [r8], #-1403	; 0xfffffa85
    5168:	2c333149 	ldfcss	f3, [r3], #-292	; 0xfffffedc
    516c:	4f495047 	svcmi	0x00495047
    5170:	49502c42 	ldmdbmi	r0, {r1, r6, sl, fp, sp}^
    5174:	33315f4e 	teqcc	r1, #312	; 0x138
    5178:	5458452c 	ldrbpl	r4, [r8], #-1324	; 0xfffffad4
    517c:	495f3331 	ldmdbmi	pc, {r0, r4, r5, r8, r9, ip, sp}^	; <UNPREDICTABLE>
    5180:	007d5152 	rsbseq	r5, sp, r2, asr r1
    5184:	544e4955 	strbpl	r4, [lr], #-2389	; 0xfffff6ab
    5188:	414d5f38 	cmpmi	sp, r8, lsr pc
    518c:	5f282058 	svcpl	0x00282058
    5190:	4e49555f 	mcrmi	5, 2, r5, cr9, cr15, {2}
    5194:	4d5f3854 	ldclmi	8, cr3, [pc, #-336]	; 504c <_Min_Stack_Size+0x4c4c>
    5198:	5f5f5841 	svcpl	0x005f5841
    519c:	5f5f0029 	svcpl	0x005f0029
    51a0:	474e4f4c 	strbmi	r4, [lr, -ip, asr #30]
    51a4:	58414d5f 	stmdapl	r1, {r0, r1, r2, r3, r4, r6, r8, sl, fp, lr}^
    51a8:	30205f5f 	eorcc	r5, r0, pc, asr pc
    51ac:	66663778 			; <UNDEFINED> instruction: 0x66663778
    51b0:	66666666 	strbtvs	r6, [r6], -r6, ror #12
    51b4:	55004c66 	strpl	r4, [r0, #-3174]	; 0xfffff39a
    51b8:	5f544e49 	svcpl	0x00544e49
    51bc:	54534146 	ldrbpl	r4, [r3], #-326	; 0xfffffeba
    51c0:	414d5f38 	cmpmi	sp, r8, lsr pc
    51c4:	5f282058 	svcpl	0x00282058
    51c8:	4e49555f 	mcrmi	5, 2, r5, cr9, cr15, {2}
    51cc:	41465f54 	cmpmi	r6, r4, asr pc
    51d0:	5f385453 	svcpl	0x00385453
    51d4:	5f58414d 	svcpl	0x0058414d
    51d8:	4900295f 	stmdbmi	r0, {r0, r1, r2, r3, r4, r6, r8, fp, sp}
    51dc:	5f38544e 	svcpl	0x0038544e
    51e0:	204e494d 	subcs	r4, lr, sp, asr #18
    51e4:	5f5f2d28 	svcpl	0x005f2d28
    51e8:	38544e49 	ldmdacc	r4, {r0, r3, r6, r9, sl, fp, lr}^
    51ec:	58414d5f 	stmdapl	r1, {r0, r1, r2, r3, r4, r6, r8, sl, fp, lr}^
    51f0:	2d205f5f 	stccs	15, cr5, [r0, #-380]!	; 0xfffffe84
    51f4:	00293120 	eoreq	r3, r9, r0, lsr #2
    51f8:	49545845 	ldmdbmi	r4, {r0, r2, r6, fp, ip, lr}^
    51fc:	00332033 	eorseq	r2, r3, r3, lsr r0
    5200:	52415f5f 	subpl	r5, r1, #380	; 0x17c
    5204:	45465f4d 	strbmi	r5, [r6, #-3917]	; 0xfffff0b3
    5208:	52555441 	subspl	r5, r5, #1090519040	; 0x41000000
    520c:	444c5f45 	strbmi	r5, [ip], #-3909	; 0xfffff0bb
    5210:	20584552 	subscs	r4, r8, r2, asr r5
    5214:	5f5f0037 	svcpl	0x005f0037
    5218:	455a4953 	ldrbmi	r4, [sl, #-2387]	; 0xfffff6ad
    521c:	5059545f 	subspl	r5, r9, pc, asr r4
    5220:	205f5f45 	subscs	r5, pc, r5, asr #30
    5224:	69736e75 	ldmdbvs	r3!, {r0, r2, r4, r5, r6, r9, sl, fp, sp, lr}^
    5228:	64656e67 	strbtvs	r6, [r5], #-3687	; 0xfffff199
    522c:	746e6920 	strbtvc	r6, [lr], #-2336	; 0xfffff6e0
    5230:	544e4900 	strbpl	r4, [lr], #-2304	; 0xfffff700
    5234:	435f3631 	cmpmi	pc, #51380224	; 0x3100000
    5238:	20297828 	eorcs	r7, r9, r8, lsr #16
    523c:	4e495f5f 	mcrmi	15, 2, r5, cr9, cr15, {2}
    5240:	5f363154 	svcpl	0x00363154
    5244:	29782843 	ldmdbcs	r8!, {r0, r1, r6, fp, sp}^
    5248:	4c5f5f00 	mrrcmi	15, 0, r5, pc, cr0	; <UNPREDICTABLE>
    524c:	4152464c 	cmpmi	r2, ip, asr #12
    5250:	455f5443 	ldrbmi	r5, [pc, #-1091]	; 4e15 <_Min_Stack_Size+0x4a15>
    5254:	4c495350 	mcrrmi	3, 5, r5, r9, cr0
    5258:	5f5f4e4f 	svcpl	0x005f4e4f
    525c:	31783020 	cmncc	r8, r0, lsr #32
    5260:	33362d50 	teqcc	r6, #80, 26	; 0x1400
    5264:	00524c4c 	subseq	r4, r2, ip, asr #24
    5268:	49555f5f 	ldmdbmi	r5, {r0, r1, r2, r3, r4, r6, r8, r9, sl, fp, ip, lr}^
    526c:	4c5f544e 	cfldrdmi	mvd5, [pc], {78}	; 0x4e
    5270:	54534145 	ldrbpl	r4, [r3], #-325	; 0xfffffebb
    5274:	4d5f3436 	cfldrdmi	mvd3, [pc, #-216]	; 51a4 <_Min_Stack_Size+0x4da4>
    5278:	5f5f5841 	svcpl	0x005f5841
    527c:	66783020 	ldrbtvs	r3, [r8], -r0, lsr #32
    5280:	66666666 	strbtvs	r6, [r6], -r6, ror #12
    5284:	66666666 	strbtvs	r6, [r6], -r6, ror #12
    5288:	66666666 	strbtvs	r6, [r6], -r6, ror #12
    528c:	55666666 	strbpl	r6, [r6, #-1638]!	; 0xfffff99a
    5290:	5f004c4c 	svcpl	0x00004c4c
    5294:	4d52415f 	ldfmie	f4, [r2, #-380]	; 0xfffffe84
    5298:	4145465f 	cmpmi	r5, pc, asr r6
    529c:	45525554 	ldrbmi	r5, [r2, #-1364]	; 0xfffffaac
    52a0:	4d49535f 	stclmi	3, cr5, [r9, #-380]	; 0xfffffe84
    52a4:	00323344 	eorseq	r3, r2, r4, asr #6
    52a8:	4c465f5f 	mcrrmi	15, 5, r5, r6, cr15
    52ac:	58323354 	ldmdapl	r2!, {r2, r4, r6, r8, r9, ip, sp}
    52b0:	4e414d5f 	mcrmi	13, 2, r4, cr1, cr15, {2}
    52b4:	49445f54 	stmdbmi	r4, {r2, r4, r6, r8, r9, sl, fp, ip, lr}^
    52b8:	205f5f47 	subscs	r5, pc, r7, asr #30
    52bc:	45003335 	strmi	r3, [r0, #-821]	; 0xfffffccb
    52c0:	38495458 	stmdacc	r9, {r3, r4, r6, sl, ip, lr}^
    52c4:	5f003820 	svcpl	0x00003820
    52c8:	4843575f 	stmdami	r3, {r0, r1, r2, r3, r4, r6, r8, r9, sl, ip, lr}^
    52cc:	575f5241 	ldrbpl	r5, [pc, -r1, asr #4]
    52d0:	48544449 	ldmdami	r4, {r0, r3, r6, sl, lr}^
    52d4:	33205f5f 			; <UNDEFINED> instruction: 0x33205f5f
    52d8:	5f5f0032 	svcpl	0x005f0032
    52dc:	31544e49 	cmpcc	r4, r9, asr #28
    52e0:	28435f36 	stmdacs	r3, {r1, r2, r4, r5, r8, r9, sl, fp, ip, lr}^
    52e4:	63202963 			; <UNDEFINED> instruction: 0x63202963
    52e8:	445f5f00 	ldrbmi	r5, [pc], #-3840	; 52f0 <_Min_Stack_Size+0x4ef0>
    52ec:	42495f41 	submi	r5, r9, #260	; 0x104
    52f0:	5f5f5449 	svcpl	0x005f5449
    52f4:	00323320 	eorseq	r3, r2, r0, lsr #6
    52f8:	4349564e 	movtmi	r5, #38478	; 0x964e
    52fc:	5458455f 	ldrbpl	r4, [r8], #-1375	; 0xfffffaa1
    5300:	455f3249 	ldrbmi	r3, [pc, #-585]	; 50bf <_Min_Stack_Size+0x4cbf>
    5304:	4e28204e 	cdpmi	0, 2, cr2, cr8, cr14, {2}
    5308:	5f434956 	svcpl	0x00434956
    530c:	52455349 	subpl	r5, r5, #603979777	; 0x24000001
    5310:	283d7c30 	ldmdacs	sp!, {r4, r5, sl, fp, ip, sp, lr}
    5314:	453c3c31 	ldrmi	r3, [ip, #-3121]!	; 0xfffff3cf
    5318:	5f325458 	svcpl	0x00325458
    531c:	29515249 	ldmdbcs	r1, {r0, r3, r6, r9, ip, lr}^
    5320:	5f5f0029 	svcpl	0x005f0029
    5324:	52465355 	subpl	r5, r6, #1409286145	; 0x54000001
    5328:	5f544341 	svcpl	0x00544341
    532c:	54494249 	strbpl	r4, [r9], #-585	; 0xfffffdb7
    5330:	30205f5f 	eorcc	r5, r0, pc, asr pc
    5334:	6f687300 	svcvs	0x00687300
    5338:	2b207472 	blcs	822508 <_Min_Stack_Size+0x822108>
    533c:	58450031 	stmdapl	r5, {r0, r4, r5}^
    5340:	5f314954 	svcpl	0x00314954
    5344:	48515249 	ldmdami	r1, {r0, r3, r6, r9, ip, lr}^
    5348:	6c646e61 	stclvs	14, cr6, [r4], #-388	; 0xfffffe7c
    534c:	5f007265 	svcpl	0x00007265
    5350:	4f54415f 	svcmi	0x0054415f
    5354:	5f43494d 	svcpl	0x0043494d
    5358:	5f514341 	svcpl	0x00514341
    535c:	204c4552 	subcs	r4, ip, r2, asr r5
    5360:	5f5f0034 	svcpl	0x005f0034
    5364:	5f544e49 	svcpl	0x00544e49
    5368:	5341454c 	movtpl	r4, #5452	; 0x154c
    536c:	545f3854 	ldrbpl	r3, [pc], #-2132	; 5374 <_Min_Stack_Size+0x4f74>
    5370:	5f455059 	svcpl	0x00455059
    5374:	6973205f 	ldmdbvs	r3!, {r0, r1, r2, r3, r4, r6, sp}^
    5378:	64656e67 	strbtvs	r6, [r5], #-3687	; 0xfffff199
    537c:	61686320 	cmnvs	r8, r0, lsr #6
    5380:	5f5f0072 	svcpl	0x005f0072
    5384:	495f5148 	ldmdbmi	pc, {r3, r6, r8, ip, lr}^	; <UNPREDICTABLE>
    5388:	5f544942 	svcpl	0x00544942
    538c:	0030205f 	eorseq	r2, r0, pc, asr r0
    5390:	42445f5f 	submi	r5, r4, #380	; 0x17c
    5394:	494d5f4c 	stmdbmi	sp, {r2, r3, r6, r8, r9, sl, fp, ip, lr}^
    5398:	30315f4e 	eorscc	r5, r1, lr, asr #30
    539c:	5058455f 	subspl	r4, r8, pc, asr r5
    53a0:	28205f5f 	stmdacs	r0!, {r0, r1, r2, r3, r4, r6, r8, r9, sl, fp, ip, lr}
    53a4:	3730332d 	ldrcc	r3, [r0, -sp, lsr #6]!
    53a8:	54530029 	ldrbpl	r0, [r3], #-41	; 0xffffffd7
    53ac:	4632334d 	ldrtmi	r3, [r2], -sp, asr #6
    53b0:	00312031 	eorseq	r2, r1, r1, lsr r0
    53b4:	31545845 	cmpcc	r4, r5, asr #16
    53b8:	20314250 	eorscs	r4, r1, r0, asr r2
    53bc:	49504728 	ldmdbmi	r0, {r3, r5, r8, r9, sl, lr}^
    53c0:	4f435f4f 	svcmi	0x00435f4f
    53c4:	4749464e 	strbmi	r4, [r9, -lr, asr #12]
    53c8:	7b29745f 	blvc	a6254c <_Min_Stack_Size+0xa6214c>
    53cc:	49545845 	ldmdbmi	r4, {r0, r2, r6, fp, ip, lr}^
    53d0:	50472c31 	subpl	r2, r7, r1, lsr ip
    53d4:	2c424f49 	mcrrcs	15, 4, r4, r2, cr9
    53d8:	5f4e4950 	svcpl	0x004e4950
    53dc:	58452c31 	stmdapl	r5, {r0, r4, r5, sl, fp, sp}^
    53e0:	495f3154 	ldmdbmi	pc, {r2, r4, r6, r8, ip, sp}^	; <UNPREDICTABLE>
    53e4:	007d5152 	rsbseq	r5, sp, r2, asr r1
    53e8:	37545845 	ldrbcc	r5, [r4, -r5, asr #16]
    53ec:	20374250 	eorscs	r4, r7, r0, asr r2
    53f0:	49504728 	ldmdbmi	r0, {r3, r5, r8, r9, sl, lr}^
    53f4:	4f435f4f 	svcmi	0x00435f4f
    53f8:	4749464e 	strbmi	r4, [r9, -lr, asr #12]
    53fc:	7b29745f 	blvc	a62580 <_Min_Stack_Size+0xa62180>
    5400:	49545845 	ldmdbmi	r4, {r0, r2, r6, fp, ip, lr}^
    5404:	50472c37 	subpl	r2, r7, r7, lsr ip
    5408:	2c424f49 	mcrrcs	15, 4, r4, r2, cr9
    540c:	5f4e4950 	svcpl	0x004e4950
    5410:	58452c37 	stmdapl	r5, {r0, r1, r2, r4, r5, sl, fp, sp}^
    5414:	495f3754 	ldmdbmi	pc, {r2, r4, r6, r8, r9, sl, ip, sp}^	; <UNPREDICTABLE>
    5418:	007d5152 	rsbseq	r5, sp, r2, asr r1
    541c:	31545845 	cmpcc	r4, r5, asr #16
    5420:	31415032 	cmpcc	r1, r2, lsr r0
    5424:	47282032 			; <UNDEFINED> instruction: 0x47282032
    5428:	5f4f4950 	svcpl	0x004f4950
    542c:	464e4f43 	strbmi	r4, [lr], -r3, asr #30
    5430:	745f4749 	ldrbvc	r4, [pc], #-1865	; 5438 <_Min_Stack_Size+0x5038>
    5434:	58457b29 	stmdapl	r5, {r0, r3, r5, r8, r9, fp, ip, sp, lr}^
    5438:	32314954 	eorscc	r4, r1, #84, 18	; 0x150000
    543c:	4950472c 	ldmdbmi	r0, {r2, r3, r5, r8, r9, sl, lr}^
    5440:	502c414f 	eorpl	r4, ip, pc, asr #2
    5444:	315f4e49 	cmpcc	pc, r9, asr #28
    5448:	58452c32 	stmdapl	r5, {r1, r4, r5, sl, fp, sp}^
    544c:	5f323154 	svcpl	0x00323154
    5450:	7d515249 	lfmvc	f5, 2, [r1, #-292]	; 0xfffffedc
    5454:	695f5f00 	ldmdbvs	pc, {r8, r9, sl, fp, ip, lr}^	; <UNPREDICTABLE>
    5458:	3032746e 	eorscc	r7, r2, lr, ror #8
    545c:	544e4900 	strbpl	r4, [lr], #-2304	; 0xfffff700
    5460:	5341465f 	movtpl	r4, #5727	; 0x165f
    5464:	5f323354 	svcpl	0x00323354
    5468:	2058414d 	subscs	r4, r8, sp, asr #2
    546c:	495f5f28 	ldmdbmi	pc, {r3, r5, r8, r9, sl, fp, ip, lr}^	; <UNPREDICTABLE>
    5470:	465f544e 	ldrbmi	r5, [pc], -lr, asr #8
    5474:	33545341 	cmpcc	r4, #67108865	; 0x4000001
    5478:	414d5f32 	cmpmi	sp, r2, lsr pc
    547c:	295f5f58 	ldmdbcs	pc, {r3, r4, r6, r8, r9, sl, fp, ip, lr}^	; <UNPREDICTABLE>
    5480:	465f5f00 	ldrbmi	r5, [pc], -r0, lsl #30
    5484:	3233544c 	eorscc	r5, r3, #76, 8	; 0x4c000000
    5488:	524f4e5f 	subpl	r4, pc, #1520	; 0x5f0
    548c:	414d5f4d 	cmpmi	sp, sp, asr #30
    5490:	205f5f58 	subscs	r5, pc, r8, asr pc	; <UNPREDICTABLE>
    5494:	30342e33 	eorscc	r2, r4, r3, lsr lr
    5498:	33323832 	teqcc	r2, #3276800	; 0x320000
    549c:	33363634 	teqcc	r6, #52, 12	; 0x3400000
    54a0:	38323538 	ldmdacc	r2!, {r3, r4, r5, r8, sl, ip, sp}
    54a4:	2b653638 	blcs	1952d8c <_Min_Stack_Size+0x195298c>
    54a8:	33463833 	movtcc	r3, #26675	; 0x6833
    54ac:	58450032 	stmdapl	r5, {r1, r4, r5}^
    54b0:	50333154 	eorspl	r3, r3, r4, asr r1
    54b4:	20333144 	eorscs	r3, r3, r4, asr #2
    54b8:	49504728 	ldmdbmi	r0, {r3, r5, r8, r9, sl, lr}^
    54bc:	4f435f4f 	svcmi	0x00435f4f
    54c0:	4749464e 	strbmi	r4, [r9, -lr, asr #12]
    54c4:	7b29745f 	blvc	a62648 <_Min_Stack_Size+0xa62248>
    54c8:	49545845 	ldmdbmi	r4, {r0, r2, r6, fp, ip, lr}^
    54cc:	472c3331 			; <UNDEFINED> instruction: 0x472c3331
    54d0:	444f4950 	strbmi	r4, [pc], #-2384	; 54d8 <_Min_Stack_Size+0x50d8>
    54d4:	4e49502c 	cdpmi	0, 4, cr5, cr9, cr12, {1}
    54d8:	2c33315f 	ldfcss	f3, [r3], #-380	; 0xfffffe84
    54dc:	31545845 	cmpcc	r4, r5, asr #16
    54e0:	52495f33 	subpl	r5, r9, #51, 30	; 0xcc
    54e4:	4e007d51 	mcrmi	13, 0, r7, cr0, cr1, {2}
    54e8:	5f434956 	svcpl	0x00434956
    54ec:	49545845 	ldmdbmi	r4, {r0, r2, r6, fp, ip, lr}^
    54f0:	20445f31 	subcs	r5, r4, r1, lsr pc
    54f4:	49564e28 	ldmdbmi	r6, {r3, r5, r9, sl, fp, lr}^
    54f8:	53495f43 	movtpl	r5, #40771	; 0x9f43
    54fc:	26305245 	ldrtcs	r5, [r0], -r5, asr #4
    5500:	31287e3d 			; <UNDEFINED> instruction: 0x31287e3d
    5504:	58453c3c 	stmdapl	r5, {r2, r3, r4, r5, sl, fp, ip, sp}^
    5508:	495f3154 	ldmdbmi	pc, {r2, r4, r6, r8, ip, sp}^	; <UNPREDICTABLE>
    550c:	29295152 	stmdbcs	r9!, {r1, r4, r6, r8, ip, lr}
    5510:	4f505f00 	svcmi	0x00505f00
    5514:	5f584953 	svcpl	0x00584953
    5518:	4f535f43 	svcmi	0x00535f43
    551c:	45435255 	strbmi	r5, [r3, #-597]	; 0xfffffdab
    5520:	555f5f00 	ldrbpl	r5, [pc, #-3840]	; 4628 <_Min_Stack_Size+0x4228>
    5524:	4d544e49 	ldclmi	14, cr4, [r4, #-292]	; 0xfffffedc
    5528:	4d5f5841 	ldclmi	8, cr5, [pc, #-260]	; 542c <_Min_Stack_Size+0x502c>
    552c:	5f5f5841 	svcpl	0x005f5841
    5530:	66783020 	ldrbtvs	r3, [r8], -r0, lsr #32
    5534:	66666666 	strbtvs	r6, [r6], -r6, ror #12
    5538:	66666666 	strbtvs	r6, [r6], -r6, ror #12
    553c:	66666666 	strbtvs	r6, [r6], -r6, ror #12
    5540:	55666666 	strbpl	r6, [r6, #-1638]!	; 0xfffff99a
    5544:	5f004c4c 	svcpl	0x00004c4c
    5548:	4c42445f 	cfstrdmi	mvd4, [r2], {95}	; 0x5f
    554c:	4e414d5f 	mcrmi	13, 2, r4, cr1, cr15, {2}
    5550:	49445f54 	stmdbmi	r4, {r2, r4, r6, r8, r9, sl, fp, ip, lr}^
    5554:	205f5f47 	subscs	r5, pc, r7, asr #30
    5558:	4e003335 	mcrmi	3, 0, r3, cr0, cr5, {1}
    555c:	5f434956 	svcpl	0x00434956
    5560:	49545845 	ldmdbmi	r4, {r0, r2, r6, fp, ip, lr}^
    5564:	445f3531 	ldrbmi	r3, [pc], #-1329	; 556c <_Min_Stack_Size+0x516c>
    5568:	564e2820 	strbpl	r2, [lr], -r0, lsr #16
    556c:	495f4349 	ldmdbmi	pc, {r0, r3, r6, r8, r9, lr}^	; <UNPREDICTABLE>
    5570:	31524553 	cmpcc	r2, r3, asr r5
    5574:	287e3d26 	ldmdacs	lr!, {r1, r2, r5, r8, sl, fp, ip, sp}^
    5578:	383c3c31 	ldmdacc	ip!, {r0, r4, r5, sl, fp, ip, sp}
    557c:	5f002929 	svcpl	0x00002929
    5580:	464c555f 			; <UNDEFINED> instruction: 0x464c555f
    5584:	54434152 	strbpl	r4, [r3], #-338	; 0xfffffeae
    5588:	4942495f 	stmdbmi	r2, {r0, r1, r2, r3, r4, r6, r8, fp, lr}^
    558c:	205f5f54 	subscs	r5, pc, r4, asr pc	; <UNPREDICTABLE>
    5590:	58450030 	stmdapl	r5, {r4, r5}^
    5594:	44503854 	ldrbmi	r3, [r0], #-2132	; 0xfffff7ac
    5598:	47282038 			; <UNDEFINED> instruction: 0x47282038
    559c:	5f4f4950 	svcpl	0x004f4950
    55a0:	464e4f43 	strbmi	r4, [lr], -r3, asr #30
    55a4:	745f4749 	ldrbvc	r4, [pc], #-1865	; 55ac <_Min_Stack_Size+0x51ac>
    55a8:	58457b29 	stmdapl	r5, {r0, r3, r5, r8, r9, fp, ip, sp, lr}^
    55ac:	2c384954 			; <UNDEFINED> instruction: 0x2c384954
    55b0:	4f495047 	svcmi	0x00495047
    55b4:	49502c44 	ldmdbmi	r0, {r2, r6, sl, fp, sp}^
    55b8:	2c385f4e 	ldccs	15, cr5, [r8], #-312	; 0xfffffec8
    55bc:	38545845 	ldmdacc	r4, {r0, r2, r6, fp, ip, lr}^
    55c0:	5152495f 	cmppl	r2, pc, asr r9
    55c4:	5845007d 	stmdapl	r5, {r0, r2, r3, r4, r5, r6}^
    55c8:	5f333154 	svcpl	0x00333154
    55cc:	20515249 	subscs	r5, r1, r9, asr #4
    55d0:	5f003034 	svcpl	0x00003034
    55d4:	544e495f 	strbpl	r4, [lr], #-2399	; 0xfffff6a1
    55d8:	58414d5f 	stmdapl	r1, {r0, r1, r2, r3, r4, r6, r8, sl, fp, lr}^
    55dc:	30205f5f 	eorcc	r5, r0, pc, asr pc
    55e0:	66663778 			; <UNDEFINED> instruction: 0x66663778
    55e4:	66666666 	strbtvs	r6, [r6], -r6, ror #12
    55e8:	5f5f0066 	svcpl	0x005f0066
    55ec:	5f544e49 	svcpl	0x00544e49
    55f0:	5341454c 	movtpl	r4, #5452	; 0x154c
    55f4:	5f343654 	svcpl	0x00343654
    55f8:	45505954 	ldrbmi	r5, [r0, #-2388]	; 0xfffff6ac
    55fc:	6c205f5f 	stcvs	15, cr5, [r0], #-380	; 0xfffffe84
    5600:	20676e6f 	rsbcs	r6, r7, pc, ror #28
    5604:	676e6f6c 	strbvs	r6, [lr, -ip, ror #30]!
    5608:	746e6920 	strbtvc	r6, [lr], #-2336	; 0xfffff6e0
    560c:	555f5f00 	ldrbpl	r5, [pc, #-3840]	; 4714 <_Min_Stack_Size+0x4314>
    5610:	31544e49 	cmpcc	r4, r9, asr #28
    5614:	414d5f36 	cmpmi	sp, r6, lsr pc
    5618:	205f5f58 	subscs	r5, pc, r8, asr pc	; <UNPREDICTABLE>
    561c:	66667830 			; <UNDEFINED> instruction: 0x66667830
    5620:	5f006666 	svcpl	0x00006666
    5624:	4d52415f 	ldfmie	f4, [r2, #-380]	; 0xfffffe84
    5628:	4145465f 	cmpmi	r5, pc, asr r6
    562c:	45525554 	ldrbmi	r5, [r2, #-1364]	; 0xfffffaac
    5630:	4544435f 	strbmi	r4, [r4, #-863]	; 0xfffffca1
    5634:	504f435f 	subpl	r4, pc, pc, asr r3	; <UNPREDICTABLE>
    5638:	00434f52 	subeq	r4, r3, r2, asr pc
    563c:	36545845 	ldrbcc	r5, [r4], -r5, asr #16
    5640:	20364450 	eorscs	r4, r6, r0, asr r4
    5644:	49504728 	ldmdbmi	r0, {r3, r5, r8, r9, sl, lr}^
    5648:	4f435f4f 	svcmi	0x00435f4f
    564c:	4749464e 	strbmi	r4, [r9, -lr, asr #12]
    5650:	7b29745f 	blvc	a627d4 <_Min_Stack_Size+0xa623d4>
    5654:	49545845 	ldmdbmi	r4, {r0, r2, r6, fp, ip, lr}^
    5658:	50472c36 	subpl	r2, r7, r6, lsr ip
    565c:	2c444f49 	mcrrcs	15, 4, r4, r4, cr9
    5660:	5f4e4950 	svcpl	0x004e4950
    5664:	58452c36 	stmdapl	r5, {r1, r2, r4, r5, sl, fp, sp}^
    5668:	495f3654 	ldmdbmi	pc, {r2, r4, r6, r9, sl, ip, sp}^	; <UNPREDICTABLE>
    566c:	007d5152 	rsbseq	r5, sp, r2, asr r1
    5670:	52434442 	subpl	r4, r3, #1107296256	; 0x42000000
    5674:	736f7000 	cmnvc	pc, #0
    5678:	6e6f7469 	cdpvs	4, 6, cr7, cr15, cr9, {3}
    567c:	524f5000 	subpl	r5, pc, #0
    5680:	4e495f54 	mcrmi	15, 2, r5, cr9, cr4, {2}
    5684:	00545550 	subseq	r5, r4, r0, asr r5
    5688:	31425041 	cmpcc	r2, r1, asr #32
    568c:	00524e45 	subseq	r4, r2, r5, asr #28
    5690:	32425041 	subcc	r5, r2, #65	; 0x41
    5694:	52545352 	subspl	r5, r4, #1207959553	; 0x48000001
    5698:	42484100 	submi	r4, r8, #0, 2
    569c:	00524e45 	subseq	r4, r2, r5, asr #28
    56a0:	464e4f43 	strbmi	r4, [lr], -r3, asr #30
    56a4:	4d004749 	stcmi	7, cr4, [r0, #-292]	; 0xfffffedc
    56a8:	5f4c4143 	svcpl	0x004c4143
    56ac:	74697277 	strbtvc	r7, [r9], #-631	; 0xfffffd89
    56b0:	4f505f65 	svcmi	0x00505f65
    56b4:	47005452 	smlsdmi	r0, r2, r4, r5
    56b8:	584f4950 	stmdapl	pc, {r4, r6, r8, fp, lr}^	; <UNPREDICTABLE>
    56bc:	474f4c00 	strbmi	r4, [pc, -r0, lsl #24]
    56c0:	4c5f4349 	mrrcmi	3, 4, r4, pc, cr9	; <UNPREDICTABLE>
    56c4:	5200574f 	andpl	r5, r0, #20709376	; 0x13c0000
    56c8:	525f4343 	subspl	r4, pc, #201326593	; 0xc000001
    56cc:	41004745 	tstmi	r0, r5, asr #14
    56d0:	54534248 	ldrbpl	r4, [r3], #-584	; 0xfffffdb8
    56d4:	50410052 	subpl	r0, r1, r2, asr r0
    56d8:	53523142 	cmppl	r2, #-2147483632	; 0x80000010
    56dc:	4d005254 	sfmmi	f5, 4, [r0, #-336]	; 0xfffffeb0
    56e0:	5f4c4143 	svcpl	0x004c4143
    56e4:	4f495047 	svcmi	0x00495047
    56e8:	6965445f 	stmdbvs	r5!, {r0, r1, r2, r3, r4, r6, sl, lr}^
    56ec:	0074696e 	rsbseq	r6, r4, lr, ror #18
    56f0:	4c41434d 	mcrrmi	3, 4, r4, r1, cr13
    56f4:	6165525f 	cmnvs	r5, pc, asr r2
    56f8:	49505f64 	ldmdbmi	r0, {r2, r5, r6, r8, r9, sl, fp, ip, lr}^
    56fc:	4950004e 	ldmdbmi	r0, {r1, r2, r3, r6}^
    5700:	754e5f4e 	strbvc	r5, [lr, #-3918]	; 0xfffff0b2
    5704:	7265626d 	rsbvc	r6, r5, #-805306362	; 0xd0000006
    5708:	636f6c00 	cmnvs	pc, #0, 24
    570c:	6547006b 	strbvs	r0, [r7, #-107]	; 0xffffff95
    5710:	49505f74 	ldmdbmi	r0, {r2, r4, r5, r6, r8, r9, sl, fp, ip, lr}^
    5714:	6f505f4e 	svcvs	0x00505f4e
    5718:	6f746973 	svcvs	0x00746973
    571c:	434d006e 	movtmi	r0, #53358	; 0xd06e
    5720:	4c5f4c41 	mrrcmi	12, 4, r4, pc, cr1	; <UNPREDICTABLE>
    5724:	5f4b434f 	svcpl	0x004b434f
    5728:	004e4950 	subeq	r4, lr, r0, asr r9
    572c:	69737576 	ldmdbvs	r3!, {r1, r2, r4, r5, r6, r8, sl, ip, sp, lr}^
    5730:	5f38746e 	svcpl	0x0038746e
    5734:	46430074 			; <UNDEFINED> instruction: 0x46430074
    5738:	00325247 	eorseq	r5, r2, r7, asr #4
    573c:	49474f4c 	stmdbmi	r7, {r2, r3, r6, r8, r9, sl, fp, lr}^
    5740:	49485f43 	stmdbmi	r8, {r0, r1, r6, r8, r9, sl, fp, ip, lr}^
    5744:	47004847 	strmi	r4, [r0, -r7, asr #16]
    5748:	784f4950 	stmdavc	pc, {r4, r6, r8, fp, lr}^	; <UNPREDICTABLE>
    574c:	2f2e2e00 	svccs	0x002e2e00
    5750:	4c41434d 	mcrrmi	3, 4, r4, r1, cr13
    5754:	4950472f 	ldmdbmi	r0, {r0, r1, r2, r3, r5, r8, r9, sl, lr}^
    5758:	72445f4f 	subvc	r5, r4, #316	; 0x13c
    575c:	72657669 	rsbvc	r7, r5, #110100480	; 0x6900000
    5760:	7600632e 	strvc	r6, [r0], -lr, lsr #6
    5764:	65756c61 	ldrbvs	r6, [r5, #-3169]!	; 0xfffff39f
    5768:	47464300 	strbmi	r4, [r6, -r0, lsl #6]
    576c:	49500052 	ldmdbmi	r0, {r1, r4, r6}^
    5770:	5000784e 	andpl	r7, r0, lr, asr #16
    5774:	5f54524f 	svcpl	0x0054524f
    5778:	5054554f 	subspl	r5, r4, pc, asr #10
    577c:	4d005455 	cfstrsmi	mvf5, [r0, #-340]	; 0xfffffeac
    5780:	5f4c4143 	svcpl	0x004c4143
    5784:	74697277 	strbtvc	r7, [r9], #-631	; 0xfffffd89
    5788:	49505f65 	ldmdbmi	r0, {r0, r2, r5, r6, r8, r9, sl, fp, ip, lr}^
    578c:	5041004e 	subpl	r0, r1, lr, asr #32
    5790:	4e453242 	cdpmi	2, 4, cr3, cr5, cr2, {2}
    5794:	434d0052 	movtmi	r0, #53330	; 0xd052
    5798:	545f4c41 	ldrbpl	r4, [pc], #-3137	; 57a0 <_Min_Stack_Size+0x53a0>
    579c:	4c47474f 	mcrrmi	7, 4, r4, r7, cr15
    57a0:	49505f45 	ldmdbmi	r0, {r0, r2, r6, r8, r9, sl, fp, ip, lr}^
    57a4:	434d004e 	movtmi	r0, #53326	; 0xd04e
    57a8:	535f4c41 	cmppl	pc, #16640	; 0x4100
    57ac:	505f5445 	subspl	r5, pc, r5, asr #8
    57b0:	5f54524f 	svcpl	0x0054524f
    57b4:	00524944 	subseq	r4, r2, r4, asr #18
    57b8:	54524f50 	ldrbpl	r4, [r2], #-3920	; 0xfffff0b0
    57bc:	6e6f635f 	mcrvs	3, 3, r6, cr15, cr15, {2}
    57c0:	00676966 	rsbeq	r6, r7, r6, ror #18
    57c4:	4c41434d 	mcrrmi	3, 4, r4, r1, cr13
    57c8:	6165525f 	cmnvs	r5, pc, asr r2
    57cc:	4f505f64 	svcmi	0x00505f64
    57d0:	4c005452 	cfstrsmi	mvf5, [r0], {82}	; 0x52
    57d4:	535f4443 	cmppl	pc, #1124073472	; 0x43000000
    57d8:	435f5445 	cmpmi	pc, #1157627904	; 0x45000000
    57dc:	4f535255 	svcmi	0x00535255
    57e0:	4f4c5f52 	svcmi	0x004c5f52
    57e4:	49544143 	ldmdbmi	r4, {r0, r1, r6, r8, lr}^
    57e8:	30204e4f 	eorcc	r4, r0, pc, asr #28
    57ec:	00303878 	eorseq	r3, r0, r8, ror r8
    57f0:	5f434e49 	svcpl	0x00434e49
    57f4:	5059454b 	subspl	r4, r9, fp, asr #10
    57f8:	485f4441 	ldmdami	pc, {r0, r6, sl, lr}^	; <UNPREDICTABLE>
    57fc:	4c00205f 	stcmi	0, cr2, [r0], {95}	; 0x5f
    5800:	535f4443 	cmppl	pc, #1124073472	; 0x43000000
    5804:	435f5445 	cmpmi	pc, #1157627904	; 0x45000000
    5808:	4f535255 	svcmi	0x00535255
    580c:	4f4c5f52 	svcmi	0x004c5f52
    5810:	49544143 	ldmdbmi	r4, {r0, r1, r6, r8, lr}^
    5814:	325f4e4f 	subscc	r4, pc, #1264	; 0x4f0
    5818:	3020646e 	eorcc	r6, r0, lr, ror #8
    581c:	00304378 	eorseq	r4, r0, r8, ror r3
    5820:	5f6c6f43 	svcpl	0x006c6f43
    5824:	0034204e 	eorseq	r2, r4, lr, asr #32
    5828:	69755f5f 	ldmdbvs	r5!, {r0, r1, r2, r3, r4, r6, r8, r9, sl, fp, ip, lr}^
    582c:	5f38746e 	svcpl	0x0038746e
    5830:	37440074 	smlsldxcc	r0, r4, r4, r0
    5834:	4e495020 	cdpmi	0, 4, cr5, cr9, cr0, {1}
    5838:	0030315f 	eorseq	r3, r0, pc, asr r1
    583c:	6e69614d 	powvsem	f6, f1, #5.0
    5840:	00534f5f 	subseq	r4, r3, pc, asr pc
    5844:	545f535f 	ldrbpl	r5, [pc], #-863	; 584c <_Min_Stack_Size+0x544c>
    5848:	414b5341 	cmpmi	fp, r1, asr #6
    584c:	5053505f 	subspl	r5, r3, pc, asr r0
    5850:	20304400 	eorscs	r4, r0, r0, lsl #8
    5854:	5f4e4950 	svcpl	0x004e4950
    5858:	41540039 	cmpmi	r4, r9, lsr r0
    585c:	5f424b53 	svcpl	0x00424b53
    5860:	444e4148 	strbmi	r4, [lr], #-328	; 0xfffffeb8
    5864:	0052454c 	subseq	r4, r2, ip, asr #10
    5868:	50203043 	eorpl	r3, r0, r3, asr #32
    586c:	345f4e49 	ldrbcc	r4, [pc], #-3657	; 5874 <_Min_Stack_Size+0x5474>
    5870:	20314400 	eorscs	r4, r1, r0, lsl #8
    5874:	5f4e4950 	svcpl	0x004e4950
    5878:	6e550038 	mrcvs	0, 2, r0, cr5, cr8, {1}
    587c:	76697270 			; <UNDEFINED> instruction: 0x76697270
    5880:	67656c69 	strbvs	r6, [r5, -r9, ror #24]!
    5884:	4c006465 	cfstrsmi	mvf6, [r0], {101}	; 0x65
    5888:	545f4443 	ldrbpl	r4, [pc], #-1091	; 5890 <_Min_Stack_Size+0x5490>
    588c:	4c5f4f57 	mrrcmi	15, 5, r4, pc, cr7	; <UNPREDICTABLE>
    5890:	53454e49 	movtpl	r4, #24137	; 0x5e49
    5894:	4749455f 	smlsldmi	r4, r9, pc, r5	; <UNPREDICTABLE>
    5898:	425f5448 	subsmi	r5, pc, #72, 8	; 0x48000000
    589c:	5f535449 	svcpl	0x00535449
    58a0:	45444f4d 	strbmi	r4, [r4, #-3917]	; 0xfffff0b3
    58a4:	33783020 	cmncc	r8, #32
    58a8:	434c0038 	movtmi	r0, #49208	; 0xc038
    58ac:	57545f44 	ldrbpl	r5, [r4, -r4, asr #30]
    58b0:	494c5f4f 	stmdbmi	ip, {r0, r1, r2, r3, r6, r8, r9, sl, fp, ip, lr}^
    58b4:	5f53454e 	svcpl	0x0053454e
    58b8:	52554f46 	subspl	r4, r5, #280	; 0x118
    58bc:	5449425f 	strbpl	r4, [r9], #-607	; 0xfffffda1
    58c0:	4f4d5f53 	svcmi	0x004d5f53
    58c4:	30204544 	eorcc	r4, r0, r4, asr #10
    58c8:	00383278 	eorseq	r3, r8, r8, ror r2
    58cc:	5f44434c 	svcpl	0x0044434c
    58d0:	5f4f5754 	svcpl	0x004f5754
    58d4:	454e494c 	strbmi	r4, [lr, #-2380]	; 0xfffff6b4
    58d8:	4f465f53 	svcmi	0x00465f53
    58dc:	425f5255 	subsmi	r5, pc, #1342177285	; 0x50000005
    58e0:	5f535449 	svcpl	0x00535449
    58e4:	45444f4d 	strbmi	r4, [r4, #-3917]	; 0xfffff0b3
    58e8:	494e495f 	stmdbmi	lr, {r0, r1, r2, r3, r4, r6, r8, fp, lr}^
    58ec:	30203254 	eorcc	r3, r0, r4, asr r2
    58f0:	00323378 	eorseq	r3, r2, r8, ror r3
    58f4:	50203143 	eorpl	r3, r0, r3, asr #2
    58f8:	355f4e49 	ldrbcc	r4, [pc, #-3657]	; 4ab7 <_Min_Stack_Size+0x46b7>
    58fc:	20324400 	eorscs	r4, r2, r0, lsl #8
    5900:	5f4e4950 	svcpl	0x004e4950
    5904:	57520037 	smmlarpl	r2, r7, r0, r0
    5908:	4e495020 	cdpmi	0, 4, cr5, cr9, cr0, {1}
    590c:	0032315f 	eorseq	r3, r2, pc, asr r1
    5910:	4d5f535f 	ldclmi	3, cr5, [pc, #-380]	; 579c <_Min_Stack_Size+0x539c>
    5914:	4c005053 	stcmi	0, cr5, [r0], {83}	; 0x53
    5918:	475f4443 	ldrbmi	r4, [pc, -r3, asr #8]
    591c:	4f545f4f 	svcmi	0x00545f4f
    5920:	4d4f485f 	stclmi	8, cr4, [pc, #-380]	; 57ac <_Min_Stack_Size+0x53ac>
    5924:	78302045 	ldmdavc	r0!, {r0, r2, r6, sp}
    5928:	44003230 	strmi	r3, [r0], #-560	; 0xfffffdd0
    592c:	49502033 	ldmdbmi	r0, {r0, r1, r4, r5, sp}^
    5930:	00365f4e 	eorseq	r5, r6, lr, asr #30
    5934:	532f2e2e 			; <UNDEFINED> instruction: 0x532f2e2e
    5938:	6d2f6372 	stcvs	3, cr6, [pc, #-456]!	; 5778 <_Min_Stack_Size+0x5378>
    593c:	2e6e6961 	vnmulcs.f16	s13, s28, s3	; <UNPREDICTABLE>
    5940:	34440063 	strbcc	r0, [r4], #-99	; 0xffffff9d
    5944:	4e495020 	cdpmi	0, 4, cr5, cr9, cr0, {1}
    5948:	4f00355f 	svcmi	0x0000355f
    594c:	57535f53 			; <UNDEFINED> instruction: 0x57535f53
    5950:	48435449 	stmdami	r3, {r0, r3, r6, sl, ip, lr}^
    5954:	4552505f 	ldrbmi	r5, [r2, #-95]	; 0xffffffa1
    5958:	6e555f56 	mrcvs	15, 2, r5, cr5, cr6, {2}
    595c:	56455250 			; <UNDEFINED> instruction: 0x56455250
    5960:	20297828 	eorcs	r7, r9, r8, lsr #16
    5964:	74697773 	strbtvc	r7, [r9], #-1907	; 0xfffff88d
    5968:	78286863 	stmdavc	r8!, {r0, r1, r5, r6, fp, sp, lr}
    596c:	63207b29 			; <UNDEFINED> instruction: 0x63207b29
    5970:	20657361 	rsbcs	r7, r5, r1, ror #6
    5974:	76697250 			; <UNDEFINED> instruction: 0x76697250
    5978:	67656c69 	strbvs	r6, [r5, -r9, ror #24]!
    597c:	203a6465 	eorscs	r6, sl, r5, ror #8
    5980:	73615f5f 	cmnvc	r1, #380	; 0x17c
    5984:	4d22286d 	stcmi	8, cr2, [r2, #-436]!	; 0xfffffe4c
    5988:	72205352 	eorvc	r5, r0, #1207959553	; 0x48000001
    598c:	4f432c33 	svcmi	0x00432c33
    5990:	4f52544e 	svcmi	0x0052544e
    5994:	6e5c204c 	cdpvs	0, 5, cr2, cr12, cr12, {2}
    5998:	2022745c 	eorcs	r7, r2, ip, asr r4
    599c:	444e4122 	strbmi	r4, [lr], #-290	; 0xfffffede
    59a0:	2c337220 	lfmcs	f7, 4, [r3], #-128	; 0xffffff80
    59a4:	232c3372 			; <UNDEFINED> instruction: 0x232c3372
    59a8:	20457830 	subcs	r7, r5, r0, lsr r8
    59ac:	745c6e5c 	ldrbvc	r6, [ip], #-3676	; 0xfffff1a4
    59b0:	4d222022 	stcmi	0, cr2, [r2, #-136]!	; 0xffffff78
    59b4:	43205253 			; <UNDEFINED> instruction: 0x43205253
    59b8:	52544e4f 	subspl	r4, r4, #1264	; 0x4f0
    59bc:	722c4c4f 	eorvc	r4, ip, #20224	; 0x4f00
    59c0:	3b292233 	blcc	a4e294 <_Min_Stack_Size+0xa4de94>
    59c4:	65726220 	ldrbvs	r6, [r2, #-544]!	; 0xfffffde0
    59c8:	203b6b61 	eorscs	r6, fp, r1, ror #22
    59cc:	65736163 	ldrbvs	r6, [r3, #-355]!	; 0xfffffe9d
    59d0:	706e5520 	rsbvc	r5, lr, r0, lsr #10
    59d4:	69766972 	ldmdbvs	r6!, {r1, r4, r5, r6, r8, fp, sp, lr}^
    59d8:	6567656c 	strbvs	r6, [r7, #-1388]!	; 0xfffffa94
    59dc:	5f203a64 	svcpl	0x00203a64
    59e0:	6d73615f 	ldfvse	f6, [r3, #-380]!	; 0xfffffe84
    59e4:	524d2228 	subpl	r2, sp, #40, 4	; 0x80000002
    59e8:	33722053 	cmncc	r2, #83	; 0x53
    59ec:	4e4f432c 	cdpmi	3, 4, cr4, cr15, cr12, {1}
    59f0:	4c4f5254 	sfmmi	f5, 2, [pc], {84}	; 0x54
    59f4:	5c6e5c20 	stclpl	12, cr5, [lr], #-128	; 0xffffff80
    59f8:	22202274 	eorcs	r2, r0, #116, 4	; 0x40000007
    59fc:	2052524f 	subscs	r5, r2, pc, asr #4
    5a00:	722c3372 	eorvc	r3, ip, #-939524095	; 0xc8000001
    5a04:	30232c33 	eorcc	r2, r3, r3, lsr ip
    5a08:	20313078 	eorscs	r3, r1, r8, ror r0
    5a0c:	745c6e5c 	ldrbvc	r6, [ip], #-3676	; 0xfffff1a4
    5a10:	4d222022 	stcmi	0, cr2, [r2, #-136]!	; 0xffffff78
    5a14:	43205253 			; <UNDEFINED> instruction: 0x43205253
    5a18:	52544e4f 	subspl	r4, r4, #1264	; 0x4f0
    5a1c:	722c4c4f 	eorvc	r4, ip, #20224	; 0x4f00
    5a20:	3b292233 	blcc	a4e2f4 <_Min_Stack_Size+0xa4def4>
    5a24:	65726220 	ldrbvs	r6, [r2, #-544]!	; 0xfffffde0
    5a28:	203b6b61 	eorscs	r6, fp, r1, ror #22
    5a2c:	434c007d 	movtmi	r0, #49277	; 0xc07d
    5a30:	55435f44 	strbpl	r5, [r3, #-3908]	; 0xfffff0bc
    5a34:	524f5352 	subpl	r5, pc, #1207959553	; 0x48000001
    5a38:	204e4f5f 	subcs	r4, lr, pc, asr pc
    5a3c:	45307830 	ldrmi	r7, [r0, #-2096]!	; 0xfffff7d0
    5a40:	69725000 	ldmdbvs	r2!, {ip, lr}^
    5a44:	656c6976 	strbvs	r6, [ip, #-2422]!	; 0xfffff68a
    5a48:	00646567 	rsbeq	r6, r4, r7, ror #10
    5a4c:	5f44434c 	svcpl	0x0044434c
    5a50:	53525543 	cmppl	r2, #281018368	; 0x10c00000
    5a54:	4f5f524f 	svcmi	0x005f524f
    5a58:	30204646 	eorcc	r4, r0, r6, asr #12
    5a5c:	00433078 	subeq	r3, r3, r8, ror r0
    5a60:	50203052 	eorpl	r3, r0, r2, asr r0
    5a64:	305f4e49 	subscc	r4, pc, r9, asr #28
    5a68:	20354400 	eorscs	r4, r5, r0, lsl #8
    5a6c:	5f4e4950 	svcpl	0x004e4950
    5a70:	41480034 	cmpmi	r8, r4, lsr r0
    5a74:	4c45444e 	cfstrdmi	mvd4, [r5], {78}	; 0x4e
    5a78:	5f52454c 	svcpl	0x0052454c
    5a7c:	4c4c4143 	stfmie	f4, [ip], {67}	; 0x43
    5a80:	615f5f20 	cmpvs	pc, r0, lsr #30
    5a84:	22286d73 	eorcs	r6, r8, #7360	; 0x1cc0
    5a88:	20435653 	subcs	r5, r3, r3, asr r6
    5a8c:	30783023 	rsbscc	r3, r8, r3, lsr #32
    5a90:	00292234 	eoreq	r2, r9, r4, lsr r2
    5a94:	4d5f455f 	cfldr64mi	mvdx4, [pc, #-380]	; 5920 <_Min_Stack_Size+0x5520>
    5a98:	44005053 	strmi	r5, [r0], #-83	; 0xffffffad
    5a9c:	49502036 	ldmdbmi	r0, {r1, r2, r4, r5, sp}^
    5aa0:	00335f4e 	eorseq	r5, r3, lr, asr #30
    5aa4:	5f776f52 	svcpl	0x00776f52
    5aa8:	0034204e 	eorseq	r2, r4, lr, asr #32
    5aac:	50203252 	eorpl	r3, r0, r2, asr r2
    5ab0:	325f4e49 	subscc	r4, pc, #1168	; 0x490
    5ab4:	755f5f00 	ldrbvc	r5, [pc, #-3840]	; 4bbc <_Min_Stack_Size+0x47bc>
    5ab8:	33746e69 	cmncc	r4, #1680	; 0x690
    5abc:	00745f32 	rsbseq	r5, r4, r2, lsr pc
    5ac0:	50204e45 	eorpl	r4, r0, r5, asr #28
    5ac4:	315f4e49 	cmpcc	pc, r9, asr #28
    5ac8:	33520031 	cmpcc	r2, #49	; 0x31
    5acc:	4e495020 	cdpmi	0, 4, cr5, cr9, cr0, {1}
    5ad0:	4700335f 	smlsdmi	r0, pc, r3, r3	; <UNPREDICTABLE>
    5ad4:	425f5445 	subsmi	r5, pc, #1157627904	; 0x45000000
    5ad8:	52285449 	eorpl	r5, r8, #1224736768	; 0x49000000
    5adc:	6e2c4745 	cdpvs	7, 2, cr4, cr12, cr5, {2}
    5ae0:	20296d75 	eorcs	r6, r9, r5, ror sp
    5ae4:	45522828 	ldrbmi	r2, [r2, #-2088]	; 0xfffff7d8
    5ae8:	6e3e3e47 	cdpvs	14, 3, cr3, cr14, cr7, {2}
    5aec:	20296d75 	eorcs	r6, r9, r5, ror sp
    5af0:	00293126 	eoreq	r3, r9, r6, lsr #2
    5af4:	49545845 	ldmdbmi	r4, {r0, r2, r6, fp, ip, lr}^
    5af8:	61635f39 	cmnvs	r3, r9, lsr pc
    5afc:	61426c6c 	cmpvs	r2, ip, ror #24
    5b00:	49006b63 	stmdbmi	r0, {r0, r1, r5, r6, r8, r9, fp, sp, lr}
    5b04:	5f525350 	svcpl	0x00525350
    5b08:	004c4156 	subeq	r4, ip, r6, asr r1
    5b0c:	4b534154 	blmi	14d6064 <_Min_Stack_Size+0x14d5c64>
    5b10:	41540041 	cmpmi	r4, r1, asr #32
    5b14:	00424b53 	subeq	r4, r2, r3, asr fp
    5b18:	7473655f 	ldrbtvc	r6, [r3], #-1375	; 0xfffffaa1
    5b1c:	006b6361 	rsbeq	r6, fp, r1, ror #6
    5b20:	50203243 	eorpl	r3, r0, r3, asr #4
    5b24:	365f4e49 	ldrbcc	r4, [pc], -r9, asr #28
    5b28:	44434c00 	strbmi	r4, [r3], #-3072	; 0xfffff400
    5b2c:	4f57545f 	svcmi	0x0057545f
    5b30:	4e494c5f 	mcrmi	12, 2, r4, cr9, cr15, {2}
    5b34:	465f5345 	ldrbmi	r5, [pc], -r5, asr #6
    5b38:	5f52554f 	svcpl	0x0052554f
    5b3c:	53544942 	cmppl	r4, #1081344	; 0x108000
    5b40:	444f4d5f 	strbmi	r4, [pc], #-3423	; 5b48 <_Min_Stack_Size+0x5748>
    5b44:	4e495f45 	cdpmi	15, 4, cr5, cr9, cr5, {2}
    5b48:	20315449 	eorscs	r5, r1, r9, asr #8
    5b4c:	33337830 	teqcc	r3, #48, 16	; 0x300000
    5b50:	20334300 	eorscs	r4, r3, r0, lsl #6
    5b54:	5f4e4950 	svcpl	0x004e4950
    5b58:	455f0037 	ldrbmi	r0, [pc, #-55]	; 5b29 <_Min_Stack_Size+0x5729>
    5b5c:	5341545f 	movtpl	r5, #5215	; 0x145f
    5b60:	505f424b 	subspl	r4, pc, fp, asr #4
    5b64:	44005053 	strmi	r5, [r0], #-83	; 0xffffffad
    5b68:	5f415441 	svcpl	0x00415441
    5b6c:	54524f50 	ldrbpl	r4, [r2], #-3920	; 0xfffff0b0
    5b70:	49504720 	ldmdbmi	r0, {r5, r8, r9, sl, lr}^
    5b74:	4300424f 	movwmi	r4, #591	; 0x24f
    5b78:	5f4c5254 	svcpl	0x004c5254
    5b7c:	54524f50 	ldrbpl	r4, [r2], #-3920	; 0xfffff0b0
    5b80:	49504720 	ldmdbmi	r0, {r5, r8, r9, sl, lr}^
    5b84:	4600414f 	strmi	r4, [r0], -pc, asr #2
    5b88:	5f52554f 	svcpl	0x0052554f
    5b8c:	5f544942 	svcpl	0x00544942
    5b90:	45444f4d 	strbmi	r4, [r4, #-3917]	; 0xfffff0b3
    5b94:	45530020 	ldrbmi	r0, [r3, #-32]	; 0xffffffe0
    5b98:	53505f54 	cmppl	r0, #84, 30	; 0x150
    5b9c:	29782850 	ldmdbcs	r8!, {r4, r6, fp, sp}^
    5ba0:	615f5f20 	cmpvs	pc, r0, lsr #30
    5ba4:	22286d73 	eorcs	r6, r8, #7360	; 0x1cc0
    5ba8:	2052534d 	subscs	r5, r2, sp, asr #6
    5bac:	2c505350 	mrrccs	3, 5, r5, r0, cr0
    5bb0:	6e695b25 	vmulvs.f64	d21, d9, d21
    5bb4:	30747570 	rsbscc	r7, r4, r0, ror r5
    5bb8:	203a225d 	eorscs	r2, sl, sp, asr r2
    5bbc:	6e695b3a 	vmovvs.8	d9[5], r5
    5bc0:	30747570 	rsbscc	r7, r4, r0, ror r5
    5bc4:	7222205d 	eorvc	r2, r2, #93	; 0x5d
    5bc8:	78282022 	stmdavc	r8!, {r1, r5, sp}
    5bcc:	42002929 	andmi	r2, r0, #671744	; 0xa4000
    5bd0:	495f5449 	ldmdbmi	pc, {r0, r3, r6, sl, ip, lr}^	; <UNPREDICTABLE>
    5bd4:	45535f53 	ldrbmi	r5, [r3, #-3923]	; 0xfffff0ad
    5bd8:	45522854 	ldrbmi	r2, [r2, #-2132]	; 0xfffff7ac
    5bdc:	756e2c47 	strbvc	r2, [lr, #-3143]!	; 0xfffff3b9
    5be0:	2820296d 	stmdacs	r0!, {r0, r2, r3, r5, r6, r8, fp, sp}
    5be4:	47455228 	strbmi	r5, [r5, -r8, lsr #4]
    5be8:	28202620 	stmdacs	r0!, {r5, r9, sl, sp}
    5bec:	6e3c3c31 	mrcvs	12, 1, r3, cr12, cr1, {1}
    5bf0:	29296d75 	stmdbcs	r9!, {r0, r2, r4, r5, r6, r8, sl, fp, sp, lr}
    5bf4:	31520029 	cmpcc	r2, r9, lsr #32
    5bf8:	4e495020 	cdpmi	0, 4, cr5, cr9, cr0, {1}
    5bfc:	4b00315f 	blmi	12180 <_Min_Stack_Size+0x11d80>
    5c00:	41505945 	cmpmi	r0, r5, asr #18
    5c04:	4f505f44 	svcmi	0x00505f44
    5c08:	47205452 			; <UNDEFINED> instruction: 0x47205452
    5c0c:	414f4950 	cmpmi	pc, r0, asr r9	; <UNPREDICTABLE>
    5c10:	5f455f00 	svcpl	0x00455f00
    5c14:	4b534154 	blmi	14d616c <_Min_Stack_Size+0x14d5d6c>
    5c18:	53505f41 	cmppl	r0, #260	; 0x104
    5c1c:	616d0050 	qdsubvs	r0, r0, sp
    5c20:	50006e69 	andpl	r6, r0, r9, ror #28
    5c24:	315f4e49 	cmpcc	pc, r9, asr #28
    5c28:	49500033 	ldmdbmi	r0, {r0, r1, r4, r5}^
    5c2c:	34315f4e 	ldrtcc	r5, [r1], #-3918	; 0xfffff0b2
    5c30:	44434c00 	strbmi	r4, [r3], #-3072	; 0xfffff400
    5c34:	454c435f 	strbmi	r4, [ip, #-863]	; 0xfffffca1
    5c38:	435f5241 	cmpmi	pc, #268435460	; 0x10000004
    5c3c:	414d4d4f 	cmpmi	sp, pc, asr #26
    5c40:	3020444e 	eorcc	r4, r0, lr, asr #8
    5c44:	00313078 	eorseq	r3, r1, r8, ror r0
    5c48:	535f534f 	cmppl	pc, #1006632961	; 0x3c000001
    5c4c:	43544957 	cmpmi	r4, #1425408	; 0x15c000
    5c50:	50535f48 	subspl	r5, r3, r8, asr #30
    5c54:	20297828 	eorcs	r7, r9, r8, lsr #16
    5c58:	74697773 	strbtvc	r7, [r9], #-1907	; 0xfffff88d
    5c5c:	78286863 	stmdavc	r8!, {r0, r1, r5, r6, fp, sp, lr}
    5c60:	63207b29 			; <UNDEFINED> instruction: 0x63207b29
    5c64:	20657361 	rsbcs	r7, r5, r1, ror #6
    5c68:	3a50534d 	bcc	141a9a4 <_Min_Stack_Size+0x141a5a4>
    5c6c:	615f5f20 	cmpvs	pc, r0, lsr #30
    5c70:	22286d73 	eorcs	r6, r8, #7360	; 0x1cc0
    5c74:	2053524d 	subscs	r5, r3, sp, asr #4
    5c78:	432c3372 			; <UNDEFINED> instruction: 0x432c3372
    5c7c:	52544e4f 	subspl	r4, r4, #1264	; 0x4f0
    5c80:	5c204c4f 	stcpl	12, cr4, [r0], #-316	; 0xfffffec4
    5c84:	22745c6e 	rsbscs	r5, r4, #28160	; 0x6e00
    5c88:	4e412220 	cdpmi	2, 4, cr2, cr1, cr0, {1}
    5c8c:	33722044 	cmncc	r2, #68	; 0x44
    5c90:	2c33722c 	lfmcs	f7, 4, [r3], #-176	; 0xffffff50
    5c94:	35783023 	ldrbcc	r3, [r8, #-35]!	; 0xffffffdd
    5c98:	5c6e5c20 	stclpl	12, cr5, [lr], #-128	; 0xffffff80
    5c9c:	22202274 	eorcs	r2, r0, #116, 4	; 0x40000007
    5ca0:	2052534d 	subscs	r5, r2, sp, asr #6
    5ca4:	544e4f43 	strbpl	r4, [lr], #-3907	; 0xfffff0bd
    5ca8:	2c4c4f52 	mcrrcs	15, 5, r4, ip, cr2
    5cac:	29223372 	stmdbcs	r2!, {r1, r4, r5, r6, r8, r9, ip, sp}
    5cb0:	7262203b 	rsbvc	r2, r2, #59	; 0x3b
    5cb4:	3b6b6165 	blcc	1ade250 <_Min_Stack_Size+0x1adde50>
    5cb8:	73616320 	cmnvc	r1, #32, 6	; 0x80000000
    5cbc:	53502065 	cmppl	r0, #101	; 0x65
    5cc0:	5f203a50 	svcpl	0x00203a50
    5cc4:	6d73615f 	ldfvse	f6, [r3, #-380]!	; 0xfffffe84
    5cc8:	524d2228 	subpl	r2, sp, #40, 4	; 0x80000002
    5ccc:	33722053 	cmncc	r2, #83	; 0x53
    5cd0:	4e4f432c 	cdpmi	3, 4, cr4, cr15, cr12, {1}
    5cd4:	4c4f5254 	sfmmi	f5, 2, [pc], {84}	; 0x54
    5cd8:	5c6e5c20 	stclpl	12, cr5, [lr], #-128	; 0xffffff80
    5cdc:	22202274 	eorcs	r2, r0, #116, 4	; 0x40000007
    5ce0:	2052524f 	subscs	r5, r2, pc, asr #4
    5ce4:	722c3372 	eorvc	r3, ip, #-939524095	; 0xc8000001
    5ce8:	30232c33 	eorcc	r2, r3, r3, lsr ip
    5cec:	20323078 	eorscs	r3, r2, r8, ror r0
    5cf0:	745c6e5c 	ldrbvc	r6, [ip], #-3676	; 0xfffff1a4
    5cf4:	4d222022 	stcmi	0, cr2, [r2, #-136]!	; 0xffffff78
    5cf8:	43205253 			; <UNDEFINED> instruction: 0x43205253
    5cfc:	52544e4f 	subspl	r4, r4, #1264	; 0x4f0
    5d00:	722c4c4f 	eorvc	r4, ip, #20224	; 0x4f00
    5d04:	3b292233 	blcc	a4e5d8 <_Min_Stack_Size+0xa4e1d8>
    5d08:	65726220 	ldrbvs	r6, [r2, #-544]!	; 0xfffffde0
    5d0c:	203b6b61 	eorscs	r6, fp, r1, ror #22
    5d10:	5653007d 			; <UNDEFINED> instruction: 0x5653007d
    5d14:	61485f43 	cmpvs	r8, r3, asr #30
    5d18:	656c646e 	strbvs	r6, [ip, #-1134]!	; 0xfffffb92
    5d1c:	4f430072 	svcmi	0x00430072
    5d20:	524f544e 	subpl	r5, pc, #1308622848	; 0x4e000000
    5d24:	41565f4c 	cmpmi	r6, ip, asr #30
    5d28:	4154004c 	cmpmi	r4, ip, asr #32
    5d2c:	5f414b53 	svcpl	0x00414b53
    5d30:	444e4148 	strbmi	r4, [lr], #-328	; 0xfffffeb8
    5d34:	0052454c 	subseq	r4, r2, ip, asr #10
    5d38:	49545845 	ldmdbmi	r4, {r0, r2, r6, fp, ip, lr}^
    5d3c:	616c665f 	cmnvs	ip, pc, asr r6
    5d40:	53520067 	cmppl	r2, #103	; 0x67
    5d44:	4e495020 	cdpmi	0, 4, cr5, cr9, cr0, {1}
    5d48:	0035315f 	eorseq	r3, r5, pc, asr r1
    5d4c:	636f6c63 	cmnvs	pc, #25344	; 0x6300
    5d50:	6e695f6b 	cdpvs	15, 6, cr5, cr9, cr11, {3}
    5d54:	49007469 	stmdbmi	r0, {r0, r3, r5, r6, sl, ip, sp, lr}
    5d58:	4c5f434e 	mrrcmi	3, 4, r4, pc, cr14	; <UNPREDICTABLE>
    5d5c:	485f4443 	ldmdami	pc, {r0, r1, r6, sl, lr}^	; <UNPREDICTABLE>
    5d60:	5f00205f 	svcpl	0x0000205f
    5d64:	41545f53 	cmpmi	r4, r3, asr pc
    5d68:	5f424b53 	svcpl	0x00424b53
    5d6c:	00505350 	subseq	r5, r0, r0, asr r3
    5d70:	532f2e2e 			; <UNDEFINED> instruction: 0x532f2e2e
    5d74:	74726174 	ldrbtvc	r6, [r2], #-372	; 0xfffffe8c
    5d78:	732f7075 			; <UNDEFINED> instruction: 0x732f7075
    5d7c:	74726174 	ldrbtvc	r6, [r2], #-372	; 0xfffffe8c
    5d80:	735f7075 	cmpvc	pc, #117	; 0x75
    5d84:	32336d74 	eorscc	r6, r3, #116, 26	; 0x1d00
    5d88:	33303166 	teqcc	r0, #-2147483623	; 0x80000019
    5d8c:	78743663 	ldmdavc	r4!, {r0, r1, r5, r6, r9, sl, ip, sp}^
    5d90:	4700732e 	strmi	r7, [r0, -lr, lsr #6]
    5d94:	4120554e 			; <UNDEFINED> instruction: 0x4120554e
    5d98:	2e322053 	mrccs	0, 1, r2, cr2, cr3, {2}
    5d9c:	Address 0x0000000000005d9c is out of bounds.


Disassembly of section .debug_frame:

00000000 <.debug_frame>:
   0:	0000000c 	andeq	r0, r0, ip
   4:	ffffffff 			; <UNDEFINED> instruction: 0xffffffff
   8:	7c020001 	stcvc	0, cr0, [r2], {1}
   c:	000d0c0e 	andeq	r0, sp, lr, lsl #24
  10:	00000024 	andeq	r0, r0, r4, lsr #32
  14:	00000000 	andeq	r0, r0, r0
  18:	08000170 	stmdaeq	r0, {r4, r5, r6, r8}
  1c:	000000cc 	andeq	r0, r0, ip, asr #1
  20:	87040e41 	strhi	r0, [r4, -r1, asr #28]
  24:	100e4101 	andne	r4, lr, r1, lsl #2
  28:	02070d41 	andeq	r0, r7, #4160	; 0x1040
  2c:	41040e5c 	tstmi	r4, ip, asr lr
  30:	c7410d0d 	strbgt	r0, [r1, -sp, lsl #26]
  34:	0000000e 	andeq	r0, r0, lr
  38:	00000024 	andeq	r0, r0, r4, lsr #32
  3c:	00000000 	andeq	r0, r0, r0
  40:	0800023c 	stmdaeq	r0, {r2, r3, r4, r5, r9}
  44:	000000cc 	andeq	r0, r0, ip, asr #1
  48:	87040e41 	strhi	r0, [r4, -r1, asr #28]
  4c:	100e4101 	andne	r4, lr, r1, lsl #2
  50:	02070d41 	andeq	r0, r7, #4160	; 0x1040
  54:	41040e5c 	tstmi	r4, ip, asr lr
  58:	c7410d0d 	strbgt	r0, [r1, -sp, lsl #26]
  5c:	0000000e 	andeq	r0, r0, lr
  60:	00000020 	andeq	r0, r0, r0, lsr #32
  64:	00000000 	andeq	r0, r0, r0
  68:	08000308 	stmdaeq	r0, {r3, r8, r9}
  6c:	000001b0 			; <UNDEFINED> instruction: 0x000001b0
  70:	87080e41 	strhi	r0, [r8, -r1, asr #28]
  74:	41018e02 	tstmi	r1, r2, lsl #28
  78:	0d41180e 	stcleq	8, cr1, [r1, #-56]	; 0xffffffc8
  7c:	0ec50207 	cdpeq	2, 12, cr0, cr5, cr7, {0}
  80:	0d0d4108 	stfeqs	f4, [sp, #-32]	; 0xffffffe0
  84:	00000018 	andeq	r0, r0, r8, lsl r0
  88:	00000000 	andeq	r0, r0, r0
  8c:	080004b8 	stmdaeq	r0, {r3, r4, r5, r7, sl}
  90:	00000024 	andeq	r0, r0, r4, lsr #32
  94:	87080e41 	strhi	r0, [r8, -r1, asr #28]
  98:	41018e02 	tstmi	r1, r2, lsl #28
  9c:	0000070d 	andeq	r0, r0, sp, lsl #14
  a0:	00000018 	andeq	r0, r0, r8, lsl r0
  a4:	00000000 	andeq	r0, r0, r0
  a8:	080004dc 	stmdaeq	r0, {r2, r3, r4, r6, r7, sl}
  ac:	00000024 	andeq	r0, r0, r4, lsr #32
  b0:	87080e41 	strhi	r0, [r8, -r1, asr #28]
  b4:	41018e02 	tstmi	r1, r2, lsl #28
  b8:	0000070d 	andeq	r0, r0, sp, lsl #14
  bc:	00000018 	andeq	r0, r0, r8, lsl r0
  c0:	00000000 	andeq	r0, r0, r0
  c4:	08000500 	stmdaeq	r0, {r8, sl}
  c8:	00000024 	andeq	r0, r0, r4, lsr #32
  cc:	87080e41 	strhi	r0, [r8, -r1, asr #28]
  d0:	41018e02 	tstmi	r1, r2, lsl #28
  d4:	0000070d 	andeq	r0, r0, sp, lsl #14
  d8:	00000018 	andeq	r0, r0, r8, lsl r0
  dc:	00000000 	andeq	r0, r0, r0
  e0:	08000524 	stmdaeq	r0, {r2, r5, r8, sl}
  e4:	00000024 	andeq	r0, r0, r4, lsr #32
  e8:	87080e41 	strhi	r0, [r8, -r1, asr #28]
  ec:	41018e02 	tstmi	r1, r2, lsl #28
  f0:	0000070d 	andeq	r0, r0, sp, lsl #14
  f4:	00000018 	andeq	r0, r0, r8, lsl r0
  f8:	00000000 	andeq	r0, r0, r0
  fc:	08000548 	stmdaeq	r0, {r3, r6, r8, sl}
 100:	00000024 	andeq	r0, r0, r4, lsr #32
 104:	87080e41 	strhi	r0, [r8, -r1, asr #28]
 108:	41018e02 	tstmi	r1, r2, lsl #28
 10c:	0000070d 	andeq	r0, r0, sp, lsl #14
 110:	00000018 	andeq	r0, r0, r8, lsl r0
 114:	00000000 	andeq	r0, r0, r0
 118:	0800056c 	stmdaeq	r0, {r2, r3, r5, r6, r8, sl}
 11c:	000000a8 	andeq	r0, r0, r8, lsr #1
 120:	87080e41 	strhi	r0, [r8, -r1, asr #28]
 124:	41018e02 	tstmi	r1, r2, lsl #28
 128:	0000070d 	andeq	r0, r0, sp, lsl #14
 12c:	00000018 	andeq	r0, r0, r8, lsl r0
 130:	00000000 	andeq	r0, r0, r0
 134:	08000614 	stmdaeq	r0, {r2, r4, r9, sl}
 138:	000000c4 	andeq	r0, r0, r4, asr #1
 13c:	87080e41 	strhi	r0, [r8, -r1, asr #28]
 140:	41018e02 	tstmi	r1, r2, lsl #28
 144:	0000070d 	andeq	r0, r0, sp, lsl #14
 148:	0000000c 	andeq	r0, r0, ip
 14c:	ffffffff 			; <UNDEFINED> instruction: 0xffffffff
 150:	7c020001 	stcvc	0, cr0, [r2], {1}
 154:	000d0c0e 	andeq	r0, sp, lr, lsl #24
 158:	00000024 	andeq	r0, r0, r4, lsr #32
 15c:	00000148 	andeq	r0, r0, r8, asr #2
 160:	080006d8 	stmdaeq	r0, {r3, r4, r6, r7, r9, sl}
 164:	00000030 	andeq	r0, r0, r0, lsr r0
 168:	87040e41 	strhi	r0, [r4, -r1, asr #28]
 16c:	180e4101 	stmdane	lr, {r0, r8, lr}
 170:	52070d41 	andpl	r0, r7, #4160	; 0x1040
 174:	0d41040e 	cfstrdeq	mvd0, [r1, #-56]	; 0xffffffc8
 178:	0ec7410d 	poleqs	f4, f7, #5.0
 17c:	00000000 	andeq	r0, r0, r0
 180:	00000024 	andeq	r0, r0, r4, lsr #32
 184:	00000148 	andeq	r0, r0, r8, asr #2
 188:	08000708 	stmdaeq	r0, {r3, r8, r9, sl}
 18c:	0000014e 	andeq	r0, r0, lr, asr #2
 190:	840c0e41 	strhi	r0, [ip], #-3649	; 0xfffff1bf
 194:	8e028703 	cdphi	7, 0, cr8, cr2, cr3, {0}
 198:	200e4101 	andcs	r4, lr, r1, lsl #2
 19c:	02070d41 	andeq	r0, r7, #4160	; 0x1040
 1a0:	410c0ea2 	smlatbmi	ip, r2, lr, r0
 1a4:	00000d0d 	andeq	r0, r0, sp, lsl #26
 1a8:	00000024 	andeq	r0, r0, r4, lsr #32
 1ac:	00000148 	andeq	r0, r0, r8, asr #2
 1b0:	00000000 	andeq	r0, r0, r0
 1b4:	000000d4 	ldrdeq	r0, [r0], -r4
 1b8:	87040e41 	strhi	r0, [r4, -r1, asr #28]
 1bc:	100e4101 	andne	r4, lr, r1, lsl #2
 1c0:	02070d41 	andeq	r0, r7, #4160	; 0x1040
 1c4:	41040e57 	tstmi	r4, r7, asr lr
 1c8:	c7410d0d 	strbgt	r0, [r1, -sp, lsl #26]
 1cc:	0000000e 	andeq	r0, r0, lr
 1d0:	00000024 	andeq	r0, r0, r4, lsr #32
 1d4:	00000148 	andeq	r0, r0, r8, asr #2
 1d8:	00000000 	andeq	r0, r0, r0
 1dc:	00000050 	andeq	r0, r0, r0, asr r0
 1e0:	87040e41 	strhi	r0, [r4, -r1, asr #28]
 1e4:	100e4101 	andne	r4, lr, r1, lsl #2
 1e8:	62070d41 	andvs	r0, r7, #4160	; 0x1040
 1ec:	0d41040e 	cfstrdeq	mvd0, [r1, #-56]	; 0xffffffc8
 1f0:	0ec7410d 	poleqs	f4, f7, #5.0
 1f4:	00000000 	andeq	r0, r0, r0
 1f8:	00000024 	andeq	r0, r0, r4, lsr #32
 1fc:	00000148 	andeq	r0, r0, r8, asr #2
 200:	00000000 	andeq	r0, r0, r0
 204:	00000020 	andeq	r0, r0, r0, lsr #32
 208:	87040e41 	strhi	r0, [r4, -r1, asr #28]
 20c:	100e4101 	andne	r4, lr, r1, lsl #2
 210:	4a070d41 	bmi	1c371c <_Min_Stack_Size+0x1c331c>
 214:	0d41040e 	cfstrdeq	mvd0, [r1, #-56]	; 0xffffffc8
 218:	0ec7410d 	poleqs	f4, f7, #5.0
 21c:	00000000 	andeq	r0, r0, r0
 220:	00000024 	andeq	r0, r0, r4, lsr #32
 224:	00000148 	andeq	r0, r0, r8, asr #2
 228:	00000000 	andeq	r0, r0, r0
 22c:	0000002c 	andeq	r0, r0, ip, lsr #32
 230:	87040e41 	strhi	r0, [r4, -r1, asr #28]
 234:	100e4101 	andne	r4, lr, r1, lsl #2
 238:	50070d41 	andpl	r0, r7, r1, asr #26
 23c:	0d41040e 	cfstrdeq	mvd0, [r1, #-56]	; 0xffffffc8
 240:	0ec7410d 	poleqs	f4, f7, #5.0
 244:	00000000 	andeq	r0, r0, r0
 248:	00000024 	andeq	r0, r0, r4, lsr #32
 24c:	00000148 	andeq	r0, r0, r8, asr #2
 250:	00000000 	andeq	r0, r0, r0
 254:	00000018 	andeq	r0, r0, r8, lsl r0
 258:	87040e41 	strhi	r0, [r4, -r1, asr #28]
 25c:	100e4101 	andne	r4, lr, r1, lsl #2
 260:	46070d41 	strmi	r0, [r7], -r1, asr #26
 264:	0d41040e 	cfstrdeq	mvd0, [r1, #-56]	; 0xffffffc8
 268:	0ec7410d 	poleqs	f4, f7, #5.0
 26c:	00000000 	andeq	r0, r0, r0
 270:	00000024 	andeq	r0, r0, r4, lsr #32
 274:	00000148 	andeq	r0, r0, r8, asr #2
 278:	00000000 	andeq	r0, r0, r0
 27c:	0000002c 	andeq	r0, r0, ip, lsr #32
 280:	87040e41 	strhi	r0, [r4, -r1, asr #28]
 284:	100e4101 	andne	r4, lr, r1, lsl #2
 288:	50070d41 	andpl	r0, r7, r1, asr #26
 28c:	0d41040e 	cfstrdeq	mvd0, [r1, #-56]	; 0xffffffc8
 290:	0ec7410d 	poleqs	f4, f7, #5.0
 294:	00000000 	andeq	r0, r0, r0
 298:	00000024 	andeq	r0, r0, r4, lsr #32
 29c:	00000148 	andeq	r0, r0, r8, asr #2
 2a0:	00000000 	andeq	r0, r0, r0
 2a4:	00000088 	andeq	r0, r0, r8, lsl #1
 2a8:	87040e41 	strhi	r0, [r4, -r1, asr #28]
 2ac:	180e4101 	stmdane	lr, {r0, r8, lr}
 2b0:	7e070d41 	cdpvc	13, 0, cr0, cr7, cr1, {2}
 2b4:	0d41040e 	cfstrdeq	mvd0, [r1, #-56]	; 0xffffffc8
 2b8:	0ec7410d 	poleqs	f4, f7, #5.0
 2bc:	00000000 	andeq	r0, r0, r0
 2c0:	00000024 	andeq	r0, r0, r4, lsr #32
 2c4:	00000148 	andeq	r0, r0, r8, asr #2
 2c8:	00000000 	andeq	r0, r0, r0
 2cc:	0000003e 	andeq	r0, r0, lr, lsr r0
 2d0:	87040e41 	strhi	r0, [r4, -r1, asr #28]
 2d4:	100e4101 	andne	r4, lr, r1, lsl #2
 2d8:	59070d41 	stmdbpl	r7, {r0, r6, r8, sl, fp}
 2dc:	0d41040e 	cfstrdeq	mvd0, [r1, #-56]	; 0xffffffc8
 2e0:	0ec7410d 	poleqs	f4, f7, #5.0
 2e4:	00000000 	andeq	r0, r0, r0
 2e8:	0000000c 	andeq	r0, r0, ip
 2ec:	ffffffff 			; <UNDEFINED> instruction: 0xffffffff
 2f0:	7c020001 	stcvc	0, cr0, [r2], {1}
 2f4:	000d0c0e 	andeq	r0, sp, lr, lsl #24
 2f8:	00000024 	andeq	r0, r0, r4, lsr #32
 2fc:	000002e8 	andeq	r0, r0, r8, ror #5
 300:	08000856 	stmdaeq	r0, {r1, r2, r4, r6, fp}
 304:	00000020 	andeq	r0, r0, r0, lsr #32
 308:	87040e41 	strhi	r0, [r4, -r1, asr #28]
 30c:	180e4101 	stmdane	lr, {r0, r8, lr}
 310:	4a070d41 	bmi	1c381c <_Min_Stack_Size+0x1c341c>
 314:	0d41040e 	cfstrdeq	mvd0, [r1, #-56]	; 0xffffffc8
 318:	0ec7410d 	poleqs	f4, f7, #5.0
 31c:	00000000 	andeq	r0, r0, r0
 320:	00000024 	andeq	r0, r0, r4, lsr #32
 324:	000002e8 	andeq	r0, r0, r8, ror #5
 328:	08000876 	stmdaeq	r0, {r1, r2, r4, r5, r6, fp}
 32c:	0000001a 	andeq	r0, r0, sl, lsl r0
 330:	87040e41 	strhi	r0, [r4, -r1, asr #28]
 334:	180e4101 	stmdane	lr, {r0, r8, lr}
 338:	47070d41 	strmi	r0, [r7, -r1, asr #26]
 33c:	0d41040e 	cfstrdeq	mvd0, [r1, #-56]	; 0xffffffc8
 340:	0ec7410d 	poleqs	f4, f7, #5.0
 344:	00000000 	andeq	r0, r0, r0
 348:	0000001c 	andeq	r0, r0, ip, lsl r0
 34c:	000002e8 	andeq	r0, r0, r8, ror #5
 350:	08000890 	stmdaeq	r0, {r4, r7, fp}
 354:	00000018 	andeq	r0, r0, r8, lsl r0
 358:	87040e41 	strhi	r0, [r4, -r1, asr #28]
 35c:	070d4101 	streq	r4, [sp, -r1, lsl #2]
 360:	410d0d48 	tstmi	sp, r8, asr #26
 364:	00000ec7 	andeq	r0, r0, r7, asr #29
 368:	00000018 	andeq	r0, r0, r8, lsl r0
 36c:	000002e8 	andeq	r0, r0, r8, ror #5
 370:	080008a8 	stmdaeq	r0, {r3, r5, r7, fp}
 374:	000000e4 	andeq	r0, r0, r4, ror #1
 378:	87080e41 	strhi	r0, [r8, -r1, asr #28]
 37c:	41018e02 	tstmi	r1, r2, lsl #28
 380:	0000070d 	andeq	r0, r0, sp, lsl #14
 384:	0000001c 	andeq	r0, r0, ip, lsl r0
 388:	000002e8 	andeq	r0, r0, r8, ror #5
 38c:	0800098c 	stmdaeq	r0, {r2, r3, r7, r8, fp}
 390:	00000030 	andeq	r0, r0, r0, lsr r0
 394:	87040e41 	strhi	r0, [r4, -r1, asr #28]
 398:	070d4101 	streq	r4, [sp, -r1, lsl #2]
 39c:	410d0d51 	tstmi	sp, r1, asr sp
 3a0:	00000ec7 	andeq	r0, r0, r7, asr #29
 3a4:	0000001c 	andeq	r0, r0, ip, lsl r0
 3a8:	000002e8 	andeq	r0, r0, r8, ror #5
 3ac:	080009bc 	stmdaeq	r0, {r2, r3, r4, r5, r7, r8, fp}
 3b0:	00000034 	andeq	r0, r0, r4, lsr r0
 3b4:	87040e41 	strhi	r0, [r4, -r1, asr #28]
 3b8:	070d4101 	streq	r4, [sp, -r1, lsl #2]
 3bc:	410d0d54 	tstmi	sp, r4, asr sp
 3c0:	00000ec7 	andeq	r0, r0, r7, asr #29
 3c4:	0000001c 	andeq	r0, r0, ip, lsl r0
 3c8:	000002e8 	andeq	r0, r0, r8, ror #5
 3cc:	080009f0 	stmdaeq	r0, {r4, r5, r6, r7, r8, fp}
 3d0:	00000058 	andeq	r0, r0, r8, asr r0
 3d4:	87080e41 	strhi	r0, [r8, -r1, asr #28]
 3d8:	41018e02 	tstmi	r1, r2, lsl #28
 3dc:	0d41280e 	stcleq	8, cr2, [r1, #-56]	; 0xffffffc8
 3e0:	00000007 	andeq	r0, r0, r7
 3e4:	0000000c 	andeq	r0, r0, ip
 3e8:	ffffffff 			; <UNDEFINED> instruction: 0xffffffff
 3ec:	7c020001 	stcvc	0, cr0, [r2], {1}
 3f0:	000d0c0e 	andeq	r0, sp, lr, lsl #24
 3f4:	00000018 	andeq	r0, r0, r8, lsl r0
 3f8:	000003e4 	andeq	r0, r0, r4, ror #7
 3fc:	08000a9c 	stmdaeq	r0, {r2, r3, r4, r7, r9, fp}
 400:	00000048 	andeq	r0, r0, r8, asr #32
 404:	84100e41 	ldrhi	r0, [r0], #-3649	; 0xfffff1bf
 408:	86038504 	strhi	r8, [r3], -r4, lsl #10
 40c:	00018e02 	andeq	r8, r1, r2, lsl #28
